SH SERIES C/C++ Compiler (Ver. 6.0C)                                                                 30-Jan-2015 21:53:33  PAGE    1

************ OBJECT LISTING ************

FILE NAME: C:\Users\ALEX\Desktop\Jetpack Joyride Casio - LastIndev\Jetpack.c

SCT OFFSET   CODE       C LABEL     INSTRUCTION OPERAND    COMMENT

       Jetpack.c     1    #include "include.h"
       Jetpack.c     2    
       Jetpack.c     3    Save *sauvegarde = NULL;
       Jetpack.c     4    char nouveauSucces = 0;
       Jetpack.c     5    
       Jetpack.c     6    int AddIn_main(int isAppli, unsigned short OptionNum)
P   00000000              _AddIn_main:                     ; function: AddIn_main
                                                           ; frame size=12
    00000000 2FE6                   MOV.L       R14,@-R15
       Jetpack.c     7    {
       Jetpack.c     8        ML_bmp_or(jetpackJoyride,0,0,128,64);
    00000002 E340                   MOV         #64,R3
    00000004 9726                   MOV.W       L865,R7    ; H'0080
    00000006 E600                   MOV         #0,R6
    00000008 D413                   MOV.L       L865+4,R4  ; __$jetpackJoyride
    0000000A 4F22                   STS.L       PR,@-R15
    0000000C 2F36                   MOV.L       R3,@-R15
    0000000E D213                   MOV.L       L865+8,R2  ; _ML_bmp_or
    00000010 420B                   JSR         @R2
    00000012 6563                   MOV         R6,R5
       Jetpack.c     9        ML_display_vram();
    00000014 D312                   MOV.L       L865+12,R3 ; _ML_display_vram
    00000016 430B                   JSR         @R3
    00000018 7F04                   ADD         #4,R15
       Jetpack.c    10        Sleep(1500);
    0000001A 941C                   MOV.W       L865+2,R4  ; H'05DC
    0000001C D211                   MOV.L       L865+16,R2 ; _Sleep
    0000001E 420B                   JSR         @R2
    00000020 0009                   NOP
       Jetpack.c    11    
       Jetpack.c    12        sauvegarde = loadSaveFile(); // on charge la sauvegarde du joueur
    00000022 D311                   MOV.L       L865+20,R3 ; _loadSaveFile
    00000024 430B                   JSR         @R3
    00000026 0009                   NOP
    00000028 D210                   MOV.L       L865+24,R2 ; _sauvegarde
       Jetpack.c    13        ML_set_contrast(sauvegarde->contrast);
    0000002A E17C                   MOV         #124,R1
    0000002C D310                   MOV.L       L865+28,R3 ; _ML_set_contrast
    0000002E 2202                   MOV.L       R0,@R2
    00000030 430B                   JSR         @R3
    00000032 041C                   MOV.B       @(R0,R1),R4
    00000034 DE0F                   MOV.L       L865+32,R14; _choix
       Jetpack.c    14    
       Jetpack.c    15        while (choix() != 1);
    00000036              L776:                             
    00000036 4E0B                   JSR         @R14
    00000038 0009                   NOP
    0000003A 8801                   CMP/EQ      #1,R0
    0000003C 8BFB                   BF          L776
       Jetpack.c    16    
       Jetpack.c    17        saveFile();
    0000003E D20E                   MOV.L       L865+36,R2 ; _saveFile
    00000040 420B                   JSR         @R2
    00000042 0009                   NOP




SH SERIES C/C++ Compiler (Ver. 6.0C)                                                                 30-Jan-2015 21:53:33  PAGE    2


SCT OFFSET   CODE       C LABEL     INSTRUCTION OPERAND    COMMENT

       Jetpack.c    18        ML_set_contrast(get_default_contrast());
    00000044 D30D                   MOV.L       L865+40,R3 ; _get_default_contrast
    00000046 430B                   JSR         @R3
    00000048 0009                   NOP
    0000004A 6403                   MOV         R0,R4
    0000004C 4F26                   LDS.L       @R15+,PR
    0000004E D208                   MOV.L       L865+28,R2 ; _ML_set_contrast
    00000050 422B                   JMP         @R2
    00000052 6EF6                   MOV.L       @R15+,R14
    00000054              L865:                             
    00000054 0080                   .DATA.W     H'0080
    00000056 05DC                   .DATA.W     H'05DC
    00000058 <00000000>             .DATA.L     __$jetpackJoyride
    0000005C <00000000>             .DATA.L     _ML_bmp_or
    00000060 <00000000>             .DATA.L     _ML_display_vram
    00000064 <00000000>             .DATA.L     _Sleep
    00000068 <00000000>             .DATA.L     _loadSaveFile
    0000006C <00000000>             .DATA.L     _sauvegarde
    00000070 <00000000>             .DATA.L     _ML_set_contrast
    00000074 <00000000>             .DATA.L     _choix
    00000078 <00000000>             .DATA.L     _saveFile
    0000007C <00000000>             .DATA.L     _get_default_contrast
       Jetpack.c    19    }
       Jetpack.c    20    
       Jetpack.c    21    int jetpackMainGame()
    00000080              _jetpackMainGame:                ; function: jetpackMainGame
                                                           ; frame size=188
                                                           ; used runtime library name:
                                                           ; __modls, __adds, __subs, __subd, __muld, __divs, __divdr, __negs, __sto
                        +                                  d, __dtos, __stoi, __dtoi, __stou, __itos, __itod, __utos, __nes, __gts, 
                        +                                  __lts, __ges, __quick_evn_mvn
    00000080 2FE6                   MOV.L       R14,@-R15
       Jetpack.c    22    {
       Jetpack.c    23        int y = 8, x = 45, w;
    00000082 E32D                   MOV         #45,R3
    00000084 2FD6                   MOV.L       R13,@-R15
       Jetpack.c    24        int vehicule = 0;
       Jetpack.c    25        int tempsLasers = 0, tempsMissiles = 0, tempsPieces = 0, tempsBox = 0, lasers = 0;
    00000086 E04C                   MOV         #76,R0
    00000088 DE4B                   MOV.L       L866+6,R14 ; _sauvegarde
    0000008A ED00                   MOV         #0,R13
    0000008C 2FC6                   MOV.L       R12,@-R15
    0000008E 2FB6                   MOV.L       R11,@-R15
    00000090 2FA6                   MOV.L       R10,@-R15
    00000092 EB01                   MOV         #1,R11
    00000094 2F96                   MOV.L       R9,@-R15
    00000096 EA08                   MOV         #8,R10
    00000098 2F86                   MOV.L       R8,@-R15
    0000009A 4F22                   STS.L       PR,@-R15
    0000009C 4F12                   STS.L       MACL,@-R15
    0000009E 7F88                   ADD         #-120,R15
    000000A0 D944                   MOV.L       L866+2,R9  ; _rand
    000000A2 1FA1                   MOV.L       R10,@(4,R15)
    000000A4 1F32                   MOV.L       R3,@(8,R15)
       Jetpack.c    26        int niveau = 0, sleep = 40;
    000000A6 E328                   MOV         #40,R3
    000000A8 2FD2                   MOV.L       R13,@R15




SH SERIES C/C++ Compiler (Ver. 6.0C)                                                                 30-Jan-2015 21:53:33  PAGE    3


SCT OFFSET   CODE       C LABEL     INSTRUCTION OPERAND    COMMENT

    000000AA 1FD3                   MOV.L       R13,@(12,R15)
    000000AC 0FD6                   MOV.L       R13,@(R0,R15)
    000000AE E044                   MOV         #68,R0
    000000B0 0FD6                   MOV.L       R13,@(R0,R15)
    000000B2 E040                   MOV         #64,R0
    000000B4 1FD6                   MOV.L       R13,@(24,R15)
    000000B6 0FD6                   MOV.L       R13,@(R0,R15)
    000000B8 1FDE                   MOV.L       R13,@(56,R15)
    000000BA 1F38                   MOV.L       R3,@(32,R15)
       Jetpack.c    27        int isDead = 0, saveGadgetsUsed = 0, collisionPhase = 0, firstDeath = 0, isJeton = 0, isBox = 0, coeur
                         + = 0;
    000000BC 1FDC                   MOV.L       R13,@(48,R15)
    000000BE E058                   MOV         #88,R0
       Jetpack.c    28        int nbPieces = 0, nbJetons = 0, totalJetons = 0;
       Jetpack.c    29        float  decalageElements = -60, scrolling = 0, vitesseDecalage = 2;
    000000C0 D33E                   MOV.L       L866+10,R3 ; H'C2700000
    000000C2 62D3                   MOV         R13,R2
    000000C4 DC3E                   MOV.L       L866+14,R12; H'40000000
       Jetpack.c    30        float lvl = 0, deadDistance = 0, vehicDistance[6] = {0,0,0,0,0,0};
    000000C6 61F3                   MOV         R15,R1
    000000C8 1FD5                   MOV.L       R13,@(20,R15)
    000000CA 6823                   MOV         R2,R8
    000000CC 0FD6                   MOV.L       R13,@(R0,R15)
    000000CE 7160                   ADD         #96,R1
    000000D0 1FD7                   MOV.L       R13,@(28,R15)
    000000D2 E05C                   MOV         #92,R0
    000000D4 1FDB                   MOV.L       R13,@(44,R15)
    000000D6 0FD6                   MOV.L       R13,@(R0,R15)
    000000D8 1FD4                   MOV.L       R13,@(16,R15)
    000000DA E048                   MOV         #72,R0
    000000DC 1FDA                   MOV.L       R13,@(40,R15)
    000000DE 1FD9                   MOV.L       R13,@(36,R15)
    000000E0 1F3D                   MOV.L       R3,@(52,R15)
    000000E2 6323                   MOV         R2,R3
    000000E4 1F2F                   MOV.L       R2,@(60,R15)
    000000E6 0F36                   MOV.L       R3,@(R0,R15)
    000000E8 D236                   MOV.L       L866+18,R2 ; L620
    000000EA D337                   MOV.L       L866+22,R3 ; __quick_evn_mvn
    000000EC 430B                   JSR         @R3
    000000EE E018                   MOV         #24,R0
       Jetpack.c    31    
       Jetpack.c    32        nouveauSucces = 0;
    000000F0 D136                   MOV.L       L866+26,R1 ; _nouveauSucces
       Jetpack.c    33        if (sauvegarde->succes[15] != -1) sauvegarde->succes[15] = 0;
    000000F2 E36F                   MOV         #111,R3
    000000F4 21D0                   MOV.B       R13,@R1
    000000F6 60E2                   MOV.L       @R14,R0
    000000F8 003C                   MOV.B       @(R0,R3),R0
    000000FA 88FF                   CMP/EQ      #-1,R0
    000000FC 8903                   BT          L778
    000000FE E26F                   MOV         #111,R2
    00000100 60E2                   MOV.L       @R14,R0
    00000102 320C                   ADD         R0,R2
    00000104 22D0                   MOV.B       R13,@R2
    00000106              L778:                             
       Jetpack.c    34    
       Jetpack.c    35        srand(RTC_getTicks()); // on initialise l'aleatoire




SH SERIES C/C++ Compiler (Ver. 6.0C)                                                                 30-Jan-2015 21:53:33  PAGE    4


SCT OFFSET   CODE       C LABEL     INSTRUCTION OPERAND    COMMENT

    00000106 D332                   MOV.L       L866+30,R3 ; _RTC_getTicks
    00000108 430B                   JSR         @R3
    0000010A 0009                   NOP
    0000010C D231                   MOV.L       L866+34,R2 ; _srand
    0000010E 420B                   JSR         @R2
    00000110 6403                   MOV         R0,R4
       Jetpack.c    36    
       Jetpack.c    37        initAll(); // on initialise tous les pieges
    00000112 D331                   MOV.L       L866+38,R3 ; _initAll
    00000114 430B                   JSR         @R3
    00000116 0009                   NOP
       Jetpack.c    38    
       Jetpack.c    39        sauvegarde->statTotal[0] += 1;
    00000118 62E2                   MOV.L       @R14,R2
    0000011A 532E                   MOV.L       @(56,R2),R3
    0000011C 7301                   ADD         #1,R3
    0000011E 123E                   MOV.L       R3,@(56,R2)
       Jetpack.c    40    
       Jetpack.c    41        if (sauvegarde->gadgetEquipe[0] == 9 || sauvegarde->gadgetEquipe[1] == 9)
    00000120 64E2                   MOV.L       @R14,R4
    00000122 740C                   ADD         #12,R4
    00000124 6040                   MOV.B       @R4,R0
    00000126 600C                   EXTU.B      R0,R0
    00000128 8809                   CMP/EQ      #9,R0
    0000012A 8903                   BT          L780
    0000012C 8441                   MOV.B       @(1,R4),R0
    0000012E 600C                   EXTU.B      R0,R0
    00000130 8809                   CMP/EQ      #9,R0
    00000132 8B18                   BF          L779
    00000134              L780:                             
       Jetpack.c    42        {
       Jetpack.c    43            sauvegarde->statTotal[4] += 1;
    00000134 62E2                   MOV.L       @R14,R2
    00000136 E048                   MOV         #72,R0
    00000138 032E                   MOV.L       @(R0,R2),R3
    0000013A 7301                   ADD         #1,R3
       Jetpack.c    44            vehicule = rand()%6+1; // si on a le gadget tour gratuit
    0000013C 490B                   JSR         @R9
    0000013E 0236                   MOV.L       R3,@(R0,R2)
    00000140 D226                   MOV.L       L866+42,R2 ; __modls
    00000142 6103                   MOV         R0,R1
    00000144 420B                   JSR         @R2
    00000146 E006                   MOV         #6,R0
    00000148 7001                   ADD         #1,R0
       Jetpack.c    45            if (vehicule == 4 && sauvegarde->succes[15] != -1) sauvegarde->succes[15] += 1;
    0000014A 8804                   CMP/EQ      #4,R0
    0000014C 8F0B                   BF/S        L779
    0000014E 2F02                   MOV.L       R0,@R15
    00000150 D319                   MOV.L       L866+6,R3  ; _sauvegarde
    00000152 E16F                   MOV         #111,R1
    00000154 6032                   MOV.L       @R3,R0
    00000156 001C                   MOV.B       @(R0,R1),R0
    00000158 88FF                   CMP/EQ      #-1,R0
    0000015A 8904                   BT          L779
    0000015C 62E2                   MOV.L       @R14,R2
    0000015E E06F                   MOV         #111,R0
    00000160 032C                   MOV.B       @(R0,R2),R3




SH SERIES C/C++ Compiler (Ver. 6.0C)                                                                 30-Jan-2015 21:53:33  PAGE    5


SCT OFFSET   CODE       C LABEL     INSTRUCTION OPERAND    COMMENT

    00000162 7301                   ADD         #1,R3
    00000164 0234                   MOV.B       R3,@(R0,R2)
    00000166              L779:                             
       Jetpack.c    46        }
       Jetpack.c    47        if (sauvegarde->gadgetEquipe[0] == 5 || sauvegarde->gadgetEquipe[1] == 5) genererJeton(1), isJeton = 1
                         +; // generation des jetons de tirage
    00000166 64E2                   MOV.L       @R14,R4
    00000168 740C                   ADD         #12,R4
    0000016A 6040                   MOV.B       @R4,R0
    0000016C 600C                   EXTU.B      R0,R0
    0000016E 8805                   CMP/EQ      #5,R0
    00000170 8903                   BT          L783
    00000172 8441                   MOV.B       @(1,R4),R0
    00000174 600C                   EXTU.B      R0,R0
    00000176 8805                   CMP/EQ      #5,R0
    00000178 8B04                   BF          L782
    0000017A              L783:                             
    0000017A D219                   MOV.L       L866+46,R2 ; _genererJeton
    0000017C 420B                   JSR         @R2
    0000017E E401                   MOV         #1,R4
    00000180 E301                   MOV         #1,R3
    00000182 1F37                   MOV.L       R3,@(28,R15)
    00000184              L782:                             
       Jetpack.c    48        if (sauvegarde->longueurAvance == 1) sauvegarde->longueurAvance = 0, vehicule = -1, vitesseDecalage = 
                         +7;
    00000184 60E2                   MOV.L       @R14,R0
    00000186 E177                   MOV         #119,R1
    00000188 001C                   MOV.B       @(R0,R1),R0
    0000018A 8801                   CMP/EQ      #1,R0
    0000018C 8B05                   BF          L784
    0000018E E077                   MOV         #119,R0
    00000190 DC14                   MOV.L       L866+50,R12; H'40E00000
    00000192 E3FF                   MOV         #-1,R3
    00000194 62E2                   MOV.L       @R14,R2
    00000196 02D4                   MOV.B       R13,@(R0,R2)
    00000198 2F32                   MOV.L       R3,@R15
    0000019A              L784:                             
    0000019A 63F3                   MOV         R15,R3
    0000019C 7360                   ADD         #96,R3
    0000019E E054                   MOV         #84,R0
    000001A0 0F36                   MOV.L       R3,@(R0,R15)
       Jetpack.c    49    
       Jetpack.c    50        while (1) // boucle principale, tout le jeu est dedans
    000001A2              L786:                             
       Jetpack.c    51        {
       Jetpack.c    52            if (IsKeyDown(KEY_CTRL_EXIT)) if (exitAnim() == 1) break;
    000001A2 9406                   MOV.W       L866,R4    ; H'7532
    000001A4 D310                   MOV.L       L866+54,R3 ; _IsKeyDown
    000001A6 430B                   JSR         @R3
    000001A8 0009                   NOP
    000001AA 2008                   TST         R0,R0
    000001AC 8925                   BT          L787
    000001AE A01D                   BRA         L863
    000001B0 0009                   NOP
    000001B2              L866:                             
    000001B2 7532                   .DATA.W     H'7532
    000001B4 <00000000>             .DATA.L     _rand




SH SERIES C/C++ Compiler (Ver. 6.0C)                                                                 30-Jan-2015 21:53:33  PAGE    6


SCT OFFSET   CODE       C LABEL     INSTRUCTION OPERAND    COMMENT

    000001B8 <00000000>             .DATA.L     _sauvegarde
    000001BC C2700000               .DATA.L     H'C2700000
    000001C0 40000000               .DATA.L     H'40000000
    000001C4 <00000000>             .DATA.L     L620
    000001C8 <00000000>             .DATA.L     __quick_evn_mvn
    000001CC <00000000>             .DATA.L     _nouveauSucces
    000001D0 <00000000>             .DATA.L     _RTC_getTicks
    000001D4 <00000000>             .DATA.L     _srand
    000001D8 <00000000>             .DATA.L     _initAll
    000001DC <00000000>             .DATA.L     __modls
    000001E0 <00000000>             .DATA.L     _genererJeton
    000001E4 40E00000               .DATA.L     H'40E00000
    000001E8 <00000000>             .DATA.L     _IsKeyDown
    000001EC              L863:                             
    000001EC D346                   MOV.L       L867+4,R3  ; _exitAnim
    000001EE 430B                   JSR         @R3
    000001F0 0009                   NOP
    000001F2 8801                   CMP/EQ      #1,R0
    000001F4 8B01                   BF          L868
    000001F6 A523                   BRA         L789
    000001F8 0009                   NOP
    000001FA              L868:                             
    000001FA              L787:                             
       Jetpack.c    53    
       Jetpack.c    54            ML_clear_vram();
    000001FA D244                   MOV.L       L867+8,R2  ; _ML_clear_vram
    000001FC 420B                   JSR         @R2
    000001FE 0009                   NOP
       Jetpack.c    55    
       Jetpack.c    56            //sequence dessin :D
       Jetpack.c    57    
       Jetpack.c    58            ML_bmp_or(fond,0,0,128,51); // dessin du fond
    00000200 9780                   MOV.W       L867,R7    ; H'0080
    00000202 E600                   MOV         #0,R6
    00000204 D442                   MOV.L       L867+12,R4 ; __$fond
    00000206 E333                   MOV         #51,R3
    00000208 D242                   MOV.L       L867+16,R2 ; _ML_bmp_or
    0000020A 2F36                   MOV.L       R3,@-R15
    0000020C 420B                   JSR         @R2
    0000020E 6563                   MOV         R6,R5
       Jetpack.c    59            ML_bmp_or(sol,0,52,128,12); // dessin du sol
    00000210 9778                   MOV.W       L867,R7    ; H'0080
    00000212 E634                   MOV         #52,R6
    00000214 D440                   MOV.L       L867+20,R4 ; __$sol
    00000216 E30C                   MOV         #12,R3
    00000218 D23E                   MOV.L       L867+16,R2 ; _ML_bmp_or
    0000021A 2F36                   MOV.L       R3,@-R15
    0000021C 420B                   JSR         @R2
    0000021E E500                   MOV         #0,R5
       Jetpack.c    60    
       Jetpack.c    61            ML_horizontal_scroll(-scrolling); // scrolling
    00000220 D33E                   MOV.L       L867+24,R3 ; __negs
    00000222 7F08                   ADD         #8,R15
    00000224 430B                   JSR         @R3
    00000226 50FF                   MOV.L       @(60,R15),R0
    00000228 D23D                   MOV.L       L867+28,R2 ; __stoi
    0000022A 420B                   JSR         @R2




SH SERIES C/C++ Compiler (Ver. 6.0C)                                                                 30-Jan-2015 21:53:33  PAGE    7


SCT OFFSET   CODE       C LABEL     INSTRUCTION OPERAND    COMMENT

    0000022C 0009                   NOP
    0000022E D33D                   MOV.L       L867+32,R3 ; _ML_horizontal_scroll
    00000230 430B                   JSR         @R3
    00000232 6403                   MOV         R0,R4
       Jetpack.c    62    
       Jetpack.c    63            if (deplacerPieces(x, vitesseDecalage, vehicule)) // si des pieces sont a l'ecran
    00000234 66F2                   MOV.L       @R15,R6
    00000236 65C3                   MOV         R12,R5
    00000238 D33B                   MOV.L       L867+36,R3 ; _deplacerPieces
    0000023A 430B                   JSR         @R3
    0000023C 54F2                   MOV.L       @(8,R15),R4
    0000023E 2008                   TST         R0,R0
    00000240 8909                   BT          L790
       Jetpack.c    64            {
       Jetpack.c    65                afficherPieces(); // on affiche les pieces restantes
    00000242 D33A                   MOV.L       L867+40,R3 ; _afficherPieces
    00000244 430B                   JSR         @R3
    00000246 0009                   NOP
       Jetpack.c    66                collisionPieces(x, y, &nbPieces, vehicule); // test des collisions
    00000248 67F2                   MOV.L       @R15,R7
    0000024A 66F3                   MOV         R15,R6
    0000024C 55F1                   MOV.L       @(4,R15),R5
    0000024E 7610                   ADD         #16,R6
    00000250 D337                   MOV.L       L867+44,R3 ; _collisionPieces
    00000252 430B                   JSR         @R3
    00000254 54F2                   MOV.L       @(8,R15),R4
    00000256              L790:                             
       Jetpack.c    67            }
       Jetpack.c    68            if (deplacerZappeurs(vitesseDecalage)) // si des zappeurs sont a l'ecran
    00000256 D237                   MOV.L       L867+48,R2 ; _deplacerZappeurs
    00000258 420B                   JSR         @R2
    0000025A 64C3                   MOV         R12,R4
    0000025C 2008                   TST         R0,R0
    0000025E 8921                   BT          L791
       Jetpack.c    69            {
       Jetpack.c    70                afficherZappeurs(lvl); // on affiche les zappeurs
    00000260 D22F                   MOV.L       L867+28,R2 ; __stoi
    00000262 420B                   JSR         @R2
    00000264 6083                   MOV         R8,R0
    00000266 D334                   MOV.L       L867+52,R3 ; _afficherZappeurs
    00000268 430B                   JSR         @R3
    0000026A 6403                   MOV         R0,R4
       Jetpack.c    71                if (collisionZappeurs(x,y,vehicule) && vehicule < 7 && vehicule != -1) collision(&vehicule, &c
                         +ollisionPhase, &tempsLasers, vehicDistance, &tempsBox); // test des collisions
    0000026C 66F2                   MOV.L       @R15,R6
    0000026E 55F1                   MOV.L       @(4,R15),R5
    00000270 D332                   MOV.L       L867+56,R3 ; _collisionZappeurs
    00000272 430B                   JSR         @R3
    00000274 54F2                   MOV.L       @(8,R15),R4
    00000276 2008                   TST         R0,R0
    00000278 8914                   BT          L791
    0000027A E307                   MOV         #7,R3
    0000027C 62F2                   MOV.L       @R15,R2
    0000027E 3233                   CMP/GE      R3,R2
    00000280 8910                   BT          L791
    00000282 60F2                   MOV.L       @R15,R0
    00000284 88FF                   CMP/EQ      #-1,R0




SH SERIES C/C++ Compiler (Ver. 6.0C)                                                                 30-Jan-2015 21:53:33  PAGE    8


SCT OFFSET   CODE       C LABEL     INSTRUCTION OPERAND    COMMENT

    00000286 890D                   BT          L791
    00000288 D22D                   MOV.L       L867+60,R2 ; _collision
    0000028A 63F3                   MOV         R15,R3
    0000028C 7318                   ADD         #24,R3
    0000028E 2F36                   MOV.L       R3,@-R15
    00000290 67F3                   MOV         R15,R7
    00000292 7764                   ADD         #100,R7
    00000294 66F3                   MOV         R15,R6
    00000296 7610                   ADD         #16,R6
    00000298 65F3                   MOV         R15,R5
    0000029A 7518                   ADD         #24,R5
    0000029C 64F3                   MOV         R15,R4
    0000029E 420B                   JSR         @R2
    000002A0 7404                   ADD         #4,R4
    000002A2 7F04                   ADD         #4,R15
    000002A4              L791:                             
       Jetpack.c    72            }
       Jetpack.c    73            if (activerLasers(&tempsLasers)) // si les lasers sont actives
    000002A4 D327                   MOV.L       L867+64,R3 ; _activerLasers
    000002A6 64F3                   MOV         R15,R4
    000002A8 430B                   JSR         @R3
    000002AA 740C                   ADD         #12,R4
    000002AC 2008                   TST         R0,R0
    000002AE 8920                   BT          L793
       Jetpack.c    74            {
       Jetpack.c    75                tempsLasers++;
    000002B0 53F3                   MOV.L       @(12,R15),R3
    000002B2 7301                   ADD         #1,R3
    000002B4 1F33                   MOV.L       R3,@(12,R15)
       Jetpack.c    76                afficherLasers(tempsLasers); // on affiche les lasers
    000002B6 D224                   MOV.L       L867+68,R2 ; _afficherLasers
    000002B8 420B                   JSR         @R2
    000002BA 6433                   MOV         R3,R4
       Jetpack.c    77                if (collisionLasers(x,vehicule) && vehicule < 7 && vehicule != -1) collision(&vehicule, &colli
                         +sionPhase, &tempsLasers, vehicDistance, &tempsBox); // test des collisions
    000002BC 65F2                   MOV.L       @R15,R5
    000002BE D323                   MOV.L       L867+72,R3 ; _collisionLasers
    000002C0 430B                   JSR         @R3
    000002C2 54F2                   MOV.L       @(8,R15),R4
    000002C4 2008                   TST         R0,R0
    000002C6 8914                   BT          L793
    000002C8 62F2                   MOV.L       @R15,R2
    000002CA E307                   MOV         #7,R3
    000002CC 3233                   CMP/GE      R3,R2
    000002CE 8910                   BT          L793
    000002D0 60F2                   MOV.L       @R15,R0
    000002D2 88FF                   CMP/EQ      #-1,R0
    000002D4 890D                   BT          L793
    000002D6 63F3                   MOV         R15,R3
    000002D8 D219                   MOV.L       L867+60,R2 ; _collision
    000002DA 7318                   ADD         #24,R3
    000002DC 2F36                   MOV.L       R3,@-R15
    000002DE 67F3                   MOV         R15,R7
    000002E0 7764                   ADD         #100,R7
    000002E2 66F3                   MOV         R15,R6
    000002E4 7610                   ADD         #16,R6
    000002E6 65F3                   MOV         R15,R5




SH SERIES C/C++ Compiler (Ver. 6.0C)                                                                 30-Jan-2015 21:53:33  PAGE    9


SCT OFFSET   CODE       C LABEL     INSTRUCTION OPERAND    COMMENT

    000002E8 7518                   ADD         #24,R5
    000002EA 64F3                   MOV         R15,R4
    000002EC 420B                   JSR         @R2
    000002EE 7404                   ADD         #4,R4
    000002F0 7F04                   ADD         #4,R15
    000002F2              L793:                             
       Jetpack.c    78            }
       Jetpack.c    79            if (deplacerBox(vitesseDecalage, &isBox)) // si la boite est a l'ecran
    000002F2 65F3                   MOV         R15,R5
    000002F4 D316                   MOV.L       L867+76,R3 ; _deplacerBox
    000002F6 752C                   ADD         #44,R5
    000002F8 430B                   JSR         @R3
    000002FA 64C3                   MOV         R12,R4
    000002FC 2008                   TST         R0,R0
    000002FE 895F                   BT          L795
       Jetpack.c    80            {
       Jetpack.c    81                afficherBox(); // on l'affiche
    00000300 A028                   BRA         L864
    00000302 0009                   NOP
    00000304              L867:                             
    00000304 0080                   .DATA.W     H'0080
    00000306 0000                   .DATA.W     0
    00000308 <00000000>             .DATA.L     _exitAnim
    0000030C <00000000>             .DATA.L     _ML_clear_vram
    00000310 <00000000>             .DATA.L     __$fond
    00000314 <00000000>             .DATA.L     _ML_bmp_or
    00000318 <00000000>             .DATA.L     __$sol
    0000031C <00000000>             .DATA.L     __negs
    00000320 <00000000>             .DATA.L     __stoi
    00000324 <00000000>             .DATA.L     _ML_horizontal_scroll
    00000328 <00000000>             .DATA.L     _deplacerPieces
    0000032C <00000000>             .DATA.L     _afficherPieces
    00000330 <00000000>             .DATA.L     _collisionPieces
    00000334 <00000000>             .DATA.L     _deplacerZappeurs
    00000338 <00000000>             .DATA.L     _afficherZappeurs
    0000033C <00000000>             .DATA.L     _collisionZappeurs
    00000340 <00000000>             .DATA.L     _collision
    00000344 <00000000>             .DATA.L     _activerLasers
    00000348 <00000000>             .DATA.L     _afficherLasers
    0000034C <00000000>             .DATA.L     _collisionLasers
    00000350 <00000000>             .DATA.L     _deplacerBox
    00000354              L864:                             
    00000354 D389                   MOV.L       L869+2,R3  ; _afficherBox
    00000356 430B                   JSR         @R3
    00000358 0009                   NOP
       Jetpack.c    82                if (collisionBox(x) && vehicule == 0)// test des collisions
    0000035A D389                   MOV.L       L869+6,R3  ; _collisionBox
    0000035C 430B                   JSR         @R3
    0000035E 54F2                   MOV.L       @(8,R15),R4
    00000360 2008                   TST         R0,R0
    00000362 892D                   BT          L795
    00000364 63F2                   MOV.L       @R15,R3
    00000366 2338                   TST         R3,R3
    00000368 8B2A                   BF          L795
       Jetpack.c    83                {
       Jetpack.c    84                    sauvegarde->statTotal[4] += 1;
    0000036A E048                   MOV         #72,R0




SH SERIES C/C++ Compiler (Ver. 6.0C)                                                                 30-Jan-2015 21:53:33  PAGE   10


SCT OFFSET   CODE       C LABEL     INSTRUCTION OPERAND    COMMENT

    0000036C 63E2                   MOV.L       @R14,R3
    0000036E 023E                   MOV.L       @(R0,R3),R2
    00000370 7201                   ADD         #1,R2
       Jetpack.c    85                    vehicule = rand()%6+1; // on change de vehicule
    00000372 490B                   JSR         @R9
    00000374 0326                   MOV.L       R2,@(R0,R3)
    00000376 6103                   MOV         R0,R1
    00000378 D382                   MOV.L       L869+10,R3 ; __modls
    0000037A 430B                   JSR         @R3
    0000037C E006                   MOV         #6,R0
    0000037E 7001                   ADD         #1,R0
       Jetpack.c    86                    if (vehicule == 4 && sauvegarde->succes[15] != -1) sauvegarde->succes[15] += 1;
    00000380 8804                   CMP/EQ      #4,R0
    00000382 8F0B                   BF/S        L797
    00000384 2F02                   MOV.L       R0,@R15
    00000386 E16F                   MOV         #111,R1
    00000388 D37F                   MOV.L       L869+14,R3 ; _sauvegarde
    0000038A 6032                   MOV.L       @R3,R0
    0000038C 001C                   MOV.B       @(R0,R1),R0
    0000038E 88FF                   CMP/EQ      #-1,R0
    00000390 8904                   BT          L797
    00000392 E06F                   MOV         #111,R0
    00000394 62E2                   MOV.L       @R14,R2
    00000396 032C                   MOV.B       @(R0,R2),R3
    00000398 7301                   ADD         #1,R3
    0000039A 0234                   MOV.B       R3,@(R0,R2)
    0000039C              L797:                             
       Jetpack.c    87                    initValues();
    0000039C D27B                   MOV.L       L869+18,R2 ; _initValues
    0000039E 420B                   JSR         @R2
    000003A0 0009                   NOP
       Jetpack.c    88                    reinitElements(&tempsLasers);
    000003A2 64F3                   MOV         R15,R4
    000003A4 D37A                   MOV.L       L869+22,R3 ; _reinitElements
    000003A6 430B                   JSR         @R3
    000003A8 740C                   ADD         #12,R4
       Jetpack.c    89                    isBox = 0;
       Jetpack.c    90                    lasers = 0;
    000003AA E040                   MOV         #64,R0
    000003AC 1FDB                   MOV.L       R13,@(44,R15)
       Jetpack.c    91                    vehicDistance[vehicule-1] = 0;
    000003AE 62F3                   MOV         R15,R2
    000003B0 0FD6                   MOV.L       R13,@(R0,R15)
    000003B2 E100                   MOV         #0,R1
    000003B4 63F2                   MOV.L       @R15,R3
    000003B6 7260                   ADD         #96,R2
    000003B8 73FF                   ADD         #-1,R3
    000003BA 4308                   SHLL2       R3
    000003BC 332C                   ADD         R2,R3
    000003BE 2312                   MOV.L       R1,@R3
    000003C0              L795:                             
       Jetpack.c    92                }
       Jetpack.c    93            }
       Jetpack.c    94            if (deplacerJeton(x, &isJeton))
    000003C0 D374                   MOV.L       L869+26,R3 ; _deplacerJeton
    000003C2 65F3                   MOV         R15,R5
    000003C4 751C                   ADD         #28,R5




SH SERIES C/C++ Compiler (Ver. 6.0C)                                                                 30-Jan-2015 21:53:33  PAGE   11


SCT OFFSET   CODE       C LABEL     INSTRUCTION OPERAND    COMMENT

    000003C6 430B                   JSR         @R3
    000003C8 54F2                   MOV.L       @(8,R15),R4
    000003CA 2008                   TST         R0,R0
    000003CC 890F                   BT          L798
       Jetpack.c    95            {
       Jetpack.c    96                if (collisionJeton(x,y,vehicule,&totalJetons))
    000003CE 67F3                   MOV         R15,R7
    000003D0 66F2                   MOV.L       @R15,R6
    000003D2 7724                   ADD         #36,R7
    000003D4 55F1                   MOV.L       @(4,R15),R5
    000003D6 D370                   MOV.L       L869+30,R3 ; _collisionJeton
    000003D8 430B                   JSR         @R3
    000003DA 54F2                   MOV.L       @(8,R15),R4
    000003DC 2008                   TST         R0,R0
    000003DE 8903                   BT          L799
       Jetpack.c    97                    nbJetons++, isJeton = 0;
    000003E0 53FA                   MOV.L       @(40,R15),R3
    000003E2 7301                   ADD         #1,R3
    000003E4 1F3A                   MOV.L       R3,@(40,R15)
    000003E6 1FD7                   MOV.L       R13,@(28,R15)
    000003E8              L799:                             
       Jetpack.c    98                afficherJeton(nbJetons);
    000003E8 D36C                   MOV.L       L869+34,R3 ; _afficherJeton
    000003EA 430B                   JSR         @R3
    000003EC 54FA                   MOV.L       @(40,R15),R4
    000003EE              L798:                             
       Jetpack.c    99            }
       Jetpack.c   100            if (deplacerMissiles(x)) // si des missiles sont a l'ecran
    000003EE D36C                   MOV.L       L869+38,R3 ; _deplacerMissiles
    000003F0 430B                   JSR         @R3
    000003F2 54F2                   MOV.L       @(8,R15),R4
    000003F4 2008                   TST         R0,R0
    000003F6 8921                   BT          L800
       Jetpack.c   101            {
       Jetpack.c   102                afficherMissiles(lvl); // on les affiche
    000003F8 D36A                   MOV.L       L869+42,R3 ; __stoi
    000003FA 430B                   JSR         @R3
    000003FC 6083                   MOV         R8,R0
    000003FE D26A                   MOV.L       L869+46,R2 ; _afficherMissiles
    00000400 420B                   JSR         @R2
    00000402 6403                   MOV         R0,R4
       Jetpack.c   103                if (collisionMissiles(x,y,vehicule) && vehicule < 7 && vehicule != -1) collision(&vehicule, &c
                         +ollisionPhase, &tempsLasers, vehicDistance, &tempsBox); // test des collisions
    00000404 66F2                   MOV.L       @R15,R6
    00000406 55F1                   MOV.L       @(4,R15),R5
    00000408 D368                   MOV.L       L869+50,R3 ; _collisionMissiles
    0000040A 430B                   JSR         @R3
    0000040C 54F2                   MOV.L       @(8,R15),R4
    0000040E 2008                   TST         R0,R0
    00000410 8914                   BT          L800
    00000412 E307                   MOV         #7,R3
    00000414 62F2                   MOV.L       @R15,R2
    00000416 3233                   CMP/GE      R3,R2
    00000418 8910                   BT          L800
    0000041A 60F2                   MOV.L       @R15,R0
    0000041C 88FF                   CMP/EQ      #-1,R0
    0000041E 890D                   BT          L800




SH SERIES C/C++ Compiler (Ver. 6.0C)                                                                 30-Jan-2015 21:53:33  PAGE   12


SCT OFFSET   CODE       C LABEL     INSTRUCTION OPERAND    COMMENT

    00000420 D263                   MOV.L       L869+54,R2 ; _collision
    00000422 63F3                   MOV         R15,R3
    00000424 7318                   ADD         #24,R3
    00000426 2F36                   MOV.L       R3,@-R15
    00000428 67F3                   MOV         R15,R7
    0000042A 7764                   ADD         #100,R7
    0000042C 66F3                   MOV         R15,R6
    0000042E 7610                   ADD         #16,R6
    00000430 65F3                   MOV         R15,R5
    00000432 7518                   ADD         #24,R5
    00000434 64F3                   MOV         R15,R4
    00000436 420B                   JSR         @R2
    00000438 7404                   ADD         #4,R4
    0000043A 7F04                   ADD         #4,R15
    0000043C              L800:                             
       Jetpack.c   104            }
       Jetpack.c   105    
       Jetpack.c   106            dsInfo((int)(lvl), nbPieces); // affichage de la distance et de l'argent
    0000043C 55F4                   MOV.L       @(16,R15),R5
    0000043E D359                   MOV.L       L869+42,R3 ; __stoi
    00000440 430B                   JSR         @R3
    00000442 6083                   MOV         R8,R0
    00000444 D35B                   MOV.L       L869+58,R3 ; _dsInfo
    00000446 61F3                   MOV         R15,R1
    00000448 7150                   ADD         #80,R1
    0000044A 2102                   MOV.L       R0,@R1
    0000044C 430B                   JSR         @R3
    0000044E 6403                   MOV         R0,R4
       Jetpack.c   107    
       Jetpack.c   108            afficherVehicule(y,x,lvl,vehicule); // on affiche le vehicule actuel
    00000450 67F2                   MOV.L       @R15,R7
    00000452 E050                   MOV         #80,R0
    00000454 55F2                   MOV.L       @(8,R15),R5
    00000456 06FE                   MOV.L       @(R0,R15),R6
    00000458 D357                   MOV.L       L869+62,R3 ; _afficherVehicule
    0000045A 430B                   JSR         @R3
    0000045C 54F1                   MOV.L       @(4,R15),R4
       Jetpack.c   109    
       Jetpack.c   110            if (collisionPhase) collisionAnim(&collisionPhase); // animation de collision eventuelle
    0000045E 52F5                   MOV.L       @(20,R15),R2
    00000460 2228                   TST         R2,R2
    00000462 8903                   BT          L802
    00000464 D355                   MOV.L       L869+66,R3 ; _collisionAnim
    00000466 64F3                   MOV         R15,R4
    00000468 430B                   JSR         @R3
    0000046A 7414                   ADD         #20,R4
    0000046C              L802:                             
       Jetpack.c   111    
       Jetpack.c   112            ML_display_vram(); // on affiche tout le resultat
    0000046C D254                   MOV.L       L869+70,R2 ; _ML_display_vram
    0000046E 420B                   JSR         @R2
    00000470 0009                   NOP
       Jetpack.c   113    
       Jetpack.c   114            setFPS(2); // 42 fps
    00000472 D354                   MOV.L       L869+74,R3 ; _setFPS
    00000474 430B                   JSR         @R3
    00000476 E402                   MOV         #2,R4




SH SERIES C/C++ Compiler (Ver. 6.0C)                                                                 30-Jan-2015 21:53:33  PAGE   13


SCT OFFSET   CODE       C LABEL     INSTRUCTION OPERAND    COMMENT

       Jetpack.c   115    
       Jetpack.c   116            if (rand()%((int)(sleep*0.7)) == 1 && decalageElements >= 0 && tempsLasers <= 0 && lasers == 0 && 
                         +vehicule == 0 && isBox == 0 && tempsBox == 0) // generation de la mystery box
    00000478 490B                   JSR         @R9
    0000047A 0009                   NOP
    0000047C 2F06                   MOV.L       R0,@-R15
    0000047E 7FF8                   ADD         #-8,R15
    00000480 D251                   MOV.L       L869+78,R2 ; __itod
    00000482 50FB                   MOV.L       @(44,R15),R0
    00000484 7FF8                   ADD         #-8,R15
    00000486 420B                   JSR         @R2
    00000488 2FF6                   MOV.L       R15,@-R15
    0000048A D350                   MOV.L       L869+82,R3 ; H'66666666
    0000048C D151                   MOV.L       L869+90,R1 ; __muld
    0000048E 2F36                   MOV.L       R3,@-R15
    00000490 D34F                   MOV.L       L869+86,R3 ; H'3FE66666
    00000492 2F36                   MOV.L       R3,@-R15
    00000494 62F3                   MOV         R15,R2
    00000496 7210                   ADD         #16,R2
    00000498 410B                   JSR         @R1
    0000049A 2F26                   MOV.L       R2,@-R15
    0000049C D34E                   MOV.L       L869+94,R3 ; __dtoi
    0000049E 430B                   JSR         @R3
    000004A0 0009                   NOP
    000004A2 D238                   MOV.L       L869+10,R2 ; __modls
    000004A4 420B                   JSR         @R2
    000004A6 61F6                   MOV.L       @R15+,R1
    000004A8 8801                   CMP/EQ      #1,R0
    000004AA 8B1A                   BF          L803
    000004AC 51FD                   MOV.L       @(52,R15),R1
    000004AE D24B                   MOV.L       L869+98,R2 ; __ges
    000004B0 420B                   JSR         @R2
    000004B2 E000                   MOV         #0,R0
    000004B4 8800                   CMP/EQ      #0,R0
    000004B6 8914                   BT          L803
    000004B8 53F3                   MOV.L       @(12,R15),R3
    000004BA 4315                   CMP/PL      R3
    000004BC 8911                   BT          L803
    000004BE E040                   MOV         #64,R0
    000004C0 01FE                   MOV.L       @(R0,R15),R1
    000004C2 2118                   TST         R1,R1
    000004C4 8B0D                   BF          L803
    000004C6 62F2                   MOV.L       @R15,R2
    000004C8 2228                   TST         R2,R2
    000004CA 8B0A                   BF          L803
    000004CC 52FB                   MOV.L       @(44,R15),R2
    000004CE 2228                   TST         R2,R2
    000004D0 8B07                   BF          L803
    000004D2 52F6                   MOV.L       @(24,R15),R2
    000004D4 2228                   TST         R2,R2
    000004D6 8B04                   BF          L803
       Jetpack.c   117            {
       Jetpack.c   118                decalageElements = -32;
    000004D8 D241                   MOV.L       L869+102,R2; H'C2000000
       Jetpack.c   119                genererBox();
    000004DA D342                   MOV.L       L869+106,R3; _genererBox
    000004DC 430B                   JSR         @R3




SH SERIES C/C++ Compiler (Ver. 6.0C)                                                                 30-Jan-2015 21:53:33  PAGE   14


SCT OFFSET   CODE       C LABEL     INSTRUCTION OPERAND    COMMENT

    000004DE 1F2D                   MOV.L       R2,@(52,R15)
       Jetpack.c   120                isBox = 1;
    000004E0 1FBB                   MOV.L       R11,@(44,R15)
    000004E2              L803:                             
       Jetpack.c   121            }
       Jetpack.c   122    
       Jetpack.c   123            if (decalageElements >= 0 && tempsLasers <= 0 && lasers == 0) // generation des 2 paternes importa
                         +nts : zappeurs et pieces
    000004E2 51FD                   MOV.L       @(52,R15),R1
    000004E4 D33D                   MOV.L       L869+98,R3 ; __ges
    000004E6 430B                   JSR         @R3
    000004E8 E000                   MOV         #0,R0
    000004EA 8800                   CMP/EQ      #0,R0
    000004EC 8B01                   BF          L870
    000004EE A092                   BRA         L804
    000004F0 0009                   NOP
    000004F2              L870:                             
    000004F2 52F3                   MOV.L       @(12,R15),R2
    000004F4 4215                   CMP/PL      R2
    000004F6 8B01                   BF          L871
    000004F8 A08D                   BRA         L804
    000004FA 0009                   NOP
    000004FC              L871:                             
    000004FC E040                   MOV         #64,R0
    000004FE 01FE                   MOV.L       @(R0,R15),R1
    00000500 2118                   TST         R1,R1
    00000502 8901                   BT          L872
    00000504 A087                   BRA         L804
    00000506 0009                   NOP
    00000508              L872:                             
       Jetpack.c   124            {
       Jetpack.c   125                if(rand()%(vehicule==0?4:2) == 1 && tempsPieces <= 0)
    00000508 490B                   JSR         @R9
    0000050A 0009                   NOP
    0000050C 2F06                   MOV.L       R0,@-R15
    0000050E 51F1                   MOV.L       @(4,R15),R1
    00000510 2118                   TST         R1,R1
    00000512 8B01                   BF          L806
    00000514 A001                   BRA         L807
    00000516 E304                   MOV         #4,R3
    00000518              L806:                             
    00000518 E302                   MOV         #2,R3
    0000051A              L807:                             
    0000051A 6033                   MOV         R3,R0
    0000051C D319                   MOV.L       L869+10,R3 ; __modls
    0000051E 430B                   JSR         @R3
    00000520 61F6                   MOV.L       @R15+,R1
    00000522 8801                   CMP/EQ      #1,R0
    00000524 8B15                   BF          L805
    00000526 E044                   MOV         #68,R0
    00000528 03FE                   MOV.L       @(R0,R15),R3
    0000052A 4315                   CMP/PL      R3
    0000052C 8911                   BT          L805
       Jetpack.c   126                {
       Jetpack.c   127                    decalageElements = -genererPieces();
    0000052E D12E                   MOV.L       L869+110,R1; _genererPieces
    00000530 410B                   JSR         @R1




SH SERIES C/C++ Compiler (Ver. 6.0C)                                                                 30-Jan-2015 21:53:33  PAGE   15


SCT OFFSET   CODE       C LABEL     INSTRUCTION OPERAND    COMMENT

    00000532 0009                   NOP
    00000534 D32D                   MOV.L       L869+114,R3; __itos
    00000536 430B                   JSR         @R3
    00000538 600B                   NEG         R0,R0
    0000053A 1F0D                   MOV.L       R0,@(52,R15)
       Jetpack.c   128                    tempsPieces = -decalageElements + 128;
    0000053C D12C                   MOV.L       L869+118,R1; H'43000000
    0000053E D32D                   MOV.L       L869+122,R3; __subs
    00000540 430B                   JSR         @R3
    00000542 0009                   NOP
    00000544 D217                   MOV.L       L869+42,R2 ; __stoi
    00000546 420B                   JSR         @R2
    00000548 0009                   NOP
    0000054A 61F3                   MOV         R15,R1
    0000054C 7144                   ADD         #68,R1
    0000054E A062                   BRA         L804
    00000550 2102                   MOV.L       R0,@R1
    00000552              L805:                             
       Jetpack.c   129                }
       Jetpack.c   130                else decalageElements = -genererZappeurs(vehicule) - 60 + (lvl<10000?lvl/400:20);
    00000552 D329                   MOV.L       L869+126,R3; _genererZappeurs
    00000554 430B                   JSR         @R3
    00000556 64F2                   MOV.L       @R15,R4
    00000558 D224                   MOV.L       L869+114,R2; __itos
    0000055A 600B                   NEG         R0,R0
    0000055C 420B                   JSR         @R2
    0000055E 70C4                   ADD         #-60,R0
    00000560 2F06                   MOV.L       R0,@-R15
    00000562 D026                   MOV.L       L869+130,R0; H'461C4000
    00000564 D326                   MOV.L       L869+134,R3; __lts
    00000566 430B                   JSR         @R3
    00000568 6183                   MOV         R8,R1
    0000056A 8800                   CMP/EQ      #0,R0
    0000056C 894E                   BT          L809
    0000056E D025                   MOV.L       L869+138,R0; H'43C80000
    00000570 D225                   MOV.L       L869+142,R2; __divs
    00000572 420B                   JSR         @R2
    00000574 6183                   MOV         R8,R1
    00000576 A04A                   BRA         L810
    00000578 6103                   MOV         R0,R1
    0000057A              L869:                             
    0000057A 0000                   .DATA.W     0
    0000057C <00000000>             .DATA.L     _afficherBox
    00000580 <00000000>             .DATA.L     _collisionBox
    00000584 <00000000>             .DATA.L     __modls
    00000588 <00000000>             .DATA.L     _sauvegarde
    0000058C <00000000>             .DATA.L     _initValues
    00000590 <00000000>             .DATA.L     _reinitElements
    00000594 <00000000>             .DATA.L     _deplacerJeton
    00000598 <00000000>             .DATA.L     _collisionJeton
    0000059C <00000000>             .DATA.L     _afficherJeton
    000005A0 <00000000>             .DATA.L     _deplacerMissiles
    000005A4 <00000000>             .DATA.L     __stoi
    000005A8 <00000000>             .DATA.L     _afficherMissiles
    000005AC <00000000>             .DATA.L     _collisionMissiles
    000005B0 <00000000>             .DATA.L     _collision
    000005B4 <00000000>             .DATA.L     _dsInfo




SH SERIES C/C++ Compiler (Ver. 6.0C)                                                                 30-Jan-2015 21:53:33  PAGE   16


SCT OFFSET   CODE       C LABEL     INSTRUCTION OPERAND    COMMENT

    000005B8 <00000000>             .DATA.L     _afficherVehicule
    000005BC <00000000>             .DATA.L     _collisionAnim
    000005C0 <00000000>             .DATA.L     _ML_display_vram
    000005C4 <00000000>             .DATA.L     _setFPS
    000005C8 <00000000>             .DATA.L     __itod
    000005CC 66666666               .DATA.L     H'66666666
    000005D0 3FE66666               .DATA.L     H'3FE66666
    000005D4 <00000000>             .DATA.L     __muld
    000005D8 <00000000>             .DATA.L     __dtoi
    000005DC <00000000>             .DATA.L     __ges
    000005E0 C2000000               .DATA.L     H'C2000000
    000005E4 <00000000>             .DATA.L     _genererBox
    000005E8 <00000000>             .DATA.L     _genererPieces
    000005EC <00000000>             .DATA.L     __itos
    000005F0 43000000               .DATA.L     H'43000000
    000005F4 <00000000>             .DATA.L     __subs
    000005F8 <00000000>             .DATA.L     _genererZappeurs
    000005FC 461C4000               .DATA.L     H'461C4000
    00000600 <00000000>             .DATA.L     __lts
    00000604 43C80000               .DATA.L     H'43C80000
    00000608 <00000000>             .DATA.L     __divs
    0000060C              L809:                             
    0000060C D174                   MOV.L       L873,R1    ; H'41A00000
    0000060E              L810:                             
    0000060E D275                   MOV.L       L873+4,R2  ; __adds
    00000610 420B                   JSR         @R2
    00000612 60F6                   MOV.L       @R15+,R0
    00000614 1F0D                   MOV.L       R0,@(52,R15)
    00000616              L804:                             
       Jetpack.c   131            }
       Jetpack.c   132    
       Jetpack.c   133            if (rand()%(sleep*8) == 1 && tempsMissiles > 10 && tempsLasers <= 0 && lasers == 0 && vehicule < 7
                         + && vehicule != -1) // generation aleatoire des missiles
    00000616 490B                   JSR         @R9
    00000618 0009                   NOP
    0000061A 6103                   MOV         R0,R1
    0000061C D372                   MOV.L       L873+8,R3  ; __modls
    0000061E 52F8                   MOV.L       @(32,R15),R2
    00000620 4208                   SHLL2       R2
    00000622 4200                   SHLL        R2
    00000624 430B                   JSR         @R3
    00000626 6023                   MOV         R2,R0
    00000628 8801                   CMP/EQ      #1,R0
    0000062A 8B17                   BF          L811
    0000062C E30A                   MOV         #10,R3
    0000062E E04C                   MOV         #76,R0
    00000630 02FE                   MOV.L       @(R0,R15),R2
    00000632 3237                   CMP/GT      R3,R2
    00000634 8B12                   BF          L811
    00000636 52F3                   MOV.L       @(12,R15),R2
    00000638 4215                   CMP/PL      R2
    0000063A 890F                   BT          L811
    0000063C E040                   MOV         #64,R0
    0000063E 02FE                   MOV.L       @(R0,R15),R2
    00000640 2228                   TST         R2,R2
    00000642 8B0B                   BF          L811
    00000644 62F2                   MOV.L       @R15,R2




SH SERIES C/C++ Compiler (Ver. 6.0C)                                                                 30-Jan-2015 21:53:33  PAGE   17


SCT OFFSET   CODE       C LABEL     INSTRUCTION OPERAND    COMMENT

    00000646 E107                   MOV         #7,R1
    00000648 3213                   CMP/GE      R1,R2
    0000064A 8907                   BT          L811
    0000064C 60F2                   MOV.L       @R15,R0
    0000064E 88FF                   CMP/EQ      #-1,R0
    00000650 8904                   BT          L811
       Jetpack.c   134            {
       Jetpack.c   135                genererMissiles(x);
    00000652 D366                   MOV.L       L873+12,R3 ; _genererMissiles
    00000654 430B                   JSR         @R3
    00000656 54F2                   MOV.L       @(8,R15),R4
       Jetpack.c   136                tempsMissiles = 0;
    00000658 E04C                   MOV         #76,R0
    0000065A 0FD6                   MOV.L       R13,@(R0,R15)
    0000065C              L811:                             
       Jetpack.c   137            }
       Jetpack.c   138    
       Jetpack.c   139            if (rand()%(sleep*40) == 1 && tempsLasers <= 0 && vehicule == 0) // generation aleatoire des laser
                         +s
    0000065C 490B                   JSR         @R9
    0000065E 0009                   NOP
    00000660 53F8                   MOV.L       @(32,R15),R3
    00000662 6103                   MOV         R0,R1
    00000664 6233                   MOV         R3,R2
    00000666 4308                   SHLL2       R3
    00000668 332C                   ADD         R2,R3
    0000066A 4308                   SHLL2       R3
    0000066C 4300                   SHLL        R3
    0000066E 6033                   MOV         R3,R0
    00000670 D35D                   MOV.L       L873+8,R3  ; __modls
    00000672 430B                   JSR         @R3
    00000674 0009                   NOP
    00000676 8801                   CMP/EQ      #1,R0
    00000678 8B07                   BF          L812
    0000067A 53F3                   MOV.L       @(12,R15),R3
    0000067C 4315                   CMP/PL      R3
    0000067E 8904                   BT          L812
    00000680 61F2                   MOV.L       @R15,R1
    00000682 2118                   TST         R1,R1
    00000684 8B01                   BF          L812
       Jetpack.c   140                lasers = 1;
    00000686 E040                   MOV         #64,R0
    00000688 0FB6                   MOV.L       R11,@(R0,R15)
    0000068A              L812:                             
       Jetpack.c   141    
       Jetpack.c   142            if (lasers == 1 && decalageElements >= 120) // les lasers doivent etre seuls a l'ecran
    0000068A E040                   MOV         #64,R0
    0000068C 00FE                   MOV.L       @(R0,R15),R0
    0000068E 8801                   CMP/EQ      #1,R0
    00000690 8B0B                   BF          L813
    00000692 51FD                   MOV.L       @(52,R15),R1
    00000694 D056                   MOV.L       L873+16,R0 ; H'42F00000
    00000696 D257                   MOV.L       L873+20,R2 ; __ges
    00000698 420B                   JSR         @R2
    0000069A 0009                   NOP
    0000069C 8800                   CMP/EQ      #0,R0
    0000069E 8904                   BT          L813




SH SERIES C/C++ Compiler (Ver. 6.0C)                                                                 30-Jan-2015 21:53:33  PAGE   18


SCT OFFSET   CODE       C LABEL     INSTRUCTION OPERAND    COMMENT

       Jetpack.c   143            {
       Jetpack.c   144                genererLasers(niveau);
    000006A0 D355                   MOV.L       L873+24,R3 ; _genererLasers
    000006A2 430B                   JSR         @R3
    000006A4 54FE                   MOV.L       @(56,R15),R4
       Jetpack.c   145                lasers = 0;
    000006A6 E040                   MOV         #64,R0
    000006A8 0FD6                   MOV.L       R13,@(R0,R15)
    000006AA              L813:                             
       Jetpack.c   146            }
       Jetpack.c   147    
       Jetpack.c   148            if (rand()%(sleep*30)==1 && isJeton == 0)
    000006AA 490B                   JSR         @R9
    000006AC 0009                   NOP
    000006AE E31E                   MOV         #30,R3
    000006B0 52F8                   MOV.L       @(32,R15),R2
    000006B2 6103                   MOV         R0,R1
    000006B4 0237                   MUL.L       R3,R2
    000006B6 031A                   STS         MACL,R3
    000006B8 6033                   MOV         R3,R0
    000006BA D34B                   MOV.L       L873+8,R3  ; __modls
    000006BC 430B                   JSR         @R3
    000006BE 0009                   NOP
    000006C0 8801                   CMP/EQ      #1,R0
    000006C2 8B06                   BF          L814
    000006C4 53F7                   MOV.L       @(28,R15),R3
    000006C6 2338                   TST         R3,R3
    000006C8 8B03                   BF          L814
       Jetpack.c   149                genererJeton(0), isJeton = 1;
    000006CA D34C                   MOV.L       L873+28,R3 ; _genererJeton
    000006CC 430B                   JSR         @R3
    000006CE E400                   MOV         #0,R4
    000006D0 1FB7                   MOV.L       R11,@(28,R15)
    000006D2              L814:                             
       Jetpack.c   150    
       Jetpack.c   151            changerHitbox(choixHitbox(y,vehicule)); // on gere la hitbox du vehicule
    000006D2 65F2                   MOV.L       @R15,R5
    000006D4 D34A                   MOV.L       L873+32,R3 ; _choixHitbox
    000006D6 430B                   JSR         @R3
    000006D8 54F1                   MOV.L       @(4,R15),R4
    000006DA D24A                   MOV.L       L873+36,R2 ; _changerHitbox
    000006DC 420B                   JSR         @R2
    000006DE 6403                   MOV         R0,R4
       Jetpack.c   152    
       Jetpack.c   153            isDead = deplacerVehicule(&y,&x,40,lvl,vehicule); // on gere le deplacement du vehicule actuel
    000006E0 63F2                   MOV.L       @R15,R3
    000006E2 2F36                   MOV.L       R3,@-R15
    000006E4 D248                   MOV.L       L873+40,R2 ; __stoi
    000006E6 420B                   JSR         @R2
    000006E8 6083                   MOV         R8,R0
    000006EA 6703                   MOV         R0,R7
    000006EC D347                   MOV.L       L873+44,R3 ; _deplacerVehicule
    000006EE E628                   MOV         #40,R6
    000006F0 65F3                   MOV         R15,R5
    000006F2 750C                   ADD         #12,R5
    000006F4 64F3                   MOV         R15,R4
    000006F6 430B                   JSR         @R3




SH SERIES C/C++ Compiler (Ver. 6.0C)                                                                 30-Jan-2015 21:53:33  PAGE   19


SCT OFFSET   CODE       C LABEL     INSTRUCTION OPERAND    COMMENT

    000006F8 7408                   ADD         #8,R4
    000006FA 7F04                   ADD         #4,R15
       Jetpack.c   154    
       Jetpack.c   155            if (isDead) // si on est mort
    000006FC 2008                   TST         R0,R0
    000006FE 8D4E                   BT/S        L815
    00000700 1F0E                   MOV.L       R0,@(56,R15)
       Jetpack.c   156            {
       Jetpack.c   157                if (saveGadgetsUsed == 0 && (sauvegarde->gadgetEquipe[0] == 2 ||sauvegarde->gadgetEquipe[1] ==
                         + 2)) vehicule = 7;
    00000702 52FC                   MOV.L       @(48,R15),R2
    00000704 2228                   TST         R2,R2
    00000706 8B0D                   BF          L816
    00000708 D341                   MOV.L       L873+48,R3 ; _sauvegarde
    0000070A 6032                   MOV.L       @R3,R0
    0000070C 840C                   MOV.B       @(12,R0),R0
    0000070E 600C                   EXTU.B      R0,R0
    00000710 8802                   CMP/EQ      #2,R0
    00000712 8904                   BT          L817
    00000714 6032                   MOV.L       @R3,R0
    00000716 840D                   MOV.B       @(13,R0),R0
    00000718 600C                   EXTU.B      R0,R0
    0000071A 8802                   CMP/EQ      #2,R0
    0000071C 8B02                   BF          L816
    0000071E              L817:                             
    0000071E E407                   MOV         #7,R4
    00000720 A013                   BRA         L818
    00000722 2F42                   MOV.L       R4,@R15
    00000724              L816:                             
       Jetpack.c   158                else if (saveGadgetsUsed < 2 && (sauvegarde->gadgetEquipe[0] == 6 || sauvegarde->gadgetEquipe[
                         +1] == 6)) vehicule = 8;
    00000724 53FC                   MOV.L       @(48,R15),R3
    00000726 E202                   MOV         #2,R2
    00000728 3323                   CMP/GE      R2,R3
    0000072A 890C                   BT          L819
    0000072C D138                   MOV.L       L873+48,R1 ; _sauvegarde
    0000072E 6012                   MOV.L       @R1,R0
    00000730 840C                   MOV.B       @(12,R0),R0
    00000732 600C                   EXTU.B      R0,R0
    00000734 8806                   CMP/EQ      #6,R0
    00000736 8904                   BT          L820
    00000738 6012                   MOV.L       @R1,R0
    0000073A 840D                   MOV.B       @(13,R0),R0
    0000073C 600C                   EXTU.B      R0,R0
    0000073E 8806                   CMP/EQ      #6,R0
    00000740 8B01                   BF          L819
    00000742              L820:                             
    00000742 A002                   BRA         L818
    00000744 2FA2                   MOV.L       R10,@R15
    00000746              L819:                             
       Jetpack.c   159                else vehicule = 9;
    00000746 E209                   MOV         #9,R2
    00000748 2F22                   MOV.L       R2,@R15
    0000074A              L818:                             
       Jetpack.c   160    
       Jetpack.c   161                if (saveGadgetsUsed == 0 || saveGadgetsUsed == 2) initValues();
    0000074A 53FC                   MOV.L       @(48,R15),R3




SH SERIES C/C++ Compiler (Ver. 6.0C)                                                                 30-Jan-2015 21:53:33  PAGE   20


SCT OFFSET   CODE       C LABEL     INSTRUCTION OPERAND    COMMENT

    0000074C 2338                   TST         R3,R3
    0000074E 8902                   BT          L823
    00000750 50FC                   MOV.L       @(48,R15),R0
    00000752 8802                   CMP/EQ      #2,R0
    00000754 8B02                   BF          L822
    00000756              L823:                             
    00000756 D22F                   MOV.L       L873+52,R2 ; _initValues
    00000758 420B                   JSR         @R2
    0000075A 0009                   NOP
    0000075C              L822:                             
       Jetpack.c   162    
       Jetpack.c   163                if (isDead == 2) vitesseDecalage -= 0.02;
    0000075C 50FE                   MOV.L       @(56,R15),R0
    0000075E 8802                   CMP/EQ      #2,R0
    00000760 8B13                   BF          L824
    00000762 7FF8                   ADD         #-8,R15
    00000764 D22C                   MOV.L       L873+56,R2 ; H'47AE147B
    00000766 60C3                   MOV         R12,R0
    00000768 D32D                   MOV.L       L873+64,R3 ; __stod
    0000076A 2F26                   MOV.L       R2,@-R15
    0000076C D22B                   MOV.L       L873+60,R2 ; H'3F947AE1
    0000076E 2F26                   MOV.L       R2,@-R15
    00000770 7FF8                   ADD         #-8,R15
    00000772 430B                   JSR         @R3
    00000774 2FF6                   MOV.L       R15,@-R15
    00000776 63F3                   MOV         R15,R3
    00000778 7310                   ADD         #16,R3
    0000077A 2F36                   MOV.L       R3,@-R15
    0000077C D329                   MOV.L       L873+68,R3 ; __subd
    0000077E 430B                   JSR         @R3
    00000780 0009                   NOP
    00000782 D329                   MOV.L       L873+72,R3 ; __dtos
    00000784 430B                   JSR         @R3
    00000786 0009                   NOP
    00000788 6C03                   MOV         R0,R12
    0000078A              L824:                             
       Jetpack.c   164                if (vitesseDecalage < 0) vitesseDecalage = 0;
    0000078A 61C3                   MOV         R12,R1
    0000078C D227                   MOV.L       L873+76,R2 ; __lts
    0000078E 420B                   JSR         @R2
    00000790 E000                   MOV         #0,R0
    00000792 8800                   CMP/EQ      #0,R0
    00000794 8900                   BT          L825
    00000796 EC00                   MOV         #0,R12
    00000798              L825:                             
       Jetpack.c   165    
       Jetpack.c   166                saveGadgetsUsed++;
    00000798 53FC                   MOV.L       @(48,R15),R3
    0000079A 7301                   ADD         #1,R3
    0000079C 1F3C                   MOV.L       R3,@(48,R15)
    0000079E              L815:                             
       Jetpack.c   167            }
       Jetpack.c   168    
       Jetpack.c   169            if ((vehicule == 0 || (vehicule == 9 && vitesseDecalage >= 2)) && y != 8)
    0000079E 62F2                   MOV.L       @R15,R2
    000007A0 2228                   TST         R2,R2
    000007A2 8908                   BT          L827




SH SERIES C/C++ Compiler (Ver. 6.0C)                                                                 30-Jan-2015 21:53:33  PAGE   21


SCT OFFSET   CODE       C LABEL     INSTRUCTION OPERAND    COMMENT

    000007A4 60F2                   MOV.L       @R15,R0
    000007A6 8809                   CMP/EQ      #9,R0
    000007A8 8B58                   BF          L826
    000007AA D021                   MOV.L       L873+80,R0 ; H'40000000
    000007AC D211                   MOV.L       L873+20,R2 ; __ges
    000007AE 420B                   JSR         @R2
    000007B0 61C3                   MOV         R12,R1
    000007B2 8800                   CMP/EQ      #0,R0
    000007B4 8952                   BT          L826
    000007B6              L827:                             
    000007B6 50F1                   MOV.L       @(4,R15),R0
    000007B8 8808                   CMP/EQ      #8,R0
    000007BA 894F                   BT          L826
       Jetpack.c   170            {
       Jetpack.c   171                if (y > 8)
    000007BC 52F1                   MOV.L       @(4,R15),R2
    000007BE 32A7                   CMP/GT      R10,R2
    000007C0 8B3C                   BF          L828
       Jetpack.c   172                {
       Jetpack.c   173                    y -= vitesseDecalage;
    000007C2 D11C                   MOV.L       L873+84,R1 ; __itos
    000007C4 410B                   JSR         @R1
    000007C6 50F1                   MOV.L       @(4,R15),R0
    000007C8 D31B                   MOV.L       L873+88,R3 ; __subs
    000007CA 6103                   MOV         R0,R1
    000007CC 430B                   JSR         @R3
    000007CE 60C3                   MOV         R12,R0
    000007D0 D10D                   MOV.L       L873+40,R1 ; __stoi
    000007D2 410B                   JSR         @R1
    000007D4 0009                   NOP
       Jetpack.c   174                    if (y < 8) y = 8;
    000007D6 30A3                   CMP/GE      R10,R0
    000007D8 8F3F                   BF/S        L660
    000007DA 1F01                   MOV.L       R0,@(4,R15)
    000007DC A03E                   BRA         L826
    000007DE 0009                   NOP
    000007E0              L873:                             
    000007E0 41A00000               .DATA.L     H'41A00000
    000007E4 <00000000>             .DATA.L     __adds
    000007E8 <00000000>             .DATA.L     __modls
    000007EC <00000000>             .DATA.L     _genererMissiles
    000007F0 42F00000               .DATA.L     H'42F00000
    000007F4 <00000000>             .DATA.L     __ges
    000007F8 <00000000>             .DATA.L     _genererLasers
    000007FC <00000000>             .DATA.L     _genererJeton
    00000800 <00000000>             .DATA.L     _choixHitbox
    00000804 <00000000>             .DATA.L     _changerHitbox
    00000808 <00000000>             .DATA.L     __stoi
    0000080C <00000000>             .DATA.L     _deplacerVehicule
    00000810 <00000000>             .DATA.L     _sauvegarde
    00000814 <00000000>             .DATA.L     _initValues
    00000818 47AE147B               .DATA.L     H'47AE147B
    0000081C 3F947AE1               .DATA.L     H'3F947AE1
    00000820 <00000000>             .DATA.L     __stod
    00000824 <00000000>             .DATA.L     __subd
    00000828 <00000000>             .DATA.L     __dtos
    0000082C <00000000>             .DATA.L     __lts




SH SERIES C/C++ Compiler (Ver. 6.0C)                                                                 30-Jan-2015 21:53:33  PAGE   22


SCT OFFSET   CODE       C LABEL     INSTRUCTION OPERAND    COMMENT

    00000830 40000000               .DATA.L     H'40000000
    00000834 <00000000>             .DATA.L     __itos
    00000838 <00000000>             .DATA.L     __subs
    0000083C              L828:                             
       Jetpack.c   175                }
       Jetpack.c   176                else if (y < 8)
    0000083C 52F1                   MOV.L       @(4,R15),R2
    0000083E 32A3                   CMP/GE      R10,R2
    00000840 890C                   BT          L826
       Jetpack.c   177                {
       Jetpack.c   178                    y += vitesseDecalage;
    00000842 D17E                   MOV.L       L874,R1    ; __itos
    00000844 410B                   JSR         @R1
    00000846 50F1                   MOV.L       @(4,R15),R0
    00000848 D37D                   MOV.L       L874+4,R3  ; __adds
    0000084A 430B                   JSR         @R3
    0000084C 61C3                   MOV         R12,R1
    0000084E D17D                   MOV.L       L874+8,R1  ; __stoi
    00000850 410B                   JSR         @R1
    00000852 0009                   NOP
       Jetpack.c   179                    if (y > 8) y = 8;
    00000854 30A7                   CMP/GT      R10,R0
    00000856 8F01                   BF/S        L826
    00000858 1F01                   MOV.L       R0,@(4,R15)
    0000085A              L660:
    0000085A 1FA1                   MOV.L       R10,@(4,R15)
    0000085C              L826:                             
       Jetpack.c   180                }
       Jetpack.c   181            }
       Jetpack.c   182    
       Jetpack.c   183            if (vehicule == -1 && lvl > 750 && vitesseDecalage > 2)
    0000085C 60F2                   MOV.L       @R15,R0
    0000085E 88FF                   CMP/EQ      #-1,R0
    00000860 8B44                   BF          L833
    00000862 D079                   MOV.L       L874+12,R0 ; H'443B8000
    00000864 D279                   MOV.L       L874+16,R2 ; __gts
    00000866 420B                   JSR         @R2
    00000868 6183                   MOV         R8,R1
    0000086A 8800                   CMP/EQ      #0,R0
    0000086C 893E                   BT          L833
    0000086E D078                   MOV.L       L874+20,R0 ; H'40000000
    00000870 D376                   MOV.L       L874+16,R3 ; __gts
    00000872 430B                   JSR         @R3
    00000874 61C3                   MOV         R12,R1
    00000876 8800                   CMP/EQ      #0,R0
    00000878 8938                   BT          L833
       Jetpack.c   184            {
       Jetpack.c   185                vitesseDecalage -= 1;
    0000087A D076                   MOV.L       L874+24,R0 ; H'3F800000
    0000087C D276                   MOV.L       L874+28,R2 ; __subs
    0000087E 420B                   JSR         @R2
    00000880 61C3                   MOV         R12,R1
    00000882 6C03                   MOV         R0,R12
       Jetpack.c   186                if (vitesseDecalage == 2)
    00000884 D375                   MOV.L       L874+32,R3 ; __nes
    00000886 6103                   MOV         R0,R1
    00000888 D071                   MOV.L       L874+20,R0 ; H'40000000




SH SERIES C/C++ Compiler (Ver. 6.0C)                                                                 30-Jan-2015 21:53:33  PAGE   23


SCT OFFSET   CODE       C LABEL     INSTRUCTION OPERAND    COMMENT

    0000088A 430B                   JSR         @R3
    0000088C 0009                   NOP
    0000088E 8800                   CMP/EQ      #0,R0
    00000890 8B2C                   BF          L833
       Jetpack.c   187                {
       Jetpack.c   188                    vehicule = 0;
    00000892 2FD2                   MOV.L       R13,@R15
       Jetpack.c   189                    vitesseDecalage = 2;
    00000894 DC6E                   MOV.L       L874+20,R12; H'40000000
       Jetpack.c   190                    if (sauvegarde->gadgetEquipe[0] == 9 || sauvegarde->gadgetEquipe[1] == 9)
    00000896 64E2                   MOV.L       @R14,R4
    00000898 740C                   ADD         #12,R4
    0000089A 6040                   MOV.B       @R4,R0
    0000089C 600C                   EXTU.B      R0,R0
    0000089E 8809                   CMP/EQ      #9,R0
    000008A0 8903                   BT          L836
    000008A2 8441                   MOV.B       @(1,R4),R0
    000008A4 600C                   EXTU.B      R0,R0
    000008A6 8809                   CMP/EQ      #9,R0
    000008A8 8B1D                   BF          L835
    000008AA              L836:                             
       Jetpack.c   191                    {
       Jetpack.c   192                        sauvegarde->statTotal[4] += 1;
    000008AA E048                   MOV         #72,R0
    000008AC 62E2                   MOV.L       @R14,R2
    000008AE 032E                   MOV.L       @(R0,R2),R3
    000008B0 7301                   ADD         #1,R3
       Jetpack.c   193                        vehicule = rand()%6+1; // si on a le gadget tour gratuit
    000008B2 490B                   JSR         @R9
    000008B4 0236                   MOV.L       R3,@(R0,R2)
    000008B6 6103                   MOV         R0,R1
    000008B8 D269                   MOV.L       L874+36,R2 ; __modls
    000008BA 420B                   JSR         @R2
    000008BC E006                   MOV         #6,R0
    000008BE 7001                   ADD         #1,R0
       Jetpack.c   194                        if (vehicule == 3 && sauvegarde->succes[15] != -1) sauvegarde->succes[15] += 1;
    000008C0 8803                   CMP/EQ      #3,R0
    000008C2 8F0B                   BF/S        L837
    000008C4 2F02                   MOV.L       R0,@R15
    000008C6 E16F                   MOV         #111,R1
    000008C8 D366                   MOV.L       L874+40,R3 ; _sauvegarde
    000008CA 6032                   MOV.L       @R3,R0
    000008CC 001C                   MOV.B       @(R0,R1),R0
    000008CE 88FF                   CMP/EQ      #-1,R0
    000008D0 8904                   BT          L837
    000008D2 E06F                   MOV         #111,R0
    000008D4 62E2                   MOV.L       @R14,R2
    000008D6 032C                   MOV.B       @(R0,R2),R3
    000008D8 7301                   ADD         #1,R3
    000008DA 0234                   MOV.B       R3,@(R0,R2)
    000008DC              L837:                             
       Jetpack.c   195                        if (x == 0) x = 2;
    000008DC 52F2                   MOV.L       @(8,R15),R2
    000008DE 2228                   TST         R2,R2
    000008E0 8B01                   BF          L835
    000008E2 E202                   MOV         #2,R2
    000008E4 1F22                   MOV.L       R2,@(8,R15)




SH SERIES C/C++ Compiler (Ver. 6.0C)                                                                 30-Jan-2015 21:53:33  PAGE   24


SCT OFFSET   CODE       C LABEL     INSTRUCTION OPERAND    COMMENT

    000008E6              L835:                             
       Jetpack.c   196                    }
       Jetpack.c   197                    reinitElements();
    000008E6 D360                   MOV.L       L874+44,R3 ; _reinitElements
    000008E8 430B                   JSR         @R3
    000008EA 0009                   NOP
    000008EC              L833:                             
       Jetpack.c   198                }
       Jetpack.c   199            }
       Jetpack.c   200    
       Jetpack.c   201            if (vitesseDecalage == 0)
    000008EC D35B                   MOV.L       L874+32,R3 ; __nes
    000008EE 61C3                   MOV         R12,R1
    000008F0 430B                   JSR         @R3
    000008F2 E000                   MOV         #0,R0
    000008F4 8800                   CMP/EQ      #0,R0
    000008F6 8901                   BT          L875
    000008F8 A103                   BRA         L839
    000008FA 0009                   NOP
    000008FC              L875:                             
       Jetpack.c   202            {
       Jetpack.c   203                SaveDisp(1);
    000008FC D25B                   MOV.L       L874+48,R2 ; _SaveDisp
    000008FE 420B                   JSR         @R2
    00000900 E401                   MOV         #1,R4
       Jetpack.c   204                // stats
       Jetpack.c   205                initValues();
    00000902 D35B                   MOV.L       L874+52,R3 ; _initValues
    00000904 430B                   JSR         @R3
    00000906 0009                   NOP
       Jetpack.c   206                if (firstDeath == 0)
    00000908 E058                   MOV         #88,R0
    0000090A 02FE                   MOV.L       @(R0,R15),R2
    0000090C 2228                   TST         R2,R2
    0000090E 8B13                   BF          L840
       Jetpack.c   207                {
       Jetpack.c   208                    firstDeath = 1;
    00000910 E058                   MOV         #88,R0
    00000912 0FB6                   MOV.L       R11,@(R0,R15)
       Jetpack.c   209                    if (nbJetons == 0 && nbPieces == 0 && sauvegarde->succes[1] != -1) sauvegarde->succes[1] =
                         + -1, nouveauSucces = 1;
    00000914 53FA                   MOV.L       @(40,R15),R3
    00000916 2338                   TST         R3,R3
    00000918 8B0E                   BF          L840
    0000091A 53F4                   MOV.L       @(16,R15),R3
    0000091C 2338                   TST         R3,R3
    0000091E 8B0B                   BF          L840
    00000920 D350                   MOV.L       L874+40,R3 ; _sauvegarde
    00000922 E161                   MOV         #97,R1
    00000924 6032                   MOV.L       @R3,R0
    00000926 001C                   MOV.B       @(R0,R1),R0
    00000928 88FF                   CMP/EQ      #-1,R0
    0000092A 8905                   BT          L840
    0000092C 63E2                   MOV.L       @R14,R3
    0000092E E2FF                   MOV         #-1,R2
    00000930 E061                   MOV         #97,R0
    00000932 0324                   MOV.B       R2,@(R0,R3)




SH SERIES C/C++ Compiler (Ver. 6.0C)                                                                 30-Jan-2015 21:53:33  PAGE   25


SCT OFFSET   CODE       C LABEL     INSTRUCTION OPERAND    COMMENT

    00000934 D34F                   MOV.L       L874+56,R3 ; _nouveauSucces
    00000936 23B0                   MOV.B       R11,@R3
    00000938              L840:                             
       Jetpack.c   210                }
       Jetpack.c   211    
       Jetpack.c   212                switch (tirageMenu(&nbJetons, &nbPieces,coeur)) // tirage final
    00000938 D34F                   MOV.L       L874+60,R3 ; _tirageMenu
    0000093A E05C                   MOV         #92,R0
    0000093C 06FE                   MOV.L       @(R0,R15),R6
    0000093E 65F3                   MOV         R15,R5
    00000940 7510                   ADD         #16,R5
    00000942 64F3                   MOV         R15,R4
    00000944 430B                   JSR         @R3
    00000946 7428                   ADD         #40,R4
    00000948 8800                   CMP/EQ      #0,R0
    0000094A 8911                   BT          L764
    0000094C 8801                   CMP/EQ      #1,R0
    0000094E 8B01                   BF          L876
    00000950 A09A                   BRA         L765
    00000952 0009                   NOP
    00000954              L876:                             
    00000954 8802                   CMP/EQ      #2,R0
    00000956 8B01                   BF          L877
    00000958 A0A3                   BRA         L766
    0000095A 0009                   NOP
    0000095C              L877:                             
    0000095C 8803                   CMP/EQ      #3,R0
    0000095E 8B01                   BF          L878
    00000960 A0AC                   BRA         L767
    00000962 0009                   NOP
    00000964              L878:                             
    00000964 8804                   CMP/EQ      #4,R0
    00000966 8B01                   BF          L879
    00000968 A0C4                   BRA         L768
    0000096A 0009                   NOP
    0000096C              L879:                             
    0000096C A0C9                   BRA         L839
    0000096E 0009                   NOP
    00000970              L764:                            ; case label 
       Jetpack.c   213                {
       Jetpack.c   214                    case 0: // si on a plus de jetons
       Jetpack.c   215                        if (totalJetons > sauvegarde->statScore[2]) sauvegarde->statScore[2] = totalJetons;
    00000970 62E2                   MOV.L       @R14,R2
    00000972 E02A                   MOV         #42,R0
    00000974 032D                   MOV.W       @(R0,R2),R3
    00000976 633D                   EXTU.W      R3,R3
    00000978 52F9                   MOV.L       @(36,R15),R2
    0000097A 3237                   CMP/GT      R3,R2
    0000097C 8B03                   BF          L843
    0000097E E02A                   MOV         #42,R0
    00000980 61E2                   MOV.L       @R14,R1
    00000982 53F9                   MOV.L       @(36,R15),R3
    00000984 0135                   MOV.W       R3,@(R0,R1)
    00000986              L843:                             
       Jetpack.c   216                        if (nbPieces > sauvegarde->statScore[1]) sauvegarde->statScore[1] = nbPieces; // stats
    00000986 E028                   MOV         #40,R0
    00000988 62E2                   MOV.L       @R14,R2




SH SERIES C/C++ Compiler (Ver. 6.0C)                                                                 30-Jan-2015 21:53:33  PAGE   26


SCT OFFSET   CODE       C LABEL     INSTRUCTION OPERAND    COMMENT

    0000098A 032D                   MOV.W       @(R0,R2),R3
    0000098C 52F4                   MOV.L       @(16,R15),R2
    0000098E 633D                   EXTU.W      R3,R3
    00000990 3237                   CMP/GT      R3,R2
    00000992 8B03                   BF          L844
    00000994 61E2                   MOV.L       @R14,R1
    00000996 E028                   MOV         #40,R0
    00000998 53F4                   MOV.L       @(16,R15),R3
    0000099A 0135                   MOV.W       R3,@(R0,R1)
    0000099C              L844:                             
       Jetpack.c   217                            sauvegarde->statTotal[3] += totalJetons;
    0000099C 62E2                   MOV.L       @R14,R2
    0000099E E044                   MOV         #68,R0
    000009A0 53F9                   MOV.L       @(36,R15),R3
    000009A2 012E                   MOV.L       @(R0,R2),R1
    000009A4 313C                   ADD         R3,R1
    000009A6 0216                   MOV.L       R1,@(R0,R2)
       Jetpack.c   218                        sauvegarde->statTotal[2] += nbPieces;
    000009A8 62E2                   MOV.L       @R14,R2
    000009AA E040                   MOV         #64,R0
    000009AC 53F4                   MOV.L       @(16,R15),R3
    000009AE 012E                   MOV.L       @(R0,R2),R1
    000009B0 313C                   ADD         R3,R1
    000009B2 0216                   MOV.L       R1,@(R0,R2)
       Jetpack.c   219                        sauvegarde->statMort[3] += deadDistance;
    000009B4 63E2                   MOV.L       @R14,R3
    000009B6 E05A                   MOV         #90,R0
    000009B8 D130                   MOV.L       L874+64,R1 ; __utos
    000009BA 003D                   MOV.W       @(R0,R3),R0
    000009BC 410B                   JSR         @R1
    000009BE 600D                   EXTU.W      R0,R0
    000009C0 D21F                   MOV.L       L874+4,R2  ; __adds
    000009C2 61F3                   MOV         R15,R1
    000009C4 7148                   ADD         #72,R1
    000009C6 420B                   JSR         @R2
    000009C8 6112                   MOV.L       @R1,R1
    000009CA D12D                   MOV.L       L874+68,R1 ; __stou
    000009CC 410B                   JSR         @R1
    000009CE 0009                   NOP
    000009D0 E15A                   MOV         #90,R1
    000009D2 313C                   ADD         R3,R1
    000009D4 2101                   MOV.W       R0,@R1
       Jetpack.c   220                        for (w = 0; w < 6; w++)
    000009D6 65D3                   MOV         R13,R5
    000009D8 E054                   MOV         #84,R0
    000009DA 06FE                   MOV.L       @(R0,R15),R6
    000009DC A010                   BRA         L845
    000009DE 64D3                   MOV         R13,R4
    000009E0              L846:                             
       Jetpack.c   221                        {
       Jetpack.c   222                            sauvegarde->statVehicule[w] += vehicDistance[w];
    000009E0 63E2                   MOV.L       @R14,R3
    000009E2 732C                   ADD         #44,R3
    000009E4 D125                   MOV.L       L874+64,R1 ; __utos
    000009E6 334C                   ADD         R4,R3
    000009E8 6031                   MOV.W       @R3,R0
    000009EA 410B                   JSR         @R1




SH SERIES C/C++ Compiler (Ver. 6.0C)                                                                 30-Jan-2015 21:53:33  PAGE   27


SCT OFFSET   CODE       C LABEL     INSTRUCTION OPERAND    COMMENT

    000009EC 600D                   EXTU.W      R0,R0
    000009EE D214                   MOV.L       L874+4,R2  ; __adds
    000009F0 420B                   JSR         @R2
    000009F2 6166                   MOV.L       @R6+,R1
    000009F4 D122                   MOV.L       L874+68,R1 ; __stou
    000009F6 410B                   JSR         @R1
    000009F8 0009                   NOP
    000009FA 7501                   ADD         #1,R5
    000009FC 2301                   MOV.W       R0,@R3
    000009FE 7402                   ADD         #2,R4
    00000A00              L845:                             
    00000A00 E306                   MOV         #6,R3
    00000A02 3533                   CMP/GE      R3,R5
    00000A04 8BEC                   BF          L846
       Jetpack.c   223                        }
       Jetpack.c   224    
       Jetpack.c   225                        if (sauvegarde->statMort[4] >= 20 && sauvegarde->succes[4] != -1) sauvegarde->succes[4
                         +] = -1, nouveauSucces = 1;
    00000A06 E414                   MOV         #20,R4
    00000A08 63E2                   MOV.L       @R14,R3
    00000A0A E05C                   MOV         #92,R0
    00000A0C 023D                   MOV.W       @(R0,R3),R2
    00000A0E 622D                   EXTU.W      R2,R2
    00000A10 3243                   CMP/GE      R4,R2
    00000A12 8B0A                   BF          L847
    00000A14 60E2                   MOV.L       @R14,R0
    00000A16 E164                   MOV         #100,R1
    00000A18 001C                   MOV.B       @(R0,R1),R0
    00000A1A 88FF                   CMP/EQ      #-1,R0
    00000A1C 8905                   BT          L847
    00000A1E E3FF                   MOV         #-1,R3
    00000A20 62E2                   MOV.L       @R14,R2
    00000A22 E064                   MOV         #100,R0
    00000A24 0234                   MOV.B       R3,@(R0,R2)
    00000A26 D213                   MOV.L       L874+56,R2 ; _nouveauSucces
    00000A28 22B0                   MOV.B       R11,@R2
    00000A2A              L847:                             
       Jetpack.c   226    
       Jetpack.c   227                        return deadMenu(lvl,nbPieces);
    00000A2A DC16                   MOV.L       L874+72,R12; _deadMenu
    00000A2C 55F4                   MOV.L       @(16,R15),R5
    00000A2E D305                   MOV.L       L874+8,R3  ; __stoi
    00000A30 430B                   JSR         @R3
    00000A32 6083                   MOV         R8,R0
    00000A34 4C0B                   JSR         @R12
    00000A36 6403                   MOV         R0,R4
    00000A38 A107                   BRA         L848
    00000A3A 0009                   NOP
    00000A3C              L874:                             
    00000A3C <00000000>             .DATA.L     __itos
    00000A40 <00000000>             .DATA.L     __adds
    00000A44 <00000000>             .DATA.L     __stoi
    00000A48 443B8000               .DATA.L     H'443B8000
    00000A4C <00000000>             .DATA.L     __gts
    00000A50 40000000               .DATA.L     H'40000000
    00000A54 3F800000               .DATA.L     H'3F800000
    00000A58 <00000000>             .DATA.L     __subs




SH SERIES C/C++ Compiler (Ver. 6.0C)                                                                 30-Jan-2015 21:53:33  PAGE   28


SCT OFFSET   CODE       C LABEL     INSTRUCTION OPERAND    COMMENT

    00000A5C <00000000>             .DATA.L     __nes
    00000A60 <00000000>             .DATA.L     __modls
    00000A64 <00000000>             .DATA.L     _sauvegarde
    00000A68 <00000000>             .DATA.L     _reinitElements
    00000A6C <00000000>             .DATA.L     _SaveDisp
    00000A70 <00000000>             .DATA.L     _initValues
    00000A74 <00000000>             .DATA.L     _nouveauSucces
    00000A78 <00000000>             .DATA.L     _tirageMenu
    00000A7C <00000000>             .DATA.L     __utos
    00000A80 <00000000>             .DATA.L     __stou
    00000A84 <00000000>             .DATA.L     _deadMenu
    00000A88              L765:                            ; case label 
       Jetpack.c   228                        break;
       Jetpack.c   229                        case 1:
       Jetpack.c   230                            RestoreDisp(1);
    00000A88 D314                   MOV.L       L880+2,R3  ; _RestoreDisp
    00000A8A 430B                   JSR         @R3
    00000A8C E401                   MOV         #1,R4
       Jetpack.c   231                            ML_display_vram();
    00000A8E D214                   MOV.L       L880+6,R2  ; _ML_display_vram
    00000A90 420B                   JSR         @R2
    00000A92 0009                   NOP
       Jetpack.c   232                            Sleep(750);
    00000A94 9421                   MOV.W       L880,R4    ; H'02EE
    00000A96 D313                   MOV.L       L880+10,R3 ; _Sleep
    00000A98 430B                   JSR         @R3
    00000A9A 0009                   NOP
       Jetpack.c   233                            collisionPhase = 1;
       Jetpack.c   234                            vitesseDecalage = 2;
    00000A9C DC12                   MOV.L       L880+14,R12; H'40000000
    00000A9E A019                   BRA         L656
    00000AA0 1FB5                   MOV.L       R11,@(20,R15)
    00000AA2              L766:                            ; case label 
       Jetpack.c   235                            vehicule = 9;
       Jetpack.c   236                            reinitElements();
       Jetpack.c   237                        break;
       Jetpack.c   238                        case 2:
       Jetpack.c   239                            RestoreDisp(1);
    00000AA2 D30E                   MOV.L       L880+2,R3  ; _RestoreDisp
    00000AA4 430B                   JSR         @R3
    00000AA6 E401                   MOV         #1,R4
       Jetpack.c   240                            ML_display_vram();
    00000AA8 D20D                   MOV.L       L880+6,R2  ; _ML_display_vram
    00000AAA 420B                   JSR         @R2
    00000AAC 0009                   NOP
       Jetpack.c   241                            Sleep(750);
    00000AAE 9414                   MOV.W       L880,R4    ; H'02EE
    00000AB0 D30C                   MOV.L       L880+10,R3 ; _Sleep
    00000AB2 430B                   JSR         @R3
    00000AB4 0009                   NOP
       Jetpack.c   242                            collisionPhase = 1;
       Jetpack.c   243                            vitesseDecalage = 3;
    00000AB6 DC0D                   MOV.L       L880+18,R12; H'40400000
    00000AB8 A00C                   BRA         L656
    00000ABA 1FB5                   MOV.L       R11,@(20,R15)
    00000ABC              L767:                            ; case label 
       Jetpack.c   244                            vehicule = 9;




SH SERIES C/C++ Compiler (Ver. 6.0C)                                                                 30-Jan-2015 21:53:33  PAGE   29


SCT OFFSET   CODE       C LABEL     INSTRUCTION OPERAND    COMMENT

       Jetpack.c   245                            reinitElements();
       Jetpack.c   246                        break;
       Jetpack.c   247                        case 3:
       Jetpack.c   248                            RestoreDisp(1);
    00000ABC D207                   MOV.L       L880+2,R2  ; _RestoreDisp
    00000ABE 420B                   JSR         @R2
    00000AC0 E401                   MOV         #1,R4
       Jetpack.c   249                            ML_display_vram();
    00000AC2 D307                   MOV.L       L880+6,R3  ; _ML_display_vram
    00000AC4 430B                   JSR         @R3
    00000AC6 0009                   NOP
       Jetpack.c   250                            Sleep(750);
    00000AC8 9407                   MOV.W       L880,R4    ; H'02EE
    00000ACA D206                   MOV.L       L880+10,R2 ; _Sleep
    00000ACC 420B                   JSR         @R2
    00000ACE 0009                   NOP
       Jetpack.c   251                            collisionPhase = 1;
    00000AD0 1FB5                   MOV.L       R11,@(20,R15)
       Jetpack.c   252                            vitesseDecalage = 4;
    00000AD2 DC07                   MOV.L       L880+22,R12; H'40800000
    00000AD4              L656:
       Jetpack.c   253                            vehicule = 9;
    00000AD4 E309                   MOV         #9,R3
    00000AD6 A011                   BRA         L659
    00000AD8 2F32                   MOV.L       R3,@R15
    00000ADA              L880:                             
    00000ADA 02EE                   .DATA.W     H'02EE
    00000ADC <00000000>             .DATA.L     _RestoreDisp
    00000AE0 <00000000>             .DATA.L     _ML_display_vram
    00000AE4 <00000000>             .DATA.L     _Sleep
    00000AE8 40000000               .DATA.L     H'40000000
    00000AEC 40400000               .DATA.L     H'40400000
    00000AF0 40800000               .DATA.L     H'40800000
    00000AF4              L768:                            ; case label 
       Jetpack.c   254                            reinitElements();
       Jetpack.c   255                        break;
       Jetpack.c   256                        case 4:
       Jetpack.c   257                            coeur = 1;
       Jetpack.c   258                            vitesseDecalage = 2;
    00000AF4 DC5A                   MOV.L       L881,R12   ; H'40000000
    00000AF6 E05C                   MOV         #92,R0
    00000AF8 0FB6                   MOV.L       R11,@(R0,R15)
       Jetpack.c   259                            vehicule = 0;
    00000AFA 2FD2                   MOV.L       R13,@R15
    00000AFC              L659:
       Jetpack.c   260                            reinitElements();
    00000AFC D359                   MOV.L       L881+4,R3  ; _reinitElements
    00000AFE 430B                   JSR         @R3
    00000B00 0009                   NOP
       Jetpack.c   261                        break;
    00000B02              L839:                             
       Jetpack.c   262                }
       Jetpack.c   263            }
       Jetpack.c   264    
       Jetpack.c   265            // on gere toutes les variables diverses et variees
       Jetpack.c   266    
       Jetpack.c   267            niveau = (int)(lvl/400)+1; // calcul du niveau (le secteur)




SH SERIES C/C++ Compiler (Ver. 6.0C)                                                                 30-Jan-2015 21:53:33  PAGE   30


SCT OFFSET   CODE       C LABEL     INSTRUCTION OPERAND    COMMENT

    00000B02 D059                   MOV.L       L881+8,R0  ; H'43C80000
    00000B04 D359                   MOV.L       L881+12,R3 ; __divs
    00000B06 430B                   JSR         @R3
    00000B08 6183                   MOV         R8,R1
    00000B0A D259                   MOV.L       L881+16,R2 ; __stoi
    00000B0C 420B                   JSR         @R2
    00000B0E 0009                   NOP
    00000B10 7001                   ADD         #1,R0
       Jetpack.c   268            if (sleep >= 14) sleep = 40 - niveau*3;
    00000B12 E40E                   MOV         #14,R4
    00000B14 1F0E                   MOV.L       R0,@(56,R15)
    00000B16 53F8                   MOV.L       @(32,R15),R3
    00000B18 3343                   CMP/GE      R4,R3
    00000B1A 8B06                   BF          L849
    00000B1C 51FE                   MOV.L       @(56,R15),R1
    00000B1E E228                   MOV         #40,R2
    00000B20 6313                   MOV         R1,R3
    00000B22 4100                   SHLL        R1
    00000B24 313C                   ADD         R3,R1
    00000B26 3218                   SUB         R1,R2
    00000B28 1F28                   MOV.L       R2,@(32,R15)
    00000B2A              L849:                             
       Jetpack.c   269    
       Jetpack.c   270            if (tempsBox > 0) tempsBox--;
    00000B2A 53F6                   MOV.L       @(24,R15),R3
    00000B2C 4315                   CMP/PL      R3
    00000B2E 8B02                   BF          L850
    00000B30 51F6                   MOV.L       @(24,R15),R1
    00000B32 71FF                   ADD         #-1,R1
    00000B34 1F16                   MOV.L       R1,@(24,R15)
    00000B36              L850:                             
       Jetpack.c   271    
       Jetpack.c   272            if (tempsPieces > 0) tempsPieces--;
    00000B36 E044                   MOV         #68,R0
    00000B38 03FE                   MOV.L       @(R0,R15),R3
    00000B3A 4315                   CMP/PL      R3
    00000B3C 8B04                   BF          L851
    00000B3E E044                   MOV         #68,R0
    00000B40 01FE                   MOV.L       @(R0,R15),R1
    00000B42 E044                   MOV         #68,R0
    00000B44 71FF                   ADD         #-1,R1
    00000B46 0F16                   MOV.L       R1,@(R0,R15)
    00000B48              L851:                             
       Jetpack.c   273            tempsMissiles++;
       Jetpack.c   274    
       Jetpack.c   275            decalageElements+=vitesseDecalage;
    00000B48 D24A                   MOV.L       L881+20,R2 ; __adds
    00000B4A E04C                   MOV         #76,R0
    00000B4C 03FE                   MOV.L       @(R0,R15),R3
    00000B4E E04C                   MOV         #76,R0
    00000B50 7301                   ADD         #1,R3
    00000B52 0F36                   MOV.L       R3,@(R0,R15)
    00000B54 60C3                   MOV         R12,R0
    00000B56 420B                   JSR         @R2
    00000B58 51FD                   MOV.L       @(52,R15),R1
    00000B5A 1F0D                   MOV.L       R0,@(52,R15)
       Jetpack.c   276    




SH SERIES C/C++ Compiler (Ver. 6.0C)                                                                 30-Jan-2015 21:53:33  PAGE   31


SCT OFFSET   CODE       C LABEL     INSTRUCTION OPERAND    COMMENT

       Jetpack.c   277            scrolling +=vitesseDecalage;
    00000B5C D245                   MOV.L       L881+20,R2 ; __adds
    00000B5E 60C3                   MOV         R12,R0
    00000B60 420B                   JSR         @R2
    00000B62 51FF                   MOV.L       @(60,R15),R1
    00000B64 1F0F                   MOV.L       R0,@(60,R15)
       Jetpack.c   278            if (scrolling > 128) scrolling -= 128; // decalage du scrolling
    00000B66 D144                   MOV.L       L881+24,R1 ; H'43000000
    00000B68 D244                   MOV.L       L881+28,R2 ; __lts
    00000B6A 420B                   JSR         @R2
    00000B6C 0009                   NOP
    00000B6E 8800                   CMP/EQ      #0,R0
    00000B70 8904                   BT          L852
    00000B72 D041                   MOV.L       L881+24,R0 ; H'43000000
    00000B74 D242                   MOV.L       L881+32,R2 ; __subs
    00000B76 420B                   JSR         @R2
    00000B78 51FF                   MOV.L       @(60,R15),R1
    00000B7A 1F0F                   MOV.L       R0,@(60,R15)
    00000B7C              L852:                             
       Jetpack.c   279    
       Jetpack.c   280            if (vitesseDecalage < 2) y+=vitesseDecalage;
    00000B7C D038                   MOV.L       L881,R0    ; H'40000000
    00000B7E D33F                   MOV.L       L881+28,R3 ; __lts
    00000B80 430B                   JSR         @R3
    00000B82 61C3                   MOV         R12,R1
    00000B84 8800                   CMP/EQ      #0,R0
    00000B86 8909                   BT          L853
    00000B88 D13E                   MOV.L       L881+36,R1 ; __itos
    00000B8A 410B                   JSR         @R1
    00000B8C 50F1                   MOV.L       @(4,R15),R0
    00000B8E D239                   MOV.L       L881+20,R2 ; __adds
    00000B90 420B                   JSR         @R2
    00000B92 61C3                   MOV         R12,R1
    00000B94 D136                   MOV.L       L881+16,R1 ; __stoi
    00000B96 410B                   JSR         @R1
    00000B98 0009                   NOP
    00000B9A 1F01                   MOV.L       R0,@(4,R15)
    00000B9C              L853:                             
       Jetpack.c   281    
       Jetpack.c   282            lvl+=vitesseDecalage/2;
    00000B9C D030                   MOV.L       L881,R0    ; H'40000000
    00000B9E D333                   MOV.L       L881+12,R3 ; __divs
    00000BA0 430B                   JSR         @R3
    00000BA2 61C3                   MOV         R12,R1
    00000BA4 D233                   MOV.L       L881+20,R2 ; __adds
    00000BA6 6403                   MOV         R0,R4
    00000BA8 420B                   JSR         @R2
    00000BAA 6183                   MOV         R8,R1
       Jetpack.c   283    
       Jetpack.c   284            if (vehicule > 6) deadDistance += vitesseDecalage/2;
    00000BAC 62F2                   MOV.L       @R15,R2
    00000BAE 6803                   MOV         R0,R8
    00000BB0 E306                   MOV         #6,R3
    00000BB2 3237                   CMP/GT      R3,R2
    00000BB4 8B09                   BF          L854
    00000BB6 6043                   MOV         R4,R0
    00000BB8 D22E                   MOV.L       L881+20,R2 ; __adds




SH SERIES C/C++ Compiler (Ver. 6.0C)                                                                 30-Jan-2015 21:53:33  PAGE   32


SCT OFFSET   CODE       C LABEL     INSTRUCTION OPERAND    COMMENT

    00000BBA 61F3                   MOV         R15,R1
    00000BBC 7148                   ADD         #72,R1
    00000BBE 420B                   JSR         @R2
    00000BC0 6112                   MOV.L       @R1,R1
    00000BC2 61F3                   MOV         R15,R1
    00000BC4 7148                   ADD         #72,R1
    00000BC6 A00E                   BRA         L855
    00000BC8 2102                   MOV.L       R0,@R1
    00000BCA              L854:                             
       Jetpack.c   285            else if (vehicule > 0) vehicDistance[vehicule-1] += vitesseDecalage/2;
    00000BCA 62F2                   MOV.L       @R15,R2
    00000BCC 4215                   CMP/PL      R2
    00000BCE 8B0A                   BF          L855
    00000BD0 62F2                   MOV.L       @R15,R2
    00000BD2 61F3                   MOV         R15,R1
    00000BD4 D327                   MOV.L       L881+20,R3 ; __adds
    00000BD6 6043                   MOV         R4,R0
    00000BD8 72FF                   ADD         #-1,R2
    00000BDA 4208                   SHLL2       R2
    00000BDC 7160                   ADD         #96,R1
    00000BDE 321C                   ADD         R1,R2
    00000BE0 430B                   JSR         @R3
    00000BE2 6122                   MOV.L       @R2,R1
    00000BE4 2202                   MOV.L       R0,@R2
    00000BE6              L855:                             
       Jetpack.c   286    
       Jetpack.c   287            Sleep(sleep/(vehicule>=1&&vehicule<=6?2.5:vehicule>6?2:1.5)); // un peu de calme dans ce monde de 
                         +brutes :p
    00000BE6 7FF8                   ADD         #-8,R15
    00000BE8 D227                   MOV.L       L881+40,R2 ; __itod
    00000BEA 50FA                   MOV.L       @(40,R15),R0
    00000BEC 7FF8                   ADD         #-8,R15
    00000BEE 420B                   JSR         @R2
    00000BF0 2FF6                   MOV.L       R15,@-R15
    00000BF2 53F4                   MOV.L       @(16,R15),R3
    00000BF4 33B3                   CMP/GE      R11,R3
    00000BF6 8B08                   BF          L857
    00000BF8 52F4                   MOV.L       @(16,R15),R2
    00000BFA E106                   MOV         #6,R1
    00000BFC 3217                   CMP/GT      R1,R2
    00000BFE 8904                   BT          L857
    00000C00 E300                   MOV         #0,R3
    00000C02 2F36                   MOV.L       R3,@-R15
    00000C04 D321                   MOV.L       L881+44,R3 ; H'40040000
    00000C06 A007                   BRA         L862
    00000C08 0009                   NOP
    00000C0A              L857:                             
    00000C0A E206                   MOV         #6,R2
    00000C0C 51F4                   MOV.L       @(16,R15),R1
    00000C0E 3127                   CMP/GT      R2,R1
    00000C10 8B05                   BF          L858
    00000C12 E300                   MOV         #0,R3
    00000C14 2F36                   MOV.L       R3,@-R15
    00000C16 D312                   MOV.L       L881,R3    ; H'40000000
    00000C18              L862:                             
    00000C18 2F36                   MOV.L       R3,@-R15
    00000C1A A004                   BRA         L859




SH SERIES C/C++ Compiler (Ver. 6.0C)                                                                 30-Jan-2015 21:53:33  PAGE   33


SCT OFFSET   CODE       C LABEL     INSTRUCTION OPERAND    COMMENT

    00000C1C 0009                   NOP
    00000C1E              L858:                             
    00000C1E E100                   MOV         #0,R1
    00000C20 2F16                   MOV.L       R1,@-R15
    00000C22 D11B                   MOV.L       L881+48,R1 ; H'3FF80000
    00000C24 2F16                   MOV.L       R1,@-R15
    00000C26              L859:                             
    00000C26 63F3                   MOV         R15,R3
    00000C28 D21A                   MOV.L       L881+52,R2 ; __divdr
    00000C2A 7310                   ADD         #16,R3
    00000C2C 420B                   JSR         @R2
    00000C2E 2F36                   MOV.L       R3,@-R15
    00000C30 D119                   MOV.L       L881+56,R1 ; __dtoi
    00000C32 410B                   JSR         @R1
    00000C34 0009                   NOP
    00000C36 D319                   MOV.L       L881+60,R3 ; _Sleep
    00000C38 430B                   JSR         @R3
    00000C3A 6403                   MOV         R0,R4
    00000C3C AAB1                   BRA         L786
    00000C3E 0009                   NOP
    00000C40              L789:                             
       Jetpack.c   288          }
       Jetpack.c   289    
       Jetpack.c   290        sauvegarde = loadSaveFile();
    00000C40 D317                   MOV.L       L881+64,R3 ; _loadSaveFile
    00000C42 430B                   JSR         @R3
    00000C44 0009                   NOP
    00000C46 2E02                   MOV.L       R0,@R14
       Jetpack.c   291    
       Jetpack.c   292        return 0;
    00000C48 E000                   MOV         #0,R0
       Jetpack.c   293    }
    00000C4A              L848:                             
    00000C4A 7F78                   ADD         #120,R15
    00000C4C 4F16                   LDS.L       @R15+,MACL
    00000C4E 4F26                   LDS.L       @R15+,PR
    00000C50 68F6                   MOV.L       @R15+,R8
    00000C52 69F6                   MOV.L       @R15+,R9
    00000C54 6AF6                   MOV.L       @R15+,R10
    00000C56 6BF6                   MOV.L       @R15+,R11
    00000C58 6CF6                   MOV.L       @R15+,R12
    00000C5A 6DF6                   MOV.L       @R15+,R13
    00000C5C 000B                   RTS
    00000C5E 6EF6                   MOV.L       @R15+,R14
    00000C60              L881:                             
    00000C60 40000000               .DATA.L     H'40000000
    00000C64 <00000000>             .DATA.L     _reinitElements
    00000C68 43C80000               .DATA.L     H'43C80000
    00000C6C <00000000>             .DATA.L     __divs
    00000C70 <00000000>             .DATA.L     __stoi
    00000C74 <00000000>             .DATA.L     __adds
    00000C78 43000000               .DATA.L     H'43000000
    00000C7C <00000000>             .DATA.L     __lts
    00000C80 <00000000>             .DATA.L     __subs
    00000C84 <00000000>             .DATA.L     __itos
    00000C88 <00000000>             .DATA.L     __itod
    00000C8C 40040000               .DATA.L     H'40040000




SH SERIES C/C++ Compiler (Ver. 6.0C)                                                                 30-Jan-2015 21:53:33  PAGE   34


SCT OFFSET   CODE       C LABEL     INSTRUCTION OPERAND    COMMENT

    00000C90 3FF80000               .DATA.L     H'3FF80000
    00000C94 <00000000>             .DATA.L     __divdr
    00000C98 <00000000>             .DATA.L     __dtoi
    00000C9C <00000000>             .DATA.L     _Sleep
    00000CA0 <00000000>             .DATA.L     _loadSaveFile
       Jetpack.c   294    
       Jetpack.c   295    #pragma section _BR_Size
       Jetpack.c   296    unsigned long BR_Size;
       Jetpack.c   297    #pragma section
       Jetpack.c   298    #pragma section _TOP
       Jetpack.c   299    int InitializeSystem(int isAppli, unsigned short OptionNum)
P_T 00000000              _InitializeSystem:               ; function: InitializeSystem
                                                           ; frame size=0
       Jetpack.c   300    {
       Jetpack.c   301        return INIT_ADDIN_APPLICATION(isAppli, OptionNum);
    00000000 D301                   MOV.L       L882+2,R3  ; _INIT_ADDIN_APPLICATION
    00000002 432B                   JMP         @R3
    00000004 0009                   NOP
    00000006              L882:                             
    00000006 0000                   .DATA.W     0
    00000008 <00000000>             .DATA.L     _INIT_ADDIN_APPLICATION
       Jetpack.c   302    }
       Jetpack.c   303    #pragma section
C   00000000              __$barryUp:                      ; static: barryUp
    00000000 08803F807F             .DATA.B     H'08,H'80,H'3F,H'80,H'7F,H'80,H'FF,H'80,H'F9,H'00,H'F8,H'80,H'CA,H'80,H'CA,H'40,
             80FF80F900 +                       H'68,H'80,H'50,H'80,H'AF,H'00,H'50,H'80,H'2E,H'80,H'25,H'00,H'48,H'00,H'70,H'00,
             F880CA80CA +                       H'3E,H'00,H'3E,H'00,H'3E,H'00,H'FF,H'80,H'79,H'00,H'F8,H'80,H'CA,H'80,H'CA,H'40,
             4068805080 +                       H'68,H'80,H'50,H'80,H'AF,H'00,H'50,H'80,H'3E,H'80,H'3D,H'00,H'78,H'00,H'70,H'00,
             AF0050802E +                       H'1C,H'00,H'22,H'00,H'22,H'00,H'7F,H'C0,H'F9,H'00,H'F8,H'80,H'CA,H'80,H'CA,H'40,
             8025004800 +                       H'68,H'80,H'50,H'80,H'AF,H'00,H'50,H'80,H'2E,H'80,H'25,H'00,H'48,H'00,H'70,H'00,
             70003E003E +                       H'08,H'80,H'3F,H'80,H'7F,H'80,H'FF,H'80,H'F9,H'00,H'F8,H'80,H'CA,H'80,H'FA,H'40,
             003E00FF80 +                       H'7F,H'80,H'5F,H'80,H'AF,H'00,H'50,H'80,H'3E,H'80,H'3D,H'00,H'78,H'00,H'70,H'00,
             7900F880CA +                       H'00,H'00,H'3F,H'00,H'41,H'80,H'80,H'80,H'80,H'80,H'8F,H'80,H'8E,H'80,H'CF,H'40,
             80CA406880 +                       H'68,H'80,H'50,H'80,H'AF,H'00,H'50,H'80,H'3E,H'80,H'3D,H'00,H'48,H'00,H'70,H'00,
             5080AF0050 +                       H'08,H'00,H'14,H'00,H'22,H'00,H'41,H'00,H'80,H'80,H'FF,H'80,H'D8,H'80,H'AB,H'40,
             803E803D00 +                       H'58,H'80,H'70,H'80,H'AF,H'00,H'50,H'80,H'2E,H'80,H'25,H'00,H'48,H'00,H'70,H'00
             780070001C   
             0022002200   
             7FC0F900F8   
             80CA80CA40   
             68805080AF   
             0050802E80   
             2500480070   
             0008803F80   
             7F80FF80F9   
             00F880CA80   
             FA407F805F   
             80AF005080   
             3E803D0078   
             0070000000   
             3F00418080   
             8080808F80   
             8E80CF4068   
             805080AF00   
             50803E803D   
             0048007000   
             0800140022   




SH SERIES C/C++ Compiler (Ver. 6.0C)                                                                 30-Jan-2015 21:53:33  PAGE   35


SCT OFFSET   CODE       C LABEL     INSTRUCTION OPERAND    COMMENT

             0041008080   
             FF80D880AB   
             4058807080   
             AF0050802E   
             8025004800   
             7000         
    000000C0              __$barryDown1:                   ; static: barryDown1
    000000C0 08803F807F             .DATA.B     H'08,H'80,H'3F,H'80,H'7F,H'80,H'FF,H'80,H'F9,H'00,H'F8,H'80,H'CA,H'80,H'CA,H'40,
             80FF80F900 +                       H'68,H'80,H'50,H'80,H'AF,H'00,H'50,H'80,H'2E,H'80,H'25,H'00,H'49,H'00,H'77,H'00,
             F880CA80CA +                       H'3E,H'00,H'3E,H'00,H'3E,H'00,H'FF,H'80,H'79,H'00,H'F8,H'80,H'CA,H'80,H'CA,H'40,
             4068805080 +                       H'68,H'80,H'50,H'80,H'AF,H'00,H'50,H'80,H'3E,H'80,H'3F,H'00,H'7F,H'00,H'77,H'00,
             AF0050802E +                       H'1C,H'00,H'22,H'00,H'22,H'00,H'7F,H'C0,H'F9,H'00,H'F8,H'80,H'CA,H'80,H'CA,H'40,
             8025004900 +                       H'68,H'80,H'50,H'80,H'AF,H'00,H'50,H'80,H'2E,H'80,H'25,H'00,H'49,H'00,H'77,H'00,
             77003E003E +                       H'08,H'80,H'3F,H'80,H'7F,H'80,H'FF,H'80,H'F9,H'00,H'F8,H'80,H'CA,H'80,H'FA,H'40,
             003E00FF80 +                       H'7F,H'80,H'5F,H'80,H'AF,H'00,H'50,H'80,H'3E,H'80,H'3F,H'00,H'7F,H'00,H'77,H'00,
             7900F880CA +                       H'00,H'00,H'3F,H'00,H'41,H'80,H'80,H'80,H'80,H'80,H'8F,H'80,H'8E,H'80,H'CF,H'40,
             80CA406880 +                       H'68,H'80,H'50,H'80,H'AF,H'00,H'50,H'80,H'3E,H'80,H'3F,H'00,H'49,H'00,H'77,H'00,
             5080AF0050 +                       H'08,H'00,H'14,H'00,H'22,H'00,H'41,H'00,H'80,H'80,H'FF,H'80,H'D8,H'80,H'AB,H'40,
             803E803F00 +                       H'58,H'80,H'70,H'80,H'AF,H'00,H'50,H'80,H'2E,H'80,H'25,H'00,H'49,H'00,H'77,H'00
             7F0077001C   
             0022002200   
             7FC0F900F8   
             80CA80CA40   
             68805080AF   
             0050802E80   
             2500490077   
             0008803F80   
             7F80FF80F9   
             00F880CA80   
             FA407F805F   
             80AF005080   
             3E803F007F   
             0077000000   
             3F00418080   
             8080808F80   
             8E80CF4068   
             805080AF00   
             50803E803F   
             0049007700   
             0800140022   
             0041008080   
             FF80D880AB   
             4058807080   
             AF0050802E   
             8025004900   
             7700         
    00000180              __$barryDown2:                   ; static: barryDown2
    00000180 08803F807F             .DATA.B     H'08,H'80,H'3F,H'80,H'7F,H'80,H'FF,H'80,H'F9,H'00,H'F8,H'80,H'CA,H'80,H'CA,H'40,
             80FF80F900 +                       H'68,H'80,H'50,H'80,H'AF,H'00,H'50,H'80,H'2E,H'80,H'23,H'00,H'1A,H'00,H'0E,H'00,
             F880CA80CA +                       H'3E,H'00,H'3E,H'00,H'3E,H'00,H'FF,H'80,H'79,H'00,H'F8,H'80,H'CA,H'80,H'CA,H'40,
             4068805080 +                       H'68,H'80,H'50,H'80,H'AF,H'00,H'50,H'80,H'3E,H'80,H'3F,H'00,H'1E,H'00,H'0E,H'00,
             AF0050802E +                       H'1C,H'00,H'22,H'00,H'22,H'00,H'7F,H'C0,H'F9,H'00,H'F8,H'80,H'CA,H'80,H'CA,H'40,
             8023001A00 +                       H'68,H'80,H'50,H'80,H'AF,H'00,H'50,H'80,H'2E,H'80,H'23,H'00,H'1A,H'00,H'0E,H'00,
             0E003E003E +                       H'08,H'80,H'3F,H'80,H'7F,H'80,H'FF,H'80,H'F9,H'00,H'F8,H'80,H'CA,H'80,H'FA,H'40,
             003E00FF80 +                       H'7F,H'80,H'5F,H'80,H'AF,H'00,H'50,H'80,H'3E,H'80,H'3F,H'00,H'1E,H'00,H'0E,H'00,
             7900F880CA +                       H'00,H'00,H'3F,H'00,H'41,H'80,H'80,H'80,H'80,H'80,H'8F,H'80,H'8E,H'80,H'CF,H'40,
             80CA406880 +                       H'68,H'80,H'50,H'80,H'AF,H'00,H'50,H'80,H'3E,H'80,H'3F,H'00,H'12,H'00,H'0E,H'00,




SH SERIES C/C++ Compiler (Ver. 6.0C)                                                                 30-Jan-2015 21:53:33  PAGE   36


SCT OFFSET   CODE       C LABEL     INSTRUCTION OPERAND    COMMENT

             5080AF0050 +                       H'08,H'00,H'14,H'00,H'22,H'00,H'41,H'00,H'80,H'80,H'FF,H'80,H'D8,H'80,H'AB,H'40,
             803E803F00 +                       H'58,H'80,H'70,H'80,H'AF,H'00,H'50,H'80,H'2E,H'80,H'23,H'00,H'1A,H'00,H'0E,H'00
             1E000E001C   
             0022002200   
             7FC0F900F8   
             80CA80CA40   
             68805080AF   
             0050802E80   
             23001A000E   
             0008803F80   
             7F80FF80F9   
             00F880CA80   
             FA407F805F   
             80AF005080   
             3E803F001E   
             000E000000   
             3F00418080   
             8080808F80   
             8E80CF4068   
             805080AF00   
             50803E803F   
             0012000E00   
             0800140022   
             0041008080   
             FF80D880AB   
             4058807080   
             AF0050802E   
             8023001A00   
             0E00         
    00000240              __$barryAlpha:                   ; static: barryAlpha
    00000240 F77FC07F80             .DATA.B     H'F7,H'7F,H'C0,H'7F,H'80,H'7F,H'00,H'7F,H'00,H'FF,H'00,H'7F,H'00,H'7F,H'00,H'3F,
             7F007F00FF +                       H'80,H'7F,H'80,H'7F,H'40,H'FF,H'A0,H'7F,H'C0,H'7F,H'C2,H'FF,H'87,H'FF,H'8F,H'FF,
             007F007F00 +                       H'C1,H'FF,H'C1,H'FF,H'C1,H'FF,H'00,H'7F,H'80,H'FF,H'00,H'7F,H'00,H'7F,H'00,H'3F,
             3F807F807F +                       H'80,H'7F,H'80,H'7F,H'00,H'FF,H'80,H'7F,H'C0,H'7F,H'C2,H'FF,H'87,H'FF,H'8F,H'FF,
             40FFA07FC0 +                       H'E3,H'C0,H'C1,H'C0,H'C1,H'C0,H'80,H'00,H'00,H'C0,H'00,H'40,H'00,H'40,H'00,H'00,
             7FC2FF87FF +                       H'80,H'40,H'80,H'40,H'00,H'C0,H'80,H'40,H'C0,H'40,H'C2,H'C0,H'87,H'C0,H'8F,H'C0,
             8FFFC1FFC1 +                       H'F7,H'40,H'C0,H'40,H'80,H'40,H'00,H'40,H'00,H'C0,H'00,H'40,H'00,H'40,H'00,H'00,
             FFC1FF007F +                       H'80,H'40,H'80,H'40,H'00,H'C0,H'80,H'40,H'C0,H'40,H'C2,H'C0,H'87,H'C0,H'8F,H'C0,
             80FF007F00 +                       H'FF,H'C0,H'C0,H'C0,H'80,H'40,H'00,H'40,H'00,H'40,H'00,H'40,H'00,H'40,H'00,H'00,
             7F003F807F +                       H'80,H'40,H'80,H'40,H'00,H'C0,H'80,H'40,H'C0,H'40,H'C2,H'C0,H'87,H'C0,H'8F,H'C0,
             807F00FF80 +                       H'F7,H'C0,H'E3,H'C0,H'C1,H'C0,H'80,H'C0,H'00,H'40,H'00,H'40,H'00,H'40,H'00,H'00,
             7FC07FC2FF +                       H'80,H'40,H'80,H'40,H'00,H'C0,H'80,H'40,H'C0,H'40,H'C2,H'C0,H'87,H'C0,H'8F,H'C0
             87FF8FFFE3   
             C0C1C0C1C0   
             800000C000   
             4000400000   
             8040804000   
             C08040C040   
             C2C087C08F   
             C0F740C040   
             8040004000   
             C000400040   
             0000804080   
             4000C08040   
             C040C2C087   
             C08FC0FFC0   
             C0C0804000   




SH SERIES C/C++ Compiler (Ver. 6.0C)                                                                 30-Jan-2015 21:53:33  PAGE   37


SCT OFFSET   CODE       C LABEL     INSTRUCTION OPERAND    COMMENT

             4000400040   
             0040000080   
             40804000C0   
             8040C040C2   
             C087C08FC0   
             F7C0E3C0C1   
             C080C00040   
             0040004000   
             0080408040   
             00C08040C0   
             40C2C087C0   
             8FC0         
    00000300              __$barryDown1Alpha:              ; static: barryDown1Alpha
    00000300 F77FC07F80             .DATA.B     H'F7,H'7F,H'C0,H'7F,H'80,H'7F,H'00,H'7F,H'00,H'FF,H'00,H'7F,H'00,H'7F,H'00,H'3F,
             7F007F00FF +                       H'80,H'7F,H'80,H'7F,H'40,H'FF,H'A0,H'7F,H'C0,H'7F,H'C0,H'FF,H'80,H'FF,H'88,H'FF,
             007F007F00 +                       H'C1,H'C0,H'C1,H'C0,H'C1,H'C0,H'00,H'40,H'80,H'C0,H'00,H'40,H'00,H'40,H'00,H'00,
             3F807F807F +                       H'80,H'40,H'80,H'40,H'00,H'C0,H'80,H'40,H'C0,H'40,H'C0,H'C0,H'80,H'C0,H'88,H'C0,
             40FFA07FC0 +                       H'E3,H'C0,H'C1,H'C0,H'C1,H'C0,H'80,H'00,H'00,H'C0,H'00,H'40,H'00,H'40,H'00,H'00,
             7FC0FF80FF +                       H'80,H'40,H'80,H'40,H'00,H'C0,H'80,H'40,H'C0,H'40,H'C0,H'C0,H'80,H'C0,H'88,H'C0,
             88FFC1C0C1 +                       H'F7,H'40,H'C0,H'40,H'80,H'40,H'00,H'40,H'00,H'C0,H'00,H'40,H'00,H'40,H'00,H'00,
             C0C1C00040 +                       H'80,H'40,H'80,H'40,H'00,H'C0,H'80,H'40,H'C0,H'40,H'C0,H'C0,H'80,H'C0,H'88,H'C0,
             80C0004000 +                       H'FF,H'C0,H'C0,H'C0,H'80,H'40,H'00,H'40,H'00,H'40,H'00,H'40,H'00,H'40,H'00,H'00,
             4000008040 +                       H'80,H'40,H'80,H'40,H'00,H'C0,H'80,H'40,H'C0,H'40,H'C0,H'C0,H'80,H'C0,H'88,H'C0,
             804000C080 +                       H'F7,H'C0,H'E3,H'C0,H'C1,H'C0,H'80,H'C0,H'00,H'40,H'00,H'40,H'00,H'40,H'00,H'00,
             40C040C0C0 +                       H'80,H'40,H'80,H'40,H'00,H'C0,H'80,H'40,H'C0,H'40,H'C0,H'C0,H'80,H'C0,H'88,H'C0
             80C088C0E3   
             C0C1C0C1C0   
             800000C000   
             4000400000   
             8040804000   
             C08040C040   
             C0C080C088   
             C0F740C040   
             8040004000   
             C000400040   
             0000804080   
             4000C08040   
             C040C0C080   
             C088C0FFC0   
             C0C0804000   
             4000400040   
             0040000080   
             40804000C0   
             8040C040C0   
             C080C088C0   
             F7C0E3C0C1   
             C080C00040   
             0040004000   
             0080408040   
             00C08040C0   
             40C0C080C0   
             88C0         
    000003C0              __$barryDown2Alpha:              ; static: barryDown2Alpha
    000003C0 F77FC07F80             .DATA.B     H'F7,H'7F,H'C0,H'7F,H'80,H'7F,H'00,H'7F,H'00,H'FF,H'00,H'7F,H'00,H'7F,H'00,H'3F,
             7F007F00FF +                       H'80,H'7F,H'80,H'7F,H'40,H'FF,H'A0,H'7F,H'C0,H'7F,H'C0,H'FF,H'E1,H'FF,H'F1,H'FF,
             007F007F00 +                       H'C1,H'C0,H'C1,H'C0,H'C1,H'C0,H'00,H'40,H'80,H'C0,H'00,H'40,H'00,H'40,H'00,H'00,
             3F807F807F +                       H'80,H'40,H'80,H'40,H'00,H'C0,H'80,H'40,H'C0,H'40,H'C0,H'C0,H'E1,H'C0,H'F1,H'C0,




SH SERIES C/C++ Compiler (Ver. 6.0C)                                                                 30-Jan-2015 21:53:33  PAGE   38


SCT OFFSET   CODE       C LABEL     INSTRUCTION OPERAND    COMMENT

             40FFA07FC0 +                       H'E3,H'C0,H'C1,H'C0,H'C1,H'C0,H'80,H'00,H'00,H'C0,H'00,H'40,H'00,H'40,H'00,H'00,
             7FC0FFE1FF +                       H'80,H'40,H'80,H'40,H'00,H'C0,H'80,H'40,H'C0,H'40,H'C0,H'C0,H'E1,H'C0,H'F1,H'C0,
             F1FFC1C0C1 +                       H'F7,H'40,H'C0,H'40,H'80,H'40,H'00,H'40,H'00,H'C0,H'00,H'40,H'00,H'40,H'00,H'00,
             C0C1C00040 +                       H'80,H'40,H'80,H'40,H'00,H'C0,H'80,H'40,H'C0,H'40,H'C0,H'C0,H'E1,H'C0,H'F1,H'C0,
             80C0004000 +                       H'FF,H'C0,H'C0,H'C0,H'80,H'40,H'00,H'40,H'00,H'40,H'00,H'40,H'00,H'40,H'00,H'00,
             4000008040 +                       H'80,H'40,H'80,H'40,H'00,H'C0,H'80,H'40,H'C0,H'40,H'C0,H'C0,H'E1,H'C0,H'F1,H'C0,
             804000C080 +                       H'F7,H'C0,H'E3,H'C0,H'C1,H'C0,H'80,H'C0,H'00,H'40,H'00,H'40,H'00,H'40,H'00,H'00,
             40C040C0C0 +                       H'80,H'40,H'80,H'40,H'00,H'C0,H'80,H'40,H'C0,H'40,H'C0,H'C0,H'E1,H'C0,H'F1,H'C0
             E1C0F1C0E3   
             C0C1C0C1C0   
             800000C000   
             4000400000   
             8040804000   
             C08040C040   
             C0C0E1C0F1   
             C0F740C040   
             8040004000   
             C000400040   
             0000804080   
             4000C08040   
             C040C0C0E1   
             C0F1C0FFC0   
             C0C0804000   
             4000400040   
             0040000080   
             40804000C0   
             8040C040C0   
             C0E1C0F1C0   
             F7C0E3C0C1   
             C080C00040   
             0040004000   
             0080408040   
             00C08040C0   
             40C0C0E1C0   
             F1C0         
    00000480              __$jetpack1:                     ; static: jetpack1
    00000480 0E11111E12             .DATA.B     H'0E,H'11,H'11,H'1E,H'12,H'14,H'0A,H'1B,H'15,H'1B,H'15,H'1F,H'15,H'15,H'1F,H'00,
             140A1B151B +                       H'0E,H'11,H'11,H'1E,H'12,H'14,H'0A,H'1B,H'1B,H'11,H'1B,H'1F,H'0A,H'0A,H'1F,H'00
             151F15151F   
             000E11111E   
             12140A1B1B   
             111B1F0A0A   
             1F00         
    000004A0              __$jetpack1Alpha:                ; static: jetpack1Alpha
    000004A0 F1E0E0E1E1             .DATA.B     H'F1,H'E0,H'E0,H'E1,H'E1,H'E3,H'F1,H'E0,H'E0,H'E0,H'E0,H'E0,H'E0,H'E0,H'E0,H'FF
             E3F1E0E0E0   
             E0E0E0E0E0   
             FF           
    000004B0              __$jetpack2:                     ; static: jetpack2
    000004B0 001C224141             .DATA.B     H'00,H'1C,H'22,H'41,H'41,H'5D,H'41,H'5D,H'41,H'5D,H'41,H'41,H'7F,H'3E,H'1C,H'00
             5D415D415D   
             41417F3E1C   
             00           
    000004C0              __$jetpack2Alpha:                ; static: jetpack2Alpha
    000004C0 FFE3C18080             .DATA.B     H'FF,H'E3,H'C1,H'80,H'80,H'80,H'80,H'80,H'80,H'80,H'80,H'80,H'80,H'C1,H'E3,H'FF
             8080808080   
             808080C1E3   




SH SERIES C/C++ Compiler (Ver. 6.0C)                                                                 30-Jan-2015 21:53:33  PAGE   39


SCT OFFSET   CODE       C LABEL     INSTRUCTION OPERAND    COMMENT

             FF           
    000004D0              __$jetpack3:                     ; static: jetpack3
    000004D0 001C22417F             .DATA.B     H'00,H'1C,H'22,H'41,H'7F,H'41,H'7F,H'49,H'49,H'41,H'3E,H'1C,H'00,H'00,H'00,H'00,
             417F494941 +                       H'00,H'1C,H'22,H'41,H'7F,H'41,H'7F,H'49,H'49,H'41,H'7F,H'5D,H'49,H'22,H'14,H'08,
             3E1C000000 +                       H'00,H'1C,H'22,H'41,H'7F,H'41,H'7F,H'49,H'49,H'41,H'3E,H'2A,H'14,H'14,H'08,H'08
             00001C2241   
             7F417F4949   
             417F5D4922   
             1408001C22   
             417F417F49   
             49413E2A14   
             140808       
    00000500              __$jetpack3Alpha:                ; static: jetpack3Alpha
    00000500 FFE3C18080             .DATA.B     H'FF,H'E3,H'C1,H'80,H'80,H'80,H'80,H'80,H'80,H'80,H'C1,H'E3,H'FF,H'FF,H'FF,H'FF,
             8080808080 +                       H'FF,H'E3,H'C1,H'80,H'80,H'80,H'80,H'80,H'80,H'80,H'80,H'80,H'80,H'C1,H'E3,H'F7,
             C1E3FFFFFF +                       H'FF,H'E3,H'C1,H'80,H'80,H'80,H'80,H'80,H'80,H'80,H'C1,H'C1,H'E3,H'E3,H'F7,H'F7
             FFFFE3C180   
             8080808080   
             80808080C1   
             E3F7FFE3C1   
             8080808080   
             8080C1C1E3   
             E3F7F7       
    00000530              __$jetpack4:                     ; static: jetpack4
    00000530 C3A599665A             .DATA.B     H'C3,H'A5,H'99,H'66,H'5A,H'24,H'18,H'18,H'1F,H'18,H'1F,H'18,H'34,H'2C,H'14,H'08
             2418181F18   
             1F18342C14   
             08           
    00000540              __$jetpack4Alpha:                ; static: jetpack4Alpha
    00000540 3C18008181             .DATA.B     H'3C,H'18,H'00,H'81,H'81,H'C3,H'E7,H'E7,H'E0,H'E0,H'E0,H'E7,H'C3,H'C3,H'E3,H'F7
             C3E7E7E0E0   
             E0E7C3C3E3   
             F7           
    00000550              __$gadgetOK:                     ; static: gadgetOK
    00000550 030509D2A4             .DATA.B     H'03,H'05,H'09,H'D2,H'A4,H'88,H'50,H'20
             885020       
    00000558              __$gadgetOKAlpha:                ; static: gadgetOKAlpha
    00000558 FCF8F02103             .DATA.B     H'FC,H'F8,H'F0,H'21,H'03,H'07,H'8F,H'DF
             078FDF       
    00000560              __$money:                        ; static: money
    00000560 7884948484             .DATA.B     H'78,H'84,H'94,H'84,H'84,H'78,H'00,H'00
             780000       
    00000568              __$money2:                       ; static: money2
    00000568 7884B4B484             .DATA.B     H'78,H'84,H'B4,H'B4,H'84,H'78,H'00,H'00
             780000       
    00000570              __$moneyAlpha:                   ; static: moneyAlpha
    00000570 8703030303             .DATA.B     H'87,H'03,H'03,H'03,H'03,H'87,H'FF,H'FF
             87FFFF       
    00000578              __$zap:                          ; static: zap
    00000578 0A0035005E             .DATA.B     H'0A,H'00,H'35,H'00,H'5E,H'80,H'A1,H'80,H'69,H'40,H'A5,H'80,H'61,H'40,H'5E,H'80,
             80A1806940 +                       H'2B,H'00,H'14,H'00,H'00,H'00,H'00,H'00,H'00,H'00,H'00,H'00,H'00,H'00,H'00,H'00
             A58061405E   
             802B001400   
             0000000000   
             0000000000   
             0000         
    00000598              __$zapAlpha:                     ; static: zapAlpha




SH SERIES C/C++ Compiler (Ver. 6.0C)                                                                 30-Jan-2015 21:53:33  PAGE   40


SCT OFFSET   CODE       C LABEL     INSTRUCTION OPERAND    COMMENT

    00000598 F1FFC0FF80             .DATA.B     H'F1,H'FF,H'C0,H'FF,H'80,H'7F,H'00,H'7F,H'00,H'3F,H'00,H'3F,H'80,H'3F,H'80,H'7F,
             7F007F003F +                       H'C0,H'FF,H'E3,H'FF,H'FF,H'FF,H'FF,H'FF,H'FF,H'FF,H'FF,H'FF,H'FF,H'FF,H'FF,H'FF
             003F803F80   
             7FC0FFE3FF   
             FFFFFFFFFF   
             FFFFFFFFFF   
             FFFF         
    000005B8              __$laserGauche:                  ; static: laserGauche
    000005B8 7C8EADADAD             .DATA.B     H'7C,H'8E,H'AD,H'AD,H'AD,H'8E,H'7C,H'00
             8E7C00       
    000005C0              __$laserDroite:                  ; static: laserDroite
    000005C0 3E71B5B5B5             .DATA.B     H'3E,H'71,H'B5,H'B5,H'B5,H'71,H'3E,H'00
             713E00       
    000005C8              __$laserGaucheAlpha:             ; static: laserGaucheAlpha
    000005C8 8301000000             .DATA.B     H'83,H'01,H'00,H'00,H'00,H'01,H'83,H'FF
             0183FF       
    000005D0              __$laserDroiteAlpha:             ; static: laserDroiteAlpha
    000005D0 C180000000             .DATA.B     H'C1,H'80,H'00,H'00,H'00,H'80,H'C1,H'FF
             80C1FF       
    000005D8              __$missile1:                     ; static: missile1
    000005D8 03003F8070             .DATA.B     H'03,H'00,H'3F,H'80,H'70,H'78,H'D0,H'46,H'93,H'71,H'D0,H'46,H'70,H'78,H'3F,H'80,
             78D0469371 +                       H'03,H'00,H'00,H'00,H'00,H'00,H'00,H'00,H'00,H'00,H'00,H'00,H'00,H'00,H'00,H'00
             D04670783F   
             8003000000   
             0000000000   
             0000000000   
             0000         
    000005F8              __$missile2:                     ; static: missile2
    000005F8 03003FB070             .DATA.B     H'03,H'00,H'3F,H'B0,H'70,H'4C,H'D0,H'62,H'93,H'71,H'D0,H'62,H'70,H'4C,H'3F,H'B0,
             4CD0629371 +                       H'03,H'00,H'00,H'00,H'00,H'00,H'00,H'00,H'00,H'00,H'00,H'00,H'00,H'00,H'00,H'00
             D062704C3F   
             B003000000   
             0000000000   
             0000000000   
             0000         
    00000618              __$missile1Alpha:                ; static: missile1Alpha
    00000618 FCFFC07F80             .DATA.B     H'FC,H'FF,H'C0,H'7F,H'80,H'07,H'00,H'01,H'00,H'00,H'00,H'01,H'80,H'07,H'C0,H'7F,
             0700010000 +                       H'FC,H'FF,H'FF,H'FF,H'FF,H'FF,H'FF,H'FF,H'FF,H'FF,H'FF,H'FF,H'FF,H'FF,H'FF,H'FF
             00018007C0   
             7FFCFFFFFF   
             FFFFFFFFFF   
             FFFFFFFFFF   
             FFFF         
    00000638              __$missile2Alpha:                ; static: missile2Alpha
    00000638 FCFFC04F80             .DATA.B     H'FC,H'FF,H'C0,H'4F,H'80,H'03,H'00,H'01,H'00,H'00,H'00,H'01,H'80,H'03,H'C0,H'4F,
             0300010000 +                       H'FC,H'FF,H'FF,H'FF,H'FF,H'FF,H'FF,H'FF,H'FF,H'FF,H'FF,H'FF,H'FF,H'FF,H'FF,H'FF
             00018003C0   
             4FFCFFFFFF   
             FFFFFFFFFF   
             FFFFFFFFFF   
             FFFF         
    00000658              __$warning1:                     ; static: warning1
    00000658 1818181818             .DATA.B     H'18,H'18,H'18,H'18,H'18,H'00,H'18,H'18
             001818       
    00000660              __$warning2:                     ; static: warning2
    00000660 3C24242424             .DATA.B     H'3C,H'24,H'24,H'24,H'24,H'24,H'3C,H'24,H'24,H'3C
             243C24243C   




SH SERIES C/C++ Compiler (Ver. 6.0C)                                                                 30-Jan-2015 21:53:33  PAGE   41


SCT OFFSET   CODE       C LABEL     INSTRUCTION OPERAND    COMMENT

    0000066A              __$box:                          ; static: box
    0000066A 3FF04008BC             .DATA.B     H'3F,H'F0,H'40,H'08,H'BC,H'E4,H'E6,H'04,H'CA,H'74,H'C2,H'DC,H'E6,H'8C,H'BC,H'DC,
             E4E604CA74 +                       H'87,H'74,H'AD,H'84,H'A8,H'B4,H'8D,H'A4,H'47,H'08,H'3F,H'F0,H'00,H'00,H'00,H'00
             C2DCE68CBC   
             DC8774AD84   
             A8B48DA447   
             083FF00000   
             0000         
    0000068A              __$jetonSP:                      ; static: jetonSP
    0000068A 070018C030             .DATA.B     H'07,H'00,H'18,H'C0,H'30,H'60,H'78,H'F0,H'5D,H'D0,H'8F,H'88,H'87,H'08,H'8F,H'88,
             6078F05DD0 +                       H'5D,H'D0,H'78,H'F0,H'30,H'60,H'18,H'C0,H'07,H'00,H'00,H'00,H'00,H'00,H'00,H'00
             8F8887088F   
             885DD078F0   
             306018C007   
             0000000000   
             0000         
    000006AA              __$jetonSPAlpha:                 ; static: jetonSPAlpha
    000006AA F8FFE03FC0             .DATA.B     H'F8,H'FF,H'E0,H'3F,H'C0,H'1F,H'80,H'0F,H'80,H'0F,H'00,H'07,H'00,H'07,H'00,H'07,
             1F800F800F +                       H'80,H'0F,H'80,H'0F,H'C0,H'1F,H'E0,H'3F,H'F8,H'FF,H'FF,H'FF,H'FF,H'FF,H'FF,H'FF
             0007000700   
             07800F800F   
             C01FE03FF8   
             FFFFFFFFFF   
             FFFF         
    000006CA              __$fond:                         ; static: fond
    000006CA 0000000000             .DATA.B     H'00,H'00,H'00,H'00,H'00,H'00,H'00,H'00,H'00,H'00,H'00,H'00,H'00,H'00,H'00,H'00,
             0000000000 +                       H'00,H'00,H'00,H'00,H'00,H'00,H'00,H'00,H'00,H'00,H'00,H'00,H'00,H'00,H'00,H'00,
             0000000000 +                       H'00,H'00,H'00,H'00,H'00,H'00,H'00,H'00,H'00,H'00,H'00,H'00,H'00,H'00,H'00,H'00,
             0000000000 +                       H'00,H'00,H'00,H'00,H'00,H'00,H'00,H'00,H'00,H'00,H'00,H'00,H'00,H'00,H'00,H'00,
             0000000000 +                       H'F8,H'00,H'FF,H'FF,H'FC,H'00,H'7F,H'FF,H'FC,H'00,H'7F,H'FF,H'FF,H'80,H'0F,H'FF,
             0000000000 +                       H'04,H'01,H'00,H'00,H'02,H'00,H'80,H'00,H'02,H'00,H'80,H'00,H'00,H'40,H'10,H'00,
             0000000000 +                       H'02,H'02,H'00,H'00,H'01,H'01,H'00,H'00,H'01,H'01,H'00,H'00,H'00,H'20,H'20,H'00,
             0000000000 +                       H'01,H'04,H'00,H'00,H'00,H'FE,H'00,H'00,H'00,H'82,H'00,H'00,H'00,H'1F,H'C0,H'00,
             0000000000 +                       H'01,H'04,H'00,H'00,H'00,H'00,H'00,H'00,H'00,H'82,H'00,H'00,H'00,H'00,H'00,H'00,
             0000000000 +                       H'01,H'04,H'00,H'00,H'00,H'00,H'00,H'00,H'00,H'82,H'00,H'00,H'00,H'00,H'00,H'00,
             0000000000 +                       H'01,H'04,H'00,H'00,H'00,H'00,H'00,H'00,H'00,H'82,H'00,H'00,H'00,H'00,H'00,H'00,
             0000000000 +                       H'01,H'04,H'00,H'00,H'00,H'00,H'00,H'00,H'00,H'82,H'00,H'00,H'00,H'00,H'00,H'00,
             00000000F8 +                       H'01,H'04,H'00,H'00,H'00,H'00,H'00,H'00,H'00,H'82,H'00,H'00,H'00,H'00,H'00,H'00,
             00FFFFFC00 +                       H'01,H'04,H'00,H'00
             7FFFFC007F   
             FFFF800FFF   
             0401000002   
             0080000200   
             8000004010   
             0002020000   
             0101000001   
             0100000020   
             2000010400   
             0000FE0000   
             0082000000   
             1FC0000104   
             0000000000   
             0000820000   
             0000000001   
             0400000000   
             0000008200   
             0000000000   




SH SERIES C/C++ Compiler (Ver. 6.0C)                                                                 30-Jan-2015 21:53:33  PAGE   42


SCT OFFSET   CODE       C LABEL     INSTRUCTION OPERAND    COMMENT

             0104000000   
             0000000082   
             0000000000   
             0001040000   
             0000000000   
             8200000000   
             0000010400   
             0000000000   
             0082000000   
             0000000104   
             0000         
    0000079E 0000000000             .DATA.B     H'00,H'00,H'00,H'00,H'00,H'82,H'00,H'00,H'00,H'00,H'00,H'00,H'01,H'04,H'00,H'00,
             8200000000 +                       H'00,H'00,H'00,H'00,H'00,H'82,H'00,H'00,H'00,H'00,H'00,H'00,H'01,H'04,H'00,H'01,
             0000010400 +                       H'FF,H'FF,H'FE,H'00,H'00,H'82,H'00,H'00,H'00,H'00,H'00,H'00,H'01,H'04,H'00,H'02,
             0000000000 +                       H'00,H'00,H'01,H'00,H'00,H'82,H'00,H'00,H'00,H'00,H'00,H'00,H'01,H'04,H'00,H'04,
             0082000000 +                       H'FF,H'FF,H'FC,H'80,H'00,H'82,H'00,H'00,H'00,H'00,H'00,H'00,H'01,H'04,H'00,H'09,
             0000000104 +                       H'FF,H'FF,H'FE,H'40,H'00,H'82,H'00,H'00,H'00,H'00,H'00,H'00,H'01,H'04,H'00,H'13,
             0001FFFFFE +                       H'FF,H'FF,H'FF,H'20,H'00,H'82,H'00,H'00,H'00,H'00,H'00,H'00,H'01,H'04,H'00,H'27,
             0000820000 +                       H'FF,H'FF,H'FF,H'90,H'00,H'82,H'00,H'00,H'00,H'00,H'00,H'00,H'01,H'04,H'00,H'4F,
             0000000001 +                       H'FF,H'FF,H'FF,H'C8,H'00,H'82,H'00,H'00,H'00,H'00,H'00,H'00,H'FF,H'07,H'FF,H'9F,
             0400020000 +                       H'FF,H'FF,H'FF,H'E7,H'FF,H'83,H'FF,H'FF,H'FF,H'FF,H'FF,H'FF,H'01,H'04,H'00,H'3F,
             0100008200 +                       H'C0,H'00,H'0F,H'F0,H'00,H'82,H'00,H'00,H'00,H'00,H'00,H'00,H'FF,H'07,H'FF,H'FF,
             0000000000 +                       H'80,H'00,H'07,H'FF,H'FF,H'83,H'FF,H'FF,H'FF,H'FF,H'FF,H'FF,H'FF,H'07,H'FF,H'FF,
             01040004FF +                       H'00,H'00,H'03,H'FF,H'FF,H'83,H'FF,H'FF,H'FF,H'FF,H'FF,H'FF,H'FF,H'07,H'FF,H'FE,
             FFFC800082 +                       H'00,H'00,H'01,H'FF
             0000000000   
             0001040009   
             FFFFFE4000   
             8200000000   
             0000010400   
             13FFFFFF20   
             0082000000   
             0000000104   
             0027FFFFFF   
             9000820000   
             0000000001   
             04004FFFFF   
             FFC8008200   
             0000000000   
             FF07FF9FFF   
             FFFFE7FF83   
             FFFFFFFFFF   
             FF0104003F   
             C0000FF000   
             8200000000   
             0000FF07FF   
             FF800007FF   
             FF83FFFFFF   
             FFFFFFFF07   
             FFFF000003   
             FFFF83FFFF   
             FFFFFFFFFF   
             07FFFE0000   
             01FF         
    00000872 FF83FFFFFF             .DATA.B     H'FF,H'83,H'FF,H'FF,H'FF,H'FF,H'FF,H'FF,H'FF,H'07,H'FF,H'FC,H'00,H'00,H'00,H'FF,
             FFFFFFFF07 +                       H'FF,H'83,H'FF,H'FF,H'FF,H'FF,H'FF,H'FF,H'FF,H'07,H'FF,H'F8,H'00,H'00,H'00,H'7F,
             FFFC000000 +                       H'FF,H'83,H'FF,H'FF,H'FF,H'FF,H'FF,H'FF,H'FF,H'07,H'FF,H'F0,H'00,H'00,H'00,H'3F,




SH SERIES C/C++ Compiler (Ver. 6.0C)                                                                 30-Jan-2015 21:53:33  PAGE   43


SCT OFFSET   CODE       C LABEL     INSTRUCTION OPERAND    COMMENT

             FFFF83FFFF +                       H'FF,H'83,H'FF,H'FF,H'FF,H'FF,H'FF,H'FF,H'01,H'04,H'00,H'00,H'00,H'00,H'00,H'00,
             FFFFFFFFFF +                       H'00,H'82,H'00,H'00,H'00,H'00,H'00,H'00,H'01,H'04,H'00,H'00,H'00,H'00,H'00,H'00,
             07FFF80000 +                       H'00,H'82,H'00,H'00,H'00,H'00,H'00,H'00,H'01,H'04,H'00,H'00,H'00,H'00,H'00,H'00,
             007FFF83FF +                       H'00,H'82,H'00,H'00,H'00,H'00,H'00,H'00,H'01,H'04,H'00,H'00,H'00,H'00,H'00,H'00,
             FFFFFFFFFF +                       H'00,H'82,H'00,H'00,H'00,H'00,H'00,H'00,H'01,H'04,H'00,H'00,H'00,H'00,H'00,H'00,
             FF07FFF000 +                       H'00,H'82,H'00,H'00,H'00,H'00,H'00,H'00,H'01,H'04,H'00,H'00,H'00,H'00,H'00,H'00,
             00003FFF83 +                       H'00,H'82,H'00,H'00,H'00,H'00,H'00,H'00,H'01,H'04,H'00,H'00,H'00,H'00,H'00,H'00,
             FFFFFFFFFF +                       H'00,H'82,H'00,H'00,H'00,H'00,H'00,H'00,H'01,H'04,H'00,H'00,H'00,H'00,H'00,H'00,
             FF01040000 +                       H'00,H'82,H'00,H'00,H'00,H'00,H'00,H'00,H'01,H'04,H'00,H'00,H'00,H'00,H'00,H'00,
             0000000000 +                       H'00,H'82,H'00,H'00,H'00,H'00,H'00,H'00,H'01,H'04,H'00,H'00,H'00,H'00,H'00,H'00,
             8200000000 +                       H'00,H'82,H'00,H'00
             0000010400   
             0000000000   
             0082000000   
             0000000104   
             0000000000   
             0000820000   
             0000000001   
             0400000000   
             0000008200   
             0000000000   
             0104000000   
             0000000082   
             0000000000   
             0001040000   
             0000000000   
             8200000000   
             0000010400   
             0000000000   
             0082000000   
             0000000104   
             0000000000   
             0000820000   
             0000000001   
             0400000000   
             0000008200   
             0000000000   
             0104000000   
             0000000082   
             0000         
    00000946 0000000001             .DATA.B     H'00,H'00,H'00,H'00,H'01,H'04,H'00,H'00,H'00,H'00,H'00,H'00,H'00,H'82,H'00,H'00,
             0400000000 +                       H'00,H'00,H'00,H'00,H'01,H'04,H'00,H'00,H'00,H'00,H'00,H'00,H'00,H'82,H'00,H'00,
             0000008200 +                       H'00,H'00,H'00,H'00,H'01,H'04,H'00,H'00,H'00,H'00,H'00,H'00,H'00,H'82,H'00,H'00,
             0000000000 +                       H'00,H'00,H'00,H'00,H'01,H'04,H'00,H'00,H'00,H'00,H'00,H'00,H'00,H'82,H'00,H'00,
             0104000000 +                       H'00,H'00,H'00,H'00,H'01,H'04,H'00,H'00,H'00,H'FE,H'00,H'00,H'00,H'82,H'00,H'00,
             0000000082 +                       H'00,H'1F,H'C0,H'00,H'02,H'02,H'00,H'00,H'01,H'01,H'00,H'00,H'01,H'01,H'00,H'00,
             0000000000 +                       H'00,H'20,H'20,H'00,H'04,H'01,H'00,H'00,H'02,H'00,H'80,H'00,H'02,H'00,H'80,H'00,
             0001040000 +                       H'00,H'40,H'10,H'00,H'F8,H'00,H'FF,H'FF,H'FC,H'00,H'7F,H'FF,H'FC,H'00,H'7F,H'FF,
             0000000000 +                       H'FF,H'80,H'0F,H'FF,H'00,H'00,H'00,H'00,H'00,H'00,H'00,H'00,H'00,H'00,H'00,H'00,
             8200000000 +                       H'00,H'00,H'00,H'00,H'00,H'00,H'00,H'00,H'00,H'00,H'00,H'00,H'00,H'00,H'00,H'00,
             0000010400 +                       H'00,H'00,H'00,H'00,H'00,H'00,H'00,H'00,H'00,H'00,H'00,H'00,H'00,H'00,H'00,H'00,
             0000000000 +                       H'00,H'00,H'00,H'00
             0082000000   
             0000000104   
             000000FE00   
             0000820000   
             001FC00002   




SH SERIES C/C++ Compiler (Ver. 6.0C)                                                                 30-Jan-2015 21:53:33  PAGE   44


SCT OFFSET   CODE       C LABEL     INSTRUCTION OPERAND    COMMENT

             0200000101   
             0000010100   
             0000202000   
             0401000002   
             0080000200   
             8000004010   
             00F800FFFF   
             FC007FFFFC   
             007FFFFF80   
             0FFF000000   
             0000000000   
             0000000000   
             0000000000   
             0000000000   
             0000000000   
             0000000000   
             0000000000   
             0000000000   
             0000000000   
    000009FA              __$sol:                          ; static: sol
    000009FA FFFFFFFFFF             .DATA.B     H'FF,H'FF,H'FF,H'FF,H'FF,H'FF,H'FF,H'FF,H'FF,H'FF,H'FF,H'FF,H'FF,H'FF,H'FF,H'FF,
             FFFFFFFFFF +                       H'FF,H'FF,H'FF,H'FF,H'FF,H'FF,H'FF,H'FF,H'FF,H'FF,H'FF,H'FF,H'FF,H'FF,H'FF,H'FF,
             FFFFFFFFFF +                       H'C0,H'20,H'C0,H'20,H'C0,H'20,H'C0,H'20,H'C0,H'20,H'C0,H'20,H'C0,H'20,H'C0,H'20,
             FFFFFFFFFF +                       H'C0,H'20,H'C0,H'20,H'C0,H'20,H'C0,H'20,H'C0,H'20,H'C0,H'20,H'C0,H'20,H'C0,H'20,
             FFFFFFFFFF +                       H'60,H'10,H'60,H'10,H'60,H'10,H'60,H'10,H'60,H'10,H'60,H'10,H'60,H'10,H'60,H'10,
             FFFFFFFFFF +                       H'30,H'08,H'30,H'08,H'30,H'08,H'30,H'08,H'30,H'08,H'30,H'08,H'30,H'08,H'30,H'08,
             FFFFC020C0 +                       H'FF,H'FF,H'FF,H'FF,H'FF,H'FF,H'FF,H'FF,H'FF,H'FF,H'FF,H'FF,H'FF,H'FF,H'FF,H'FF,
             20C020C020 +                       H'18,H'08,H'18,H'08,H'18,H'08,H'18,H'08,H'18,H'08,H'18,H'08,H'18,H'08,H'18,H'08,
             C020C020C0 +                       H'0C,H'04,H'0C,H'04,H'0C,H'04,H'0C,H'04,H'0C,H'04,H'0C,H'04,H'0C,H'04,H'0C,H'04,
             20C020C020 +                       H'06,H'02,H'06,H'02,H'06,H'02,H'06,H'02,H'06,H'02,H'06,H'02,H'06,H'02,H'06,H'02,
             C020C020C0 +                       H'06,H'02,H'06,H'02,H'06,H'02,H'06,H'02,H'06,H'02,H'06,H'02,H'06,H'02,H'06,H'02,
             20C020C020 +                       H'03,H'01,H'03,H'01,H'03,H'01,H'03,H'01,H'03,H'01,H'03,H'01,H'03,H'01,H'03,H'01
             C020C02060   
             1060106010   
             6010601060   
             1060106010   
             3008300830   
             0830083008   
             3008300830   
             08FFFFFFFF   
             FFFFFFFFFF   
             FFFFFFFFFF   
             FFFF180818   
             0818081808   
             1808180818   
             0818080C04   
             0C040C040C   
             040C040C04   
             0C040C0406   
             0206020602   
             0602060206   
             0206020602   
             0602060206   
             0206020602   
             0602060206   
             0203010301   
             0301030103   




SH SERIES C/C++ Compiler (Ver. 6.0C)                                                                 30-Jan-2015 21:53:33  PAGE   45


SCT OFFSET   CODE       C LABEL     INSTRUCTION OPERAND    COMMENT

             0103010301   
             0301         
    00000ABA              __$jetpackJoyride:               ; static: jetpackJoyride
    00000ABA FE7DFFDFFF             .DATA.B     H'FE,H'7D,H'FF,H'DF,H'FF,H'7E,H'07,H'E0,H'FE,H'0F,H'FE,H'7F,H'FC,H'7F,H'C1,H'F8,
             7E07E0FE0F +                       H'FC,H'FF,H'FF,H'FF,H'FF,H'FF,H'0F,H'F1,H'FF,H'1F,H'FF,H'3F,H'F9,H'FF,H'FC,H'0F,
             FE7FFC7FC1 +                       H'F9,H'FF,H'FF,H'FF,H'FF,H'FF,H'9F,H'FB,H'FF,H'BF,H'FF,H'BF,H'F3,H'FF,H'FF,H'E3,
             F8FCFFFFFF +                       H'FB,H'FF,H'FF,H'FF,H'FF,H'FF,H'FF,H'FF,H'FF,H'FF,H'FF,H'BF,H'E7,H'FF,H'FF,H'F9,
             FFFF0FF1FF +                       H'FA,H'1E,H'01,H'80,H'07,H'83,H'FC,H'3F,H'83,H'E1,H'8F,H'BF,H'EF,H'FF,H'FF,H'FC,
             1FFF3FF9FF +                       H'FA,H'1C,H'01,H'80,H'07,H'01,H'F8,H'1F,H'01,H'E1,H'87,H'BF,H'CF,H'FF,H'FF,H'FE,
             FC0FF9FFFF +                       H'FA,H'18,H'01,H'80,H'06,H'00,H'F0,H'0E,H'00,H'E1,H'87,H'BF,H'DF,H'FF,H'FF,H'FE,
             FFFFFF9FFB +                       H'FA,H'18,H'01,H'80,H'06,H'00,H'60,H'06,H'00,H'E1,H'87,H'BF,H'DF,H'FF,H'FF,H'FE,
             FFBFFFBFF3 +                       H'FA,H'18,H'7F,H'F8,H'7E,H'18,H'61,H'86,H'1F,H'E1,H'87,H'BF,H'9F,H'FF,H'FF,H'FE,
             FFFFE3FBFF +                       H'FA,H'18,H'7F,H'88,H'7A,H'18,H'61,H'86,H'18,H'21,H'8F,H'BF,H'BF,H'FF,H'FF,H'FE,
             FFFFFFFFFF +                       H'FA,H'18,H'07,H'88,H'7A,H'00,H'61,H'86,H'18,H'20,H'1F,H'3F,H'3F,H'E0,H'7F,H'FE,
             FFFFFFFFBF +                       H'C2,H'18,H'07,H'88,H'7A,H'00,H'E1,H'86,H'18,H'20,H'1E,H'7F,H'7F,H'80,H'0F,H'FE,
             E7FFFFF9FA +                       H'9E,H'18,H'07,H'88,H'7A,H'01,H'E0,H'06,H'18,H'20,H'1E,H'7C,H'7F,H'00,H'01,H'FC,
             1E01800783 +                       H'3E,H'18,H'07,H'88
             FC3F83E18F   
             BFEFFFFFFC   
             FA1C018007   
             01F81F01E1   
             87BFCFFFFF   
             FEFA180180   
             0600F00E00   
             E187BFDFFF   
             FFFEFA1801   
             8006006006   
             00E187BFDF   
             FFFFFEFA18   
             7FF87E1861   
             861FE187BF   
             9FFFFFFEFA   
             187F887A18   
             618618218F   
             BFBFFFFFFE   
             FA1807887A   
             0061861820   
             1F3F3FE07F   
             FEC2180788   
             7A00E18618   
             201E7F7F80   
             0FFE9E1807   
             887A01E006   
             18201E7C7F   
             0001FC3E18   
             0788         
    00000B8E 7A03E00618             .DATA.B     H'7A,H'03,H'E0,H'06,H'18,H'20,H'1F,H'31,H'FF,H'00,H'00,H'7D,H'7E,H'18,H'7F,H'88,
             201F31FF00 +                       H'7A,H'1F,H'A0,H'06,H'18,H'21,H'8F,H'A7,H'3F,H'07,H'80,H'05,H'FE,H'18,H'7F,H'E8,
             007D7E187F +                       H'7A,H'1E,H'20,H'06,H'1F,H'E1,H'87,H'8D,H'BF,H'80,H'E0,H'05,H'80,H'18,H'01,H'E8,
             887A1FA006 +                       H'7A,H'1E,H'21,H'86,H'00,H'E1,H'87,H'B7,H'3F,H'0F,H'30,H'F5,H'80,H'18,H'01,H'E8,
             18218FA73F +                       H'7A,H'1E,H'21,H'86,H'00,H'E1,H'87,H'FC,H'3E,H'17,H'91,H'05,H'C0,H'3C,H'01,H'E8,
             078005FE18 +                       H'7A,H'1E,H'21,H'87,H'01,H'E1,H'87,H'F0,H'FE,H'13,H'40,H'7D,H'60,H'76,H'01,H'C8,
             7FE87A1E20 +                       H'72,H'1C,H'21,H'87,H'83,H'E1,H'8F,H'01,H'FE,H'13,H'40,H'E9,H'3F,H'E3,H'FF,H'8F,
             061FE1878D +                       H'E3,H'F8,H'3F,H'FE,H'FF,H'BF,H'FE,H'01,H'1E,H'15,H'40,H'6B,H'80,H'00,H'00,H'00,
             BF80E00580 +                       H'00,H'00,H'00,H'00,H'00,H'00,H'0A,H'01,H'0E,H'17,H'44,H'AB,H'FC,H'FD,H'FC,H'3C,
             1801E87A1E +                       H'3E,H'7F,H'0F,H'FF,H'C1,H'FF,H'8F,H'03,H'6E,H'0F,H'82,H'EB,H'F9,H'FF,H'FE,H'7E,
             218600E187 +                       H'7F,H'FF,H'9F,H'FF,H'E3,H'FF,H'CD,H'87,H'26,H'00,H'02,H'7B,H'FB,H'FF,H'FF,H'FF,




SH SERIES C/C++ Compiler (Ver. 6.0C)                                                                 30-Jan-2015 21:53:33  PAGE   46


SCT OFFSET   CODE       C LABEL     INSTRUCTION OPERAND    COMMENT

             B73F0F30F5 +                       H'FF,H'FF,H'FF,H'FF,H'FF,H'FF,H'ED,H'C7,H'20,H'00,H'0C,H'0B,H'FB,H'FF,H'FF,H'FF,
             801801E87A +                       H'FF,H'FF,H'FF,H'FF,H'FF,H'FF,H'ED,H'7F,H'84,H'03,H'00,H'0B,H'FA,H'1E,H'07,H'87,
             1E218600E1 +                       H'87,H'81,H'E1,H'80
             87FC3E1791   
             05C03C01E8   
             7A1E218701   
             E187F0FE13   
             407D607601   
             C8721C2187   
             83E18F01FE   
             1340E93FE3   
             FF8FE3F83F   
             FEFFBFFE01   
             1E15406B80   
             0000000000   
             000000000A   
             010E1744AB   
             FCFDFC3C3E   
             7F0FFFC1FF   
             8F036E0F82   
             EBF9FFFE7E   
             7FFF9FFFE3   
             FFCD872600   
             027BFBFFFF   
             FFFFFFFFFF   
             FFFFEDC720   
             000C0BFBFF   
             FFFFFFFFFF   
             FFFFFFED7F   
             8403000BFA   
             1E07878781   
             E180         
    00000C62 7E01ED5FE4             .DATA.B     H'7E,H'01,H'ED,H'5F,H'E4,H'02,H'FF,H'0B,H'FA,H'1C,H'03,H'87,H'87,H'00,H'E1,H'80,
             02FF0BFA1C +                       H'3C,H'01,H'E5,H'5F,H'FC,H'02,H'00,H'8B,H'FA,H'18,H'01,H'87,H'86,H'00,H'61,H'80,
             03878700E1 +                       H'18,H'01,H'E3,H'5F,H'F6,H'03,H'FF,H'8B,H'FA,H'18,H'01,H'83,H'06,H'00,H'61,H'80,
             803C01E55F +                       H'18,H'01,H'C9,H'DF,H'EE,H'02,H'00,H'93,H'FA,H'18,H'61,H'80,H'06,H'18,H'61,H'86,
             FC02008BFA +                       H'18,H'7F,H'9C,H'7F,H'DF,H'81,H'FF,H'27,H'FA,H'18,H'61,H'C0,H'0E,H'18,H'61,H'86,
             1801878600 +                       H'18,H'7F,H'BF,H'3F,H'BF,H'E0,H'00,H'4F,H'FA,H'18,H'61,H'E0,H'1A,H'00,H'61,H'86,
             61801801E3 +                       H'18,H'07,H'BF,H'BF,H'7F,H'F8,H'00,H'DF,H'82,H'18,H'61,H'F0,H'3A,H'00,H'61,H'86,
             5FF603FF8B +                       H'18,H'07,H'BF,H'BF,H'CF,H'FF,H'FF,H'DF,H'3E,H'18,H'61,H'F8,H'7A,H'01,H'E1,H'86,
             FA18018306 +                       H'18,H'07,H'BF,H'3E,H'47,H'FA,H'1F,H'DF,H'7E,H'18,H'61,H'E8,H'7A,H'00,H'E1,H'86,
             0061801801 +                       H'18,H'07,H'BF,H'7E,H'47,H'F9,H'FF,H'DF,H'FE,H'18,H'61,H'E8,H'7A,H'00,H'61,H'86,
             C9DFEE0200 +                       H'18,H'7F,H'8F,H'7F,H'47,H'F9,H'5F,H'DF,H'FE,H'18,H'61,H'E8,H'7A,H'00,H'61,H'86,
             93FA186180 +                       H'18,H'7F,H'EE,H'7F,H'47,H'FE,H'9E,H'5F,H'80,H'18,H'01,H'E8,H'7A,H'18,H'61,H'80,
             0618618618 +                       H'18,H'01,H'EE,H'FF,H'43,H'F8,H'9E,H'4F,H'80,H'18,H'01,H'E8,H'7A,H'18,H'61,H'80,
             7F9C7FDF81 +                       H'18,H'01,H'EE,H'FF
             FF27FA1861   
             C00E186186   
             187FBF3FBF   
             E0004FFA18   
             61E01A0061   
             861807BFBF   
             7FF800DF82   
             1861F03A00   
             61861807BF   
             BFCFFFFFDF   
             3E1861F87A   




SH SERIES C/C++ Compiler (Ver. 6.0C)                                                                 30-Jan-2015 21:53:33  PAGE   47


SCT OFFSET   CODE       C LABEL     INSTRUCTION OPERAND    COMMENT

             01E1861807   
             BF3E47FA1F   
             DF7E1861E8   
             7A00E18618   
             07BF7E47F9   
             FFDFFE1861   
             E87A006186   
             187F8F7F47   
             F95FDFFE18   
             61E87A0061   
             86187FEE7F   
             47FE9E5F80   
             1801E87A18   
             61801801EE   
             FF43F89E4F   
             801801E87A   
             1861801801   
             EEFF         
    00000D36 43F99E6FC0             .DATA.B     H'43,H'F9,H'9E,H'6F,H'C0,H'3C,H'03,H'C8,H'7A,H'18,H'61,H'80,H'3C,H'01,H'EE,H'FF,
             3C03C87A18 +                       H'44,H'F9,H'1C,H'27,H'60,H'76,H'07,H'88,H'72,H'18,H'61,H'80,H'76,H'01,H'CE,H'FF,
             61803C01EE +                       H'46,H'FB,H'1C,H'F7,H'3F,H'E3,H'FF,H'0F,H'E3,H'FF,H'FF,H'FF,H'E3,H'FF,H'9C,H'FF,
             FF44F91C27 +                       H'42,H'FE,H'FE,H'97,H'00,H'00,H'00,H'00,H'00,H'00,H'00,H'00,H'08,H'00,H'3D,H'FF,
             6076078872 +                       H'D3,H'F9,H'FE,H'F7,H'FF,H'FF,H'FF,H'FE,H'7D,H'F7,H'CF,H'FF,H'FF,H'FF,H'FD,H'FF,
             1861807601 +                       H'D3,H'FF,H'FA,H'17,H'FF,H'FF,H'FF,H'FE,H'C7,H'1C,H'6F,H'FF,H'FF,H'FF,H'FD,H'7F,
             CEFF46FB1C +                       H'F7,H'FF,H'E2,H'D7,H'FF,H'FF,H'FF,H'FE,H'82,H'08,H'2F,H'FF,H'FF,H'FF,H'FD,H'3F,
             F73FE3FF0F +                       H'DF,H'FF,H'F3,H'37,H'FF,H'FF,H'FF,H'FE,H'92,H'49,H'2F,H'FF,H'FF,H'FF,H'FD,H'2F,
             E3FFFFFFE3 +                       H'C7,H'FF,H'E1,H'E7,H'FF,H'FF,H'FF,H'FE,H'82,H'48,H'2F,H'FF,H'FF,H'FF,H'FD,H'28,
             FF9CFF42FE +                       H'47,H'AE,H'E4,H'0F,H'FF,H'FF,H'FF,H'FE,H'86,H'08,H'6F,H'FF,H'FF,H'FF,H'FC,H'EB,
             FE97000000 +                       H'50,H'2A,H'CF,H'FF,H'FF,H'FF,H'FF,H'FE,H'9E,H'08,H'2F,H'FF,H'FF,H'FF,H'FC,H'7D,
             0000000000 +                       H'DF,H'AA,H'CF,H'FF,H'FF,H'FF,H'FF,H'FE,H'9E,H'49,H'2F,H'FF,H'FF,H'FF,H'FC,H'47,
             08003DFFD3 +                       H'DF,H'BF,H'CF,H'FF,H'FF,H'FF,H'FF,H'FE,H'9E,H'49,H'2F,H'FF,H'FF,H'FF,H'FD,H'54,
             F9FEF7FFFF +                       H'9F,H'85,H'4F,H'FF
             FFFE7DF7CF   
             FFFFFFFDFF   
             D3FFFA17FF   
             FFFFFEC71C   
             6FFFFFFFFD   
             7FF7FFE2D7   
             FFFFFFFE82   
             082FFFFFFF   
             FD3FDFFFF3   
             37FFFFFFFE   
             92492FFFFF   
             FFFD2FC7FF   
             E1E7FFFFFF   
             FE82482FFF   
             FFFFFD2847   
             AEE40FFFFF   
             FFFE86086F   
             FFFFFFFCEB   
             502ACFFFFF   
             FFFFFE9E08   
             2FFFFFFFFC   
             7DDFAACFFF   
             FFFFFFFE9E   
             492FFFFFFF   
             FC47DFBFCF   




SH SERIES C/C++ Compiler (Ver. 6.0C)                                                                 30-Jan-2015 21:53:33  PAGE   48


SCT OFFSET   CODE       C LABEL     INSTRUCTION OPERAND    COMMENT

             FFFFFFFFFE   
             9E492FFFFF   
             FFFD549F85   
             4FFF         
    00000E0A FFC00000FF             .DATA.B     H'FF,H'C0,H'00,H'00,H'FF,H'FF,H'E0,H'00,H'00,H'07,H'FD,H'10,H'BF,H'85,H'0F,H'FF,
             FFE0000007 +                       H'FF,H'9F,H'7D,H'F6,H'FF,H'FF,H'F6,H'DF,H'7D,H'F3,H'FD,H'14,H'3F,H'A0,H'0F,H'FF,
             FD10BF850F +                       H'FF,H'A1,H'C7,H'19,H'31,H'9F,H'09,H'20,H'82,H'0B,H'FD,H'14,H'3F,H'A8,H'2F,H'FF,
             FFFF9F7DF6 +                       H'FF,H'A0,H'82,H'09,H'20,H'9E,H'09,H'20,H'82,H'0B,H'FC,H'44,H'3F,H'A0,H'2F,H'FF,
             FFFFF6DF7D +                       H'FF,H'A4,H'92,H'49,H'24,H'9E,H'78,H'24,H'93,H'CB,H'FC,H'05,H'3F,H'AA,H'4F,H'FF,
             F3FD143FA0 +                       H'FF,H'A4,H'82,H'48,H'64,H'9E,H'1C,H'64,H'93,H'CB,H'FC,H'05,H'3F,H'8A,H'0F,H'FF,
             0FFFFFA1C7 +                       H'FF,H'A4,H'86,H'08,H'60,H'9E,H'1C,H'64,H'93,H'CB,H'FC,H'85,H'3F,H'8A,H'4F,H'FF,
             19319F0920 +                       H'FF,H'A4,H'82,H'09,H'20,H'9E,H'78,H'24,H'93,H'CB,H'FC,H'91,H'3F,H'88,H'0F,H'FF,
             820BFD143F +                       H'FF,H'A0,H'92,H'49,H'24,H'82,H'09,H'20,H'83,H'CB,H'FC,H'20,H'3F,H'84,H'0F,H'FF,
             A82FFFFFA0 +                       H'FF,H'A1,H'92,H'49,H'24,H'C3,H'09,H'20,H'83,H'CB,H'FC,H'20,H'3F,H'89,H'0F,H'FF,
             8209209E09 +                       H'FF,H'9F,H'6D,H'B6,H'DB,H'7D,H'F6,H'DF,H'7D,H'B3,H'FC,H'00,H'3F,H'88,H'AF,H'FF
             20820BFC44   
             3FA02FFFFF   
             A49249249E   
             782493CBFC   
             053FAA4FFF   
             FFA4824864   
             9E1C6493CB   
             FC053F8A0F   
             FFFFA48608   
             609E1C6493   
             CBFC853F8A   
             4FFFFFA482   
             09209E7824   
             93CBFC913F   
             880FFFFFA0   
             9249248209   
             2083CBFC20   
             3F840FFFFF   
             A1924924C3   
             092083CBFC   
             203F890FFF   
             FF9F6DB6DB   
             7DF6DF7DB3   
             FC003F88AF   
             FF           
    00000EBA              __$menu:                         ; static: menu
    00000EBA FFFFFFFFFF             .DATA.B     H'FF,H'FF,H'FF,H'FF,H'FF,H'FF,H'FF,H'FF,H'FF,H'FF,H'FF,H'FF,H'FF,H'FF,H'FF,H'FF,
             FFFFFFFFFF +                       H'FF,H'FF,H'FF,H'FF,H'FF,H'FF,H'FF,H'FF,H'FF,H'3F,H'FF,H'FF,H'FF,H'FF,H'FF,H'FF,
             FFFFFFFFFF +                       H'FF,H'FF,H'FF,H'FF,H'F3,H'E3,H'E3,H'3E,H'3F,H'31,H'93,H'1F,H'FF,H'FF,H'FF,H'FF,
             FFFFFFFFFF +                       H'FF,H'FF,H'FF,H'FF,H'F3,H'C1,H'C1,H'3C,H'13,H'20,H'92,H'1F,H'FF,H'FF,H'FF,H'FF,
             FFFFFFFFFF +                       H'FF,H'FF,H'FF,H'FF,H'F3,H'C9,H'C9,H'3C,H'91,H'20,H'92,H'7F,H'FF,H'FF,H'FF,H'FF,
             3FFFFFFFFF +                       H'FF,H'FF,H'FF,H'FF,H'F3,H'C9,H'C1,H'3C,H'90,H'24,H'92,H'3F,H'FF,H'FF,H'FF,H'FF,
             FFFFFFFFFF +                       H'FF,H'FF,H'FF,H'FF,H'F3,H'C1,H'C3,H'3C,H'10,H'24,H'92,H'3F,H'FF,H'FF,H'FF,H'FF,
             FFF3E3E33E +                       H'FF,H'FF,H'FF,H'FF,H'F3,H'C1,H'CF,H'3C,H'12,H'20,H'92,H'7F,H'FF,H'FF,H'FF,H'FF,
             3F31931FFF +                       H'00,H'00,H'00,H'03,H'F0,H'49,H'CF,H'04,H'93,H'20,H'82,H'1F,H'C0,H'00,H'00,H'00,
             FFFFFFFFFF +                       H'00,H'00,H'00,H'01,H'F8,H'49,H'CF,H'84,H'93,H'F0,H'C7,H'1F,H'80,H'00,H'00,H'00,
             FFFFF3C1C1 +                       H'00,H'00,H'00,H'00,H'FF,H'FF,H'FF,H'FF,H'F3,H'FC,H'7F,H'FF,H'00,H'00,H'00,H'00,
             3C1320921F +                       H'00,H'00,H'00,H'00,H'7F,H'FF,H'FF,H'FF,H'FF,H'FF,H'FF,H'FE,H'00,H'00,H'00,H'00,
             FFFFFFFFFF +                       H'00,H'00,H'00,H'00,H'00,H'00,H'00,H'00,H'00,H'00,H'00,H'00,H'00,H'00,H'00,H'00,
             FFFFFFF3C9 +                       H'00,H'00,H'00,H'00
             C93C912092   
             7FFFFFFFFF   




SH SERIES C/C++ Compiler (Ver. 6.0C)                                                                 30-Jan-2015 21:53:33  PAGE   49


SCT OFFSET   CODE       C LABEL     INSTRUCTION OPERAND    COMMENT

             FFFFFFFFF3   
             C9C13C9024   
             923FFFFFFF   
             FFFFFFFFFF   
             F3C1C33C10   
             24923FFFFF   
             FFFFFFFFFF   
             FFF3C1CF3C   
             1220927FFF   
             FFFFFF0000   
             0003F049CF   
             049320821F   
             C000000000   
             000001F849   
             CF8493F0C7   
             1F80000000   
             00000000FF   
             FFFFFFF3FC   
             7FFF000000   
             0000000000   
             7FFFFFFFFF   
             FFFFFE0000   
             0000000000   
             0000000000   
             0000000000   
             0000000000   
             0000         
    00000F8E 0000000000             .DATA.B     H'00,H'00,H'00,H'00,H'00,H'00,H'00,H'00,H'00,H'00,H'00,H'00,H'00,H'00,H'00,H'00,
             0000000000 +                       H'00,H'00,H'00,H'00,H'00,H'00,H'00,H'00,H'00,H'00,H'00,H'00,H'00,H'00,H'00,H'00,
             0000000000 +                       H'00,H'00,H'00,H'00,H'00,H'00,H'00,H'00,H'00,H'00,H'00,H'00,H'00,H'00,H'00,H'00,
             0000000000 +                       H'00,H'00,H'00,H'00,H'00,H'00,H'00,H'00,H'00,H'00,H'00,H'00,H'00,H'7F,H'FF,H'F8,
             0000000000 +                       H'01,H'FF,H'FF,H'E0,H'07,H'FF,H'FF,H'80,H'1F,H'FF,H'FE,H'00,H'00,H'40,H'00,H'08,
             0000000000 +                       H'01,H'00,H'00,H'20,H'04,H'00,H'00,H'80,H'10,H'00,H'02,H'00,H'00,H'40,H'00,H'08,
             0000000000 +                       H'01,H'0C,H'0C,H'20,H'04,H'38,H'70,H'80,H'10,H'00,H'02,H'00,H'00,H'47,H'87,H'88,
             0000000000 +                       H'01,H'12,H'12,H'20,H'04,H'44,H'88,H'80,H'10,H'00,H'02,H'00,H'00,H'4C,H'CC,H'C8,
             0000000000 +                       H'01,H'21,H'21,H'20,H'04,H'48,H'48,H'80,H'10,H'00,H'02,H'00,H'00,H'50,H'78,H'28,
             0000000000 +                       H'01,H'21,H'21,H'20,H'04,H'48,H'48,H'80,H'10,H'10,H'02,H'00,H'00,H'50,H'00,H'28,
             0000000000 +                       H'01,H'21,H'21,H'20,H'04,H'44,H'88,H'80,H'13,H'FF,H'F2,H'00,H'00,H'4F,H'03,H'C8,
             0000000000 +                       H'01,H'21,H'E1,H'20,H'04,H'23,H'10,H'80,H'10,H'10,H'02,H'00,H'00,H'41,H'02,H'08,
             007FFFF801 +                       H'01,H'21,H'21,H'20,H'04,H'18,H'60,H'80,H'10,H'00,H'02,H'00,H'00,H'41,H'02,H'08,
             FFFFE007FF +                       H'01,H'21,H'21,H'20
             FF801FFFFE   
             0000400008   
             0100002004   
             0000801000   
             0200004000   
             08010C0C20   
             0438708010   
             0002000047   
             8788011212   
             2004448880   
             1000020000   
             4CCCC80121   
             2120044848   
             8010000200   
             0050782801   
             2121200448   




SH SERIES C/C++ Compiler (Ver. 6.0C)                                                                 30-Jan-2015 21:53:33  PAGE   50


SCT OFFSET   CODE       C LABEL     INSTRUCTION OPERAND    COMMENT

             4880101002   
             0000500028   
             0121212004   
             44888013FF   
             F200004F03   
             C80121E120   
             0423108010   
             1002000041   
             0208012121   
             2004186080   
             1000020000   
             4102080121   
             2120         
    00001062 0404808010             .DATA.B     H'04,H'04,H'80,H'80,H'10,H'00,H'42,H'00,H'00,H'41,H'02,H'08,H'01,H'21,H'21,H'20,
             0042000041 +                       H'04,H'04,H'80,H'80,H'13,H'FF,H'F2,H'00,H'00,H'41,H'02,H'08,H'01,H'21,H'21,H'20,
             0208012121 +                       H'04,H'04,H'80,H'80,H'10,H'00,H'42,H'00,H'00,H'41,H'02,H'08,H'01,H'21,H'21,H'20,
             2004048080 +                       H'04,H'04,H'80,H'80,H'10,H'00,H'02,H'00,H'00,H'41,H'02,H'08,H'01,H'3F,H'3F,H'20,
             13FFF20000 +                       H'04,H'04,H'80,H'80,H'11,H'00,H'02,H'00,H'00,H'41,H'02,H'08,H'01,H'1E,H'1E,H'20,
             4102080121 +                       H'04,H'04,H'80,H'80,H'13,H'FF,H'F2,H'00,H'00,H'41,H'86,H'08,H'01,H'0C,H'0C,H'20,
             2120040480 +                       H'04,H'04,H'80,H'80,H'11,H'00,H'02,H'00,H'00,H'40,H'FC,H'08,H'01,H'0C,H'0C,H'20,
             8010004200 +                       H'04,H'04,H'80,H'80,H'10,H'00,H'02,H'00,H'00,H'40,H'00,H'08,H'01,H'0C,H'0C,H'20,
             0041020801 +                       H'04,H'03,H'00,H'80,H'10,H'00,H'02,H'00,H'00,H'40,H'00,H'08,H'01,H'00,H'00,H'20,
             2121200404 +                       H'04,H'00,H'00,H'80,H'10,H'00,H'02,H'00,H'00,H'7F,H'FF,H'F8,H'01,H'FF,H'FF,H'E0,
             8080100002 +                       H'07,H'FF,H'FF,H'80,H'1F,H'FF,H'FE,H'00,H'00,H'00,H'00,H'00,H'00,H'00,H'00,H'00,
             0000410208 +                       H'00,H'00,H'00,H'00,H'00,H'00,H'00,H'00,H'00,H'00,H'00,H'00,H'00,H'00,H'00,H'00,
             013F3F2004 +                       H'00,H'00,H'00,H'00,H'00,H'00,H'00,H'00,H'00,H'00,H'00,H'00,H'00,H'00,H'00,H'00,
             0480801100 +                       H'00,H'00,H'00,H'00
             0200004102   
             08011E1E20   
             0404808013   
             FFF2000041   
             8608010C0C   
             2004048080   
             1100020000   
             40FC08010C   
             0C20040480   
             8010000200   
             0040000801   
             0C0C200403   
             0080100002   
             0000400008   
             0100002004   
             0000801000   
             0200007FFF   
             F801FFFFE0   
             07FFFF801F   
             FFFE000000   
             0000000000   
             0000000000   
             0000000000   
             0000000000   
             0000000000   
             0000000000   
             0000000000   
             0000000000   
             0000         
    00001136 0000000000             .DATA.B     H'00,H'00,H'00,H'00,H'00,H'00,H'00,H'00,H'00,H'00,H'00,H'00,H'00,H'00,H'00,H'00,




SH SERIES C/C++ Compiler (Ver. 6.0C)                                                                 30-Jan-2015 21:53:33  PAGE   51


SCT OFFSET   CODE       C LABEL     INSTRUCTION OPERAND    COMMENT

             0000000000 +                       H'00,H'00,H'00,H'00,H'00,H'7F,H'FF,H'F8,H'01,H'FF,H'FF,H'E0,H'07,H'FF,H'FF,H'80,
             0000000000 +                       H'1F,H'FF,H'FE,H'00,H'00,H'40,H'00,H'08,H'01,H'00,H'00,H'20,H'04,H'00,H'00,H'80,
             0000000000 +                       H'10,H'00,H'02,H'00,H'00,H'40,H'00,H'08,H'01,H'00,H'00,H'20,H'04,H'00,H'00,H'80,
             007FFFF801 +                       H'17,H'54,H'AA,H'00,H'00,H'40,H'04,H'08,H'01,H'00,H'00,H'20,H'04,H'00,H'00,H'80,
             FFFFE007FF +                       H'15,H'56,H'AA,H'00,H'00,H'40,H'04,H'08,H'01,H'00,H'00,H'20,H'04,H'FF,H'FC,H'80,
             FF801FFFFE +                       H'17,H'55,H'AA,H'00,H'00,H'41,H'C4,H'08,H'01,H'00,H'18,H'20,H'04,H'9F,H'E4,H'80,
             0000400008 +                       H'16,H'54,H'82,H'00,H'00,H'43,H'FF,H'08,H'01,H'00,H'18,H'20,H'04,H'5F,H'E8,H'80,
             0100002004 +                       H'15,H'74,H'AA,H'00,H'00,H'42,H'01,H'08,H'01,H'00,H'18,H'20,H'04,H'3F,H'F0,H'80,
             0000801000 +                       H'10,H'00,H'02,H'00,H'00,H'42,H'31,H'08,H'01,H'06,H'18,H'20,H'04,H'0F,H'C0,H'80,
             0200004000 +                       H'10,H'00,H'02,H'00,H'00,H'42,H'49,H'08,H'01,H'06,H'18,H'20,H'04,H'07,H'80,H'80,
             0801000020 +                       H'10,H'03,H'02,H'00,H'00,H'42,H'85,H'08,H'01,H'06,H'1B,H'20,H'04,H'03,H'00,H'80,
             0400008017 +                       H'10,H'03,H'82,H'00,H'00,H'42,H'85,H'08,H'01,H'06,H'1B,H'20,H'04,H'03,H'00,H'80,
             54AA000040 +                       H'11,H'FF,H'C2,H'00
             0408010000   
             2004000080   
             1556AA0000   
             4004080100   
             002004FFFC   
             801755AA00   
             0041C40801   
             001820049F   
             E480165482   
             000043FF08   
             0100182004   
             5FE8801574   
             AA00004201   
             0801001820   
             043FF08010   
             0002000042   
             3108010618   
             20040FC080   
             1000020000   
             4249080106   
             1820040780   
             8010030200   
             0042850801   
             061B200403   
             0080100382   
             0000428508   
             01061B2004   
             03008011FF   
             C200         
    0000120A 0042490801             .DATA.B     H'00,H'42,H'49,H'08,H'01,H'36,H'1B,H'20,H'04,H'03,H'00,H'80,H'11,H'FF,H'E2,H'00,
             361B200403 +                       H'00,H'42,H'31,H'08,H'01,H'36,H'1B,H'20,H'04,H'03,H'00,H'80,H'11,H'FF,H'E2,H'00,
             008011FFE2 +                       H'00,H'42,H'01,H'08,H'01,H'36,H'DB,H'20,H'04,H'0F,H'C0,H'80,H'11,H'FF,H'C2,H'00,
             0000423108 +                       H'00,H'43,H'FF,H'08,H'01,H'3F,H'FF,H'20,H'04,H'38,H'70,H'80,H'10,H'03,H'82,H'00,
             01361B2004 +                       H'00,H'40,H'00,H'08,H'01,H'00,H'00,H'20,H'04,H'3F,H'F0,H'80,H'10,H'03,H'02,H'00,
             03008011FF +                       H'00,H'40,H'00,H'08,H'01,H'00,H'00,H'20,H'04,H'00,H'00,H'80,H'10,H'00,H'02,H'00,
             E200004201 +                       H'00,H'40,H'00,H'08,H'01,H'00,H'00,H'20,H'04,H'00,H'00,H'80,H'10,H'00,H'02,H'00,
             080136DB20 +                       H'00,H'7F,H'FF,H'F8,H'01,H'FF,H'FF,H'E0,H'07,H'FF,H'FF,H'80,H'1F,H'FF,H'FE,H'00,
             040FC08011 +                       H'00,H'00,H'00,H'00,H'00,H'00,H'00,H'00,H'00,H'00,H'00,H'00,H'00,H'00,H'00,H'00,
             FFC2000043 +                       H'00,H'00,H'00,H'00,H'00,H'00,H'00,H'00,H'00,H'00,H'00,H'00,H'00,H'00,H'00,H'00,
             FF08013FFF +                       H'00,H'00,H'00,H'00,H'00,H'00,H'00,H'00,H'00,H'00,H'00,H'00,H'00,H'00,H'00,H'00
             2004387080   
             1003820000   
             4000080100   
             0020043FF0   




SH SERIES C/C++ Compiler (Ver. 6.0C)                                                                 30-Jan-2015 21:53:33  PAGE   52


SCT OFFSET   CODE       C LABEL     INSTRUCTION OPERAND    COMMENT

             8010030200   
             0040000801   
             0000200400   
             0080100002   
             0000400008   
             0100002004   
             0000801000   
             0200007FFF   
             F801FFFFE0   
             07FFFF801F   
             FFFE000000   
             0000000000   
             0000000000   
             0000000000   
             0000000000   
             0000000000   
             0000000000   
             0000000000   
             0000000000   
             0000000000   
             00           
    000012BA              __$menuMort:                     ; static: menuMort
    000012BA FFFFFFFFFF             .DATA.B     H'FF,H'FF,H'FF,H'FF,H'FF,H'FF,H'FF,H'FF,H'FF,H'FF,H'FF,H'FF,H'FF,H'FF,H'FF,H'FF,
             FFFFFFFFFF +                       H'FF,H'FF,H'FF,H'FF,H'FF,H'FF,H'FF,H'FF,H'FF,H'FF,H'FF,H'FF,H'FF,H'FF,H'FF,H'FF,
             FFFFFFFFFF +                       H'FF,H'FF,H'FF,H'FF,H'FF,H'FF,H'FF,H'FF,H'FF,H'FF,H'FF,H'FF,H'FF,H'FF,H'FF,H'FF,
             FFFFFFFFFF +                       H'E0,H'00,H'00,H'00,H'00,H'00,H'00,H'00,H'00,H'00,H'00,H'00,H'00,H'00,H'00,H'07,
             FFFFFFFFFF +                       H'E0,H'00,H'00,H'00,H'00,H'00,H'00,H'00,H'00,H'3F,H'FC,H'03,H'FF,H'C0,H'00,H'07,
             FFFFFFFFFF +                       H'E0,H'00,H'00,H'00,H'00,H'00,H'00,H'00,H'00,H'40,H'02,H'04,H'00,H'20,H'00,H'07,
             FFFFFFFFFF +                       H'E0,H'00,H'00,H'00,H'00,H'00,H'00,H'00,H'00,H'80,H'01,H'08,H'00,H'10,H'00,H'07,
             FFFFFFFFFF +                       H'E0,H'00,H'00,H'00,H'00,H'00,H'00,H'00,H'00,H'80,H'01,H'08,H'00,H'10,H'00,H'07,
             FFFFFFFFFF +                       H'E0,H'03,H'8E,H'38,H'E3,H'C0,H'00,H'00,H'00,H'80,H'01,H'08,H'00,H'10,H'00,H'07,
             FFFFFFE000 +                       H'E0,H'07,H'DF,H'7D,H'F7,H'C0,H'00,H'00,H'00,H'80,H'01,H'08,H'00,H'10,H'00,H'07,
             0000000000 +                       H'E0,H'06,H'18,H'7D,H'B6,H'00,H'00,H'00,H'00,H'80,H'01,H'08,H'00,H'10,H'00,H'07,
             0000000000 +                       H'E0,H'07,H'98,H'6D,H'F7,H'98,H'00,H'00,H'00,H'80,H'01,H'08,H'00,H'10,H'00,H'07,
             00000007E0 +                       H'E0,H'03,H'D8,H'6D,H'E7,H'98,H'00,H'00,H'00,H'80,H'01,H'08,H'00,H'10,H'00,H'07,
             0000000000 +                       H'E0,H'00,H'D8,H'7D
             0000003FFC   
             03FFC00007   
             E000000000   
             0000000040   
             0204002000   
             07E0000000   
             0000000000   
             8001080010   
             0007E00000   
             0000000000   
             0080010800   
             100007E003   
             8E38E3C000   
             0000800108   
             00100007E0   
             07DF7DF7C0   
             0000008001   
             0800100007   
             E006187DB6   
             0000000080   
             0108001000   




SH SERIES C/C++ Compiler (Ver. 6.0C)                                                                 30-Jan-2015 21:53:33  PAGE   53


SCT OFFSET   CODE       C LABEL     INSTRUCTION OPERAND    COMMENT

             07E007986D   
             F798000000   
             8001080010   
             0007E003D8   
             6DE7980000   
             0080010800   
             100007E000   
             D87D         
    0000138E F600000000             .DATA.B     H'F6,H'00,H'00,H'00,H'00,H'80,H'01,H'08,H'00,H'10,H'00,H'07,H'E0,H'07,H'DF,H'7D,
             8001080010 +                       H'B7,H'D8,H'00,H'00,H'00,H'80,H'01,H'08,H'00,H'10,H'00,H'07,H'E0,H'03,H'8E,H'39,
             0007E007DF +                       H'B3,H'D8,H'00,H'00,H'00,H'80,H'01,H'08,H'00,H'10,H'00,H'07,H'E0,H'00,H'00,H'00,
             7DB7D80000 +                       H'00,H'00,H'00,H'00,H'00,H'80,H'01,H'08,H'00,H'10,H'00,H'07,H'E0,H'00,H'00,H'00,
             0080010800 +                       H'00,H'00,H'00,H'00,H'00,H'80,H'01,H'08,H'00,H'10,H'00,H'07,H'E0,H'00,H'00,H'00,
             100007E003 +                       H'00,H'00,H'00,H'00,H'00,H'40,H'02,H'04,H'00,H'20,H'00,H'07,H'E0,H'00,H'00,H'00,
             8E39B3D800 +                       H'00,H'00,H'00,H'00,H'00,H'3F,H'FC,H'03,H'FF,H'C0,H'00,H'07,H'E0,H'00,H'00,H'00,
             0000800108 +                       H'00,H'00,H'00,H'00,H'00,H'00,H'00,H'00,H'00,H'00,H'00,H'07,H'E0,H'00,H'00,H'00,
             00100007E0 +                       H'00,H'00,H'00,H'00,H'00,H'00,H'00,H'00,H'00,H'00,H'00,H'07,H'E0,H'00,H'00,H'00,
             0000000000 +                       H'00,H'00,H'00,H'00,H'00,H'1C,H'CE,H'3B,H'FE,H'E0,H'00,H'07,H'E0,H'00,H'00,H'00,
             0000008001 +                       H'00,H'00,H'00,H'00,H'00,H'21,H'29,H'42,H'09,H'00,H'00,H'07,H'E0,H'00,H'00,H'00,
             0800100007 +                       H'00,H'00,H'00,H'00,H'00,H'21,H'E9,H'43,H'88,H'C0,H'00,H'07,H'E0,H'00,H'00,H'00,
             E000000000 +                       H'00,H'00,H'00,H'00,H'00,H'25,H'29,H'4A,H'08,H'20,H'00,H'07,H'E0,H'00,H'00,H'00,
             0000000080 +                       H'00,H'00,H'00,H'00
             0108001000   
             07E0000000   
             0000000000   
             4002040020   
             0007E00000   
             0000000000   
             003FFC03FF   
             C00007E000   
             0000000000   
             0000000000   
             00000007E0   
             0000000000   
             0000000000   
             0000000007   
             E000000000   
             000000001C   
             CE3BFEE000   
             07E0000000   
             0000000000   
             2129420900   
             0007E00000   
             0000000000   
             0021E94388   
             C00007E000   
             0000000000   
             000025294A   
             08200007E0   
             0000000000   
             0000         
    00001462 001D2E3BC9             .DATA.B     H'00,H'1D,H'2E,H'3B,H'C9,H'C0,H'00,H'07,H'E0,H'00,H'00,H'00,H'00,H'00,H'00,H'00,
             C00007E000 +                       H'00,H'00,H'00,H'00,H'00,H'00,H'00,H'07,H'E0,H'00,H'00,H'00,H'00,H'00,H'00,H'00,
             0000000000 +                       H'00,H'00,H'00,H'00,H'00,H'00,H'00,H'07,H'E0,H'00,H'00,H'00,H'00,H'00,H'00,H'1F,
             0000000000 +                       H'FF,H'FF,H'FF,H'FF,H'FF,H'FF,H'FF,H'87,H'E0,H'00,H'00,H'00,H'00,H'00,H'00,H'10,
             00000007E0 +                       H'00,H'00,H'00,H'00,H'00,H'00,H'00,H'87,H'E0,H'00,H'00,H'00,H'00,H'00,H'00,H'10,
             0000000000 +                       H'00,H'00,H'00,H'00,H'00,H'00,H'00,H'87,H'E0,H'00,H'00,H'00,H'00,H'00,H'00,H'13,




SH SERIES C/C++ Compiler (Ver. 6.0C)                                                                 30-Jan-2015 21:53:33  PAGE   54


SCT OFFSET   CODE       C LABEL     INSTRUCTION OPERAND    COMMENT

             0000000000 +                       H'07,H'07,H'30,H'73,H'33,H'9B,H'3C,H'87,H'E0,H'00,H'00,H'00,H'00,H'00,H'00,H'13,
             0000000007 +                       H'0F,H'8F,H'B0,H'FB,H'37,H'DB,H'7C,H'87,H'E0,H'00,H'00,H'00,H'00,H'00,H'00,H'13,
             E000000000 +                       H'0D,H'8D,H'B0,H'DB,H'B7,H'DB,H'60,H'87,H'E0,H'00,H'00,H'00,H'00,H'00,H'00,H'13,
             00001FFFFF +                       H'0D,H'8F,H'B0,H'DB,H'F6,H'DB,H'78,H'87,H'E0,H'00,H'00,H'00,H'00,H'00,H'00,H'13,
             FFFFFFFFFF +                       H'0F,H'8F,H'30,H'FB,H'F6,H'DB,H'78,H'87,H'E0,H'00,H'00,H'00,H'00,H'00,H'00,H'13,
             87E0000000 +                       H'0F,H'8C,H'30,H'FB,H'77,H'DB,H'60,H'87,H'E0,H'00,H'00,H'00,H'00,H'00,H'00,H'13,
             0000001000 +                       H'ED,H'8C,H'3E,H'DB,H'37,H'DF,H'7C,H'87,H'E0,H'00,H'00,H'00,H'00,H'00,H'00,H'11,
             0000000000 +                       H'ED,H'8C,H'1E,H'DB
             0087E00000   
             0000000010   
             0000000000   
             000087E000   
             0000000000   
             1307073073   
             339B3C87E0   
             0000000000   
             00130F8FB0   
             FB37DB7C87   
             E000000000   
             0000130D8D   
             B0DBB7DB60   
             87E0000000   
             000000130D   
             8FB0DBF6DB   
             7887E00000   
             0000000013   
             0F8F30FBF6   
             DB7887E000   
             0000000000   
             130F8C30FB   
             77DB6087E0   
             0000000000   
             0013ED8C3E   
             DB37DF7C87   
             E000000000   
             000011ED8C   
             1EDB         
    00001536 33CE3C87E0             .DATA.B     H'33,H'CE,H'3C,H'87,H'E0,H'00,H'00,H'00,H'00,H'00,H'00,H'10,H'00,H'00,H'00,H'00,
             0000000000 +                       H'00,H'E0,H'00,H'87,H'E0,H'00,H'00,H'00,H'00,H'00,H'00,H'10,H'00,H'00,H'00,H'00,
             0010000000 +                       H'00,H'00,H'00,H'87,H'E0,H'00,H'00,H'00,H'00,H'00,H'00,H'1F,H'FF,H'FF,H'FF,H'FF,
             0000E00087 +                       H'FF,H'FF,H'FF,H'87,H'E0,H'00,H'00,H'00,H'00,H'00,H'00,H'00,H'00,H'00,H'00,H'00,
             E000000000 +                       H'00,H'00,H'00,H'07,H'E0,H'00,H'00,H'00,H'00,H'00,H'00,H'00,H'00,H'00,H'00,H'00,
             0000100000 +                       H'00,H'00,H'00,H'07,H'E0,H'00,H'00,H'00,H'00,H'00,H'00,H'00,H'00,H'00,H'00,H'00,
             0000000000 +                       H'00,H'00,H'00,H'07,H'E0,H'00,H'00,H'00,H'00,H'00,H'00,H'1F,H'FF,H'FF,H'FF,H'FF,
             87E0000000 +                       H'FF,H'FF,H'FF,H'87,H'E0,H'00,H'00,H'00,H'00,H'00,H'00,H'10,H'00,H'00,H'00,H'00,
             0000001FFF +                       H'00,H'00,H'00,H'87,H'E0,H'00,H'00,H'00,H'00,H'00,H'00,H'10,H'00,H'00,H'00,H'00,
             FFFFFFFFFF +                       H'00,H'00,H'00,H'87,H'E0,H'00,H'00,H'00,H'00,H'00,H'00,H'10,H'01,H'C7,H'86,H'73,
             FF87E00000 +                       H'67,H'9C,H'00,H'87,H'E0,H'00,H'00,H'00,H'00,H'00,H'00,H'10,H'03,H'EF,H'86,H'FB,
             0000000000 +                       H'6F,H'BE,H'00,H'87,H'E0,H'00,H'00,H'00,H'00,H'00,H'00,H'10,H'03,H'6C,H'06,H'FB,
             0000000000 +                       H'6C,H'36,H'00,H'87,H'E0,H'00,H'00,H'00,H'00,H'00,H'00,H'10,H'03,H'EF,H'06,H'DB,
             000007E000 +                       H'6F,H'3E,H'00,H'87
             0000000000   
             0000000000   
             00000007E0   
             0000000000   
             0000000000   
             0000000007   




SH SERIES C/C++ Compiler (Ver. 6.0C)                                                                 30-Jan-2015 21:53:33  PAGE   55


SCT OFFSET   CODE       C LABEL     INSTRUCTION OPERAND    COMMENT

             E000000000   
             00001FFFFF   
             FFFFFFFFFF   
             87E0000000   
             0000001000   
             0000000000   
             0087E00000   
             0000000010   
             0000000000   
             000087E000   
             0000000000   
             1001C78673   
             679C0087E0   
             0000000000   
             001003EF86   
             FB6FBE0087   
             E000000000   
             000010036C   
             06FB6C3600   
             87E0000000   
             0000001003   
             EF06DB6F3E   
             0087         
    0000160A E000000000             .DATA.B     H'E0,H'00,H'00,H'00,H'00,H'00,H'00,H'10,H'03,H'CF,H'06,H'DB,H'6F,H'3C,H'00,H'87,
             00001003CF +                       H'E0,H'00,H'00,H'00,H'00,H'00,H'00,H'10,H'03,H'EC,H'06,H'FB,H'6C,H'3E,H'00,H'87,
             06DB6F3C00 +                       H'E0,H'00,H'00,H'00,H'00,H'00,H'00,H'10,H'03,H'6F,H'BE,H'FB,H'EF,H'B6,H'00,H'87,
             87E0000000 +                       H'E0,H'00,H'00,H'00,H'00,H'00,H'00,H'10,H'03,H'67,H'9C,H'71,H'C7,H'B6,H'00,H'87,
             0000001003 +                       H'E0,H'00,H'00,H'00,H'00,H'00,H'00,H'10,H'00,H'00,H'00,H'00,H'00,H'00,H'00,H'87,
             EC06FB6C3E +                       H'E0,H'00,H'00,H'00,H'00,H'00,H'00,H'10,H'00,H'00,H'00,H'00,H'00,H'00,H'00,H'87,
             0087E00000 +                       H'E0,H'00,H'00,H'00,H'00,H'00,H'00,H'1F,H'FF,H'FF,H'FF,H'FF,H'FF,H'FF,H'FF,H'87,
             0000000010 +                       H'E0,H'00,H'00,H'00,H'00,H'00,H'00,H'00,H'00,H'00,H'00,H'00,H'00,H'00,H'00,H'07,
             036FBEFBEF +                       H'FF,H'FF,H'FF,H'FF,H'FF,H'FF,H'FF,H'FF,H'FF,H'FF,H'FF,H'FF,H'FF,H'FF,H'FF,H'FF,
             B60087E000 +                       H'FF,H'FF,H'FF,H'FF,H'FF,H'FF,H'FF,H'FF,H'FF,H'FF,H'FF,H'FF,H'FF,H'FF,H'FF,H'FF,
             0000000000 +                       H'FF,H'FF,H'FF,H'FF,H'FF,H'FF,H'FF,H'FF,H'FF,H'FF,H'FF,H'FF,H'FF,H'FF,H'FF,H'FF
             1003679C71   
             C7B60087E0   
             0000000000   
             0010000000   
             0000000087   
             E000000000   
             0000100000   
             0000000000   
             87E0000000   
             0000001FFF   
             FFFFFFFFFF   
             FF87E00000   
             0000000000   
             0000000000   
             000007FFFF   
             FFFFFFFFFF   
             FFFFFFFFFF   
             FFFFFFFFFF   
             FFFFFFFFFF   
             FFFFFFFFFF   
             FFFFFFFFFF   
             FFFFFFFFFF   
             FFFFFFFFFF   




SH SERIES C/C++ Compiler (Ver. 6.0C)                                                                 30-Jan-2015 21:53:33  PAGE   56


SCT OFFSET   CODE       C LABEL     INSTRUCTION OPERAND    COMMENT

             FFFFFFFFFF   
             FF           
    000016BA              __$gadgetTop:                    ; static: gadgetTop
    000016BA FFFFFFFFFF             .DATA.B     H'FF,H'FF,H'FF,H'FF,H'FF,H'FF,H'FF,H'FF,H'FF,H'FF,H'FF,H'FF,H'FF,H'FF,H'FF,H'FF,
             FFFFFFFFFF +                       H'FF,H'FF,H'FF,H'FF,H'FF,H'FF,H'FF,H'FF,H'FE,H'00,H'1C,H'00,H'3F,H'FF,H'FF,H'FF,
             FFFFFFFFFF +                       H'FF,H'FF,H'FF,H'FF,H'FF,H'FF,H'FF,H'FF,H'FC,H'00,H'08,H'00,H'1F,H'FF,H'FF,H'FF,
             FFFFFFFFFF +                       H'FF,H'FF,H'FF,H'F1,H'C6,H'1C,H'70,H'81,H'8C,H'00,H'08,H'00,H'1F,H'FF,H'FF,H'FF,
             FFFFFFFFFE +                       H'FF,H'FF,H'FF,H'E0,H'82,H'08,H'20,H'81,H'04,H'00,H'08,H'00,H'1F,H'FF,H'FF,H'FF,
             001C003FFF +                       H'FF,H'FF,H'FF,H'E7,H'92,H'49,H'E7,H'E7,H'3C,H'00,H'08,H'00,H'1F,H'FF,H'FF,H'FF,
             FFFFFFFFFF +                       H'FF,H'FF,H'FF,H'E7,H'92,H'49,H'E1,H'E7,H'0C,H'00,H'08,H'00,H'1F,H'FF,H'FF,H'FF,
             FFFFFFFFFF +                       H'FF,H'FF,H'FF,H'E4,H'82,H'49,H'21,H'E7,H'84,H'00,H'08,H'00,H'1F,H'FF,H'FF,H'FF,
             FC0008001F +                       H'FF,H'FF,H'FF,H'E4,H'82,H'49,H'27,H'E7,H'E4,H'00,H'08,H'00,H'1F,H'FF,H'FF,H'FF,
             FFFFFFFFFF +                       H'FF,H'FF,H'FF,H'E0,H'92,H'08,H'20,H'E7,H'04,H'00,H'08,H'00,H'1F,H'FF,H'FF,H'FF,
             FFF1C61C70 +                       H'00,H'00,H'00,H'F1,H'92,H'1C,H'70,H'E7,H'8C,H'00,H'08,H'00,H'1F,H'00,H'00,H'00,
             818C000800 +                       H'00,H'00,H'00,H'7F,H'FF,H'FF,H'FF,H'FF,H'FC,H'00,H'08,H'00,H'1E,H'00,H'00,H'00,
             1FFFFFFFFF +                       H'00,H'00,H'00,H'3F,H'FF,H'FF,H'FF,H'FF,H'FC,H'00,H'08,H'00,H'1C,H'00,H'00,H'00,
             FFFFE08208 +                       H'00,H'00,H'00,H'1F
             2081040008   
             001FFFFFFF   
             FFFFFFE792   
             49E7E73C00   
             08001FFFFF   
             FFFFFFFFE7   
             9249E1E70C   
             0008001FFF   
             FFFFFFFFFF   
             E4824921E7   
             840008001F   
             FFFFFFFFFF   
             FFE4824927   
             E7E4000800   
             1FFFFFFFFF   
             FFFFE09208   
             20E7040008   
             001FFFFFFF   
             000000F192   
             1C70E78C00   
             08001F0000   
             000000007F   
             FFFFFFFFFC   
             0008001E00   
             0000000000   
             3FFFFFFFFF   
             FC0008001C   
             0000000000   
             001F         
    0000178E FFFFFFFFFC             .DATA.B     H'FF,H'FF,H'FF,H'FF,H'FC,H'00,H'08,H'00,H'18,H'00,H'00,H'00,H'00,H'00,H'00,H'00,
             0008001800 +                       H'00,H'00,H'00,H'00,H'02,H'00,H'14,H'00,H'20,H'00,H'00,H'00,H'00,H'00,H'00,H'00,
             0000000000 +                       H'00,H'00,H'00,H'00,H'01,H'FF,H'E3,H'FF,H'C0,H'00,H'00,H'00
             0000000000   
             0200140020   
             0000000000   
             0000000000   
             0001FFE3FF   
             C0000000     
    000017BA              __$tenuesTop:                    ; static: tenuesTop
    000017BA FFFFFFFFFF             .DATA.B     H'FF,H'FF,H'FF,H'FF,H'FF,H'FF,H'FF,H'FF,H'FF,H'FF,H'FF,H'FF,H'FF,H'FF,H'FF,H'FF,




SH SERIES C/C++ Compiler (Ver. 6.0C)                                                                 30-Jan-2015 21:53:33  PAGE   57


SCT OFFSET   CODE       C LABEL     INSTRUCTION OPERAND    COMMENT

             FFFFFFFFFF +                       H'FF,H'FF,H'FF,H'FF,H'FF,H'FF,H'FF,H'FF,H'FF,H'FF,H'00,H'0F,H'FF,H'FF,H'FF,H'FF,
             FFFFFFFFFF +                       H'FF,H'FF,H'FF,H'FF,H'FF,H'FF,H'FF,H'FF,H'FF,H'FE,H'00,H'07,H'FF,H'FF,H'FF,H'FF,
             FFFFFFFFFF +                       H'FF,H'FF,H'FF,H'FF,H'81,H'84,H'C9,H'30,H'C7,H'FE,H'00,H'07,H'FF,H'FF,H'FF,H'FF,
             FFFFFFFFFF +                       H'FF,H'FF,H'FF,H'FF,H'81,H'04,H'C9,H'20,H'83,H'FE,H'00,H'07,H'FF,H'FF,H'FF,H'FF,
             FF000FFFFF +                       H'FF,H'FF,H'FF,H'FF,H'E7,H'3C,H'49,H'27,H'9F,H'FE,H'00,H'07,H'FF,H'FF,H'FF,H'FF,
             FFFFFFFFFF +                       H'FF,H'FF,H'FF,H'FF,H'E7,H'0C,H'09,H'21,H'87,H'FE,H'00,H'07,H'FF,H'FF,H'FF,H'FF,
             FFFFFFFFFF +                       H'FF,H'FF,H'FF,H'FF,H'E7,H'0C,H'09,H'21,H'C3,H'FE,H'00,H'07,H'FF,H'FF,H'FF,H'FF,
             FFFE0007FF +                       H'FF,H'FF,H'FF,H'FF,H'E7,H'3C,H'89,H'27,H'F3,H'FE,H'00,H'07,H'FF,H'FF,H'FF,H'FF,
             FFFFFFFFFF +                       H'FF,H'FF,H'FF,H'FF,H'E7,H'04,H'C8,H'20,H'83,H'FE,H'00,H'07,H'FF,H'FF,H'FF,H'FF,
             FFFF8184C9 +                       H'00,H'00,H'00,H'FF,H'E7,H'84,H'CC,H'70,H'C7,H'FE,H'00,H'07,H'FF,H'00,H'00,H'00,
             30C7FE0007 +                       H'00,H'00,H'00,H'7F,H'FF,H'FF,H'FF,H'FF,H'FF,H'FE,H'00,H'07,H'FE,H'00,H'00,H'00,
             FFFFFFFFFF +                       H'00,H'00,H'00,H'3F,H'FF,H'FF,H'FF,H'FF,H'FF,H'FE,H'00,H'07,H'FC,H'00,H'00,H'00,
             FFFFFF8104 +                       H'00,H'00,H'00,H'1F
             C92083FE00   
             07FFFFFFFF   
             FFFFFFFFE7   
             3C49279FFE   
             0007FFFFFF   
             FFFFFFFFFF   
             E70C092187   
             FE0007FFFF   
             FFFFFFFFFF   
             FFE70C0921   
             C3FE0007FF   
             FFFFFFFFFF   
             FFFFE73C89   
             27F3FE0007   
             FFFFFFFFFF   
             FFFFFFE704   
             C82083FE00   
             07FFFFFFFF   
             000000FFE7   
             84CC70C7FE   
             0007FF0000   
             000000007F   
             FFFFFFFFFF   
             FE0007FE00   
             0000000000   
             3FFFFFFFFF   
             FFFE0007FC   
             0000000000   
             001F         
    0000188E FFFFFFFFFF             .DATA.B     H'FF,H'FF,H'FF,H'FF,H'FF,H'FE,H'00,H'07,H'F8,H'00,H'00,H'00,H'00,H'00,H'00,H'00,
             FE0007F800 +                       H'00,H'00,H'00,H'00,H'00,H'01,H'00,H'08,H'00,H'00,H'00,H'00,H'00,H'00,H'00,H'00,
             0000000000 +                       H'00,H'00,H'00,H'00,H'00,H'00,H'FF,H'F0,H'00,H'00,H'00,H'00
             0000000000   
             0001000800   
             0000000000   
             0000000000   
             000000FFF0   
             00000000     
    000018BA              __$jetpacksTop:                  ; static: jetpacksTop
    000018BA FFFFFFFFFF             .DATA.B     H'FF,H'FF,H'FF,H'FF,H'FF,H'FF,H'FF,H'FF,H'FF,H'FF,H'FF,H'FF,H'FF,H'FF,H'FF,H'FF,
             FFFFFFFFFF +                       H'FF,H'FF,H'FF,H'FF,H'FF,H'FF,H'FF,H'FF,H'FF,H'FF,H'F8,H'00,H'7F,H'FF,H'FF,H'FF,
             FFFFFFFFFF +                       H'FF,H'FF,H'FF,H'FF,H'FF,H'FF,H'FF,H'FF,H'FF,H'FF,H'F0,H'00,H'3F,H'FF,H'FF,H'FF,
             FFFFFFFFFF +                       H'FF,H'FF,H'FF,H'FF,H'98,H'40,H'C7,H'1C,H'64,H'C7,H'F0,H'00,H'3F,H'FF,H'FF,H'FF,
             FFFFFFFFFF +                       H'FF,H'FF,H'FF,H'FF,H'90,H'40,H'82,H'08,H'24,H'83,H'F0,H'00,H'3F,H'FF,H'FF,H'FF,




SH SERIES C/C++ Compiler (Ver. 6.0C)                                                                 30-Jan-2015 21:53:33  PAGE   58


SCT OFFSET   CODE       C LABEL     INSTRUCTION OPERAND    COMMENT

             FFF8007FFF +                       H'FF,H'FF,H'FF,H'FF,H'93,H'F3,H'92,H'49,H'E4,H'9F,H'F0,H'00,H'3F,H'FF,H'FF,H'FF,
             FFFFFFFFFF +                       H'FF,H'FF,H'FF,H'FF,H'90,H'F3,H'82,H'49,H'E1,H'87,H'F0,H'00,H'3F,H'FF,H'FF,H'FF,
             FFFFFFFFFF +                       H'FF,H'FF,H'FF,H'FF,H'90,H'F3,H'86,H'09,H'E1,H'C3,H'F0,H'00,H'3F,H'FF,H'FF,H'FF,
             FFFFF0003F +                       H'FF,H'FF,H'FF,H'FF,H'93,H'F3,H'9E,H'09,H'E4,H'F3,H'F0,H'00,H'3F,H'FF,H'FF,H'FF,
             FFFFFFFFFF +                       H'FF,H'FF,H'FF,H'FC,H'10,H'73,H'9E,H'48,H'24,H'83,H'F0,H'00,H'3F,H'FF,H'FF,H'FF,
             FFFF9840C7 +                       H'00,H'00,H'00,H'FE,H'38,H'73,H'9E,H'4C,H'64,H'C7,H'F0,H'00,H'3F,H'00,H'00,H'00,
             1C64C7F000 +                       H'00,H'00,H'00,H'7F,H'FF,H'FF,H'FF,H'FF,H'FF,H'FF,H'F0,H'00,H'3E,H'00,H'00,H'00,
             3FFFFFFFFF +                       H'00,H'00,H'00,H'3F,H'FF,H'FF,H'FF,H'FF,H'FF,H'FF,H'F0,H'00,H'3C,H'00,H'00,H'00,
             FFFFFF9040 +                       H'00,H'00,H'00,H'1F
             82082483F0   
             003FFFFFFF   
             FFFFFFFF93   
             F39249E49F   
             F0003FFFFF   
             FFFFFFFFFF   
             90F38249E1   
             87F0003FFF   
             FFFFFFFFFF   
             FF90F38609   
             E1C3F0003F   
             FFFFFFFFFF   
             FFFF93F39E   
             09E4F3F000   
             3FFFFFFFFF   
             FFFFFC1073   
             9E482483F0   
             003FFFFFFF   
             000000FE38   
             739E4C64C7   
             F0003F0000   
             000000007F   
             FFFFFFFFFF   
             FFF0003E00   
             0000000000   
             3FFFFFFFFF   
             FFFFF0003C   
             0000000000   
             001F         
    0000198E FFFFFFFFFF             .DATA.B     H'FF,H'FF,H'FF,H'FF,H'FF,H'FF,H'F0,H'00,H'38,H'00,H'00,H'00,H'00,H'00,H'00,H'00,
             FFF0003800 +                       H'00,H'00,H'00,H'00,H'00,H'00,H'08,H'00,H'40,H'00,H'00,H'00,H'00,H'00,H'00,H'00,
             0000000000 +                       H'00,H'00,H'00,H'00,H'00,H'00,H'07,H'FF,H'80,H'00,H'00,H'00
             0000000000   
             0000080040   
             0000000000   
             0000000000   
             00000007FF   
             80000000     
    000019BA              __$ameliorationsTop:             ; static: ameliorationsTop
    000019BA FFFFFFFFFF             .DATA.B     H'FF,H'FF,H'FF,H'FF,H'FF,H'FF,H'FF,H'FF,H'FF,H'FF,H'FF,H'FF,H'FF,H'FF,H'FF,H'FF,
             FFFFFFFFFF +                       H'FF,H'FF,H'FF,H'FF,H'FF,H'FF,H'FF,H'FF,H'FF,H'FF,H'FF,H'FF,H'FF,H'FF,H'FF,H'FF,
             FFFFFFFFFF +                       H'FF,H'FF,H'FF,H'FF,H'FF,H'FF,H'FF,H'FF,H'FF,H'FF,H'FF,H'FF,H'FF,H'FF,H'FF,H'FF,
             FFFFFFFFFF +                       H'FF,H'FF,H'FF,H'E3,H'93,H'84,H'F3,H'1C,H'71,H'81,H'31,H'99,H'8F,H'FF,H'FF,H'FF,
             FFFFFFFFFF +                       H'FF,H'FF,H'FF,H'C1,H'01,H'04,H'F2,H'08,H'20,H'81,H'20,H'99,H'07,H'FF,H'FF,H'FF,
             FFFFFFFFFF +                       H'FF,H'FF,H'FF,H'C9,H'29,H'3C,H'F2,H'49,H'24,H'E7,H'24,H'89,H'3F,H'FF,H'FF,H'FF,
             FFFFFFFFFF +                       H'FF,H'FF,H'FF,H'C9,H'29,H'0C,H'F2,H'48,H'24,H'E7,H'24,H'81,H'0F,H'FF,H'FF,H'FF,
             FFFFFFFFFF +                       H'FF,H'FF,H'FF,H'C1,H'29,H'0C,H'F2,H'48,H'60,H'E7,H'24,H'81,H'87,H'FF,H'FF,H'FF,
             FFFFFFFFFF +                       H'FF,H'FF,H'FF,H'C1,H'39,H'3C,H'F2,H'48,H'20,H'E7,H'24,H'91,H'E7,H'FF,H'FF,H'FF,




SH SERIES C/C++ Compiler (Ver. 6.0C)                                                                 30-Jan-2015 21:53:33  PAGE   59


SCT OFFSET   CODE       C LABEL     INSTRUCTION OPERAND    COMMENT

             FFFFFFFFFF +                       H'FF,H'FF,H'FF,H'C9,H'39,H'04,H'12,H'09,H'24,H'E7,H'20,H'99,H'07,H'FF,H'FF,H'FF,
             FFE39384F3 +                       H'00,H'00,H'03,H'C9,H'39,H'86,H'13,H'19,H'24,H'E7,H'31,H'99,H'8F,H'80,H'00,H'00,
             1C71813199 +                       H'00,H'00,H'01,H'FF,H'FF,H'FF,H'FF,H'FF,H'FF,H'FF,H'FF,H'FF,H'FF,H'00,H'00,H'00,
             8FFFFFFFFF +                       H'00,H'00,H'00,H'FF,H'FF,H'FF,H'FF,H'FF,H'FF,H'FF,H'FF,H'FF,H'FE,H'00,H'00,H'00,
             FFFFC10104 +                       H'00,H'00,H'00,H'7F
             F208208120   
             9907FFFFFF   
             FFFFFFC929   
             3CF24924E7   
             24893FFFFF   
             FFFFFFFFC9   
             290CF24824   
             E724810FFF   
             FFFFFFFFFF   
             C1290CF248   
             60E7248187   
             FFFFFFFFFF   
             FFC1393CF2   
             4820E72491   
             E7FFFFFFFF   
             FFFFC93904   
             120924E720   
             9907FFFFFF   
             000003C939   
             86131924E7   
             31998F8000   
             00000001FF   
             FFFFFFFFFF   
             FFFFFFFF00   
             0000000000   
             FFFFFFFFFF   
             FFFFFFFFFE   
             0000000000   
             007F         
    00001A8E FFFFFFFFFF             .DATA.B     H'FF,H'FF,H'FF,H'FF,H'FF,H'FF,H'FF,H'FF,H'FC,H'00,H'00,H'00,H'00,H'00,H'00,H'00,
             FFFFFFFC00 +                       H'00,H'00,H'00,H'00,H'00,H'00,H'00,H'00,H'00,H'00,H'00,H'00,H'00,H'00,H'00,H'00,
             0000000000 +                       H'00,H'00,H'00,H'00,H'00,H'00,H'00,H'00,H'00,H'00,H'00,H'00
             0000000000   
             0000000000   
             0000000000   
             0000000000   
             0000000000   
             00000000     
    00001ABA              __$statistiquesTop:              ; static: statistiquesTop
    00001ABA FFFFFFFFFF             .DATA.B     H'FF,H'FF,H'FF,H'FF,H'FF,H'FF,H'FF,H'FF,H'FF,H'FF,H'FF,H'FF,H'FF,H'FF,H'FF,H'FF,
             FFFFFFFFFF +                       H'FF,H'FF,H'FF,H'FF,H'FF,H'FF,H'FF,H'FF,H'FF,H'FF,H'FF,H'FF,H'FF,H'FF,H'FF,H'FF,
             FFFFFFFFFF +                       H'FF,H'FF,H'FF,H'FF,H'FF,H'FF,H'FF,H'FF,H'FF,H'FF,H'FF,H'FF,H'FF,H'FF,H'FF,H'FF,
             FFFFFFFFFF +                       H'FF,H'FF,H'FF,H'FC,H'60,H'63,H'02,H'63,H'02,H'63,H'93,H'0C,H'7F,H'FF,H'FF,H'FF,
             FFFFFFFFFF +                       H'FF,H'FF,H'FF,H'F8,H'20,H'41,H'02,H'41,H'02,H'41,H'92,H'08,H'3F,H'FF,H'FF,H'FF,
             FFFFFFFFFF +                       H'FF,H'FF,H'FF,H'F9,H'F9,H'C9,H'CE,H'4F,H'CE,H'41,H'92,H'79,H'FF,H'FF,H'FF,H'FF,
             FFFFFFFFFF +                       H'FF,H'FF,H'FF,H'F8,H'79,H'C9,H'CE,H'43,H'CE,H'49,H'92,H'18,H'7F,H'FF,H'FF,H'FF,
             FFFFFFFFFF +                       H'FF,H'FF,H'FF,H'FC,H'39,H'C1,H'CE,H'61,H'CE,H'49,H'92,H'1C,H'3F,H'FF,H'FF,H'FF,
             FFFFFFFFFF +                       H'FF,H'FF,H'FF,H'FF,H'39,H'C1,H'CE,H'79,H'CE,H'41,H'92,H'7F,H'3F,H'FF,H'FF,H'FF,
             FFFFFFFFFF +                       H'FF,H'FF,H'FF,H'F8,H'39,H'C9,H'CE,H'41,H'CE,H'41,H'82,H'08,H'3F,H'FF,H'FF,H'FF,
             FFFC606302 +                       H'00,H'00,H'03,H'FC,H'79,H'C9,H'CE,H'63,H'CE,H'61,H'C7,H'0C,H'7F,H'80,H'00,H'00,
             630263930C +                       H'00,H'00,H'01,H'FF,H'FF,H'FF,H'FF,H'FF,H'FF,H'F8,H'FF,H'FF,H'FF,H'00,H'00,H'00,
             7FFFFFFFFF +                       H'00,H'00,H'00,H'FF,H'FF,H'FF,H'FF,H'FF,H'FF,H'FF,H'FF,H'FF,H'FE,H'00,H'00,H'00,




SH SERIES C/C++ Compiler (Ver. 6.0C)                                                                 30-Jan-2015 21:53:33  PAGE   60


SCT OFFSET   CODE       C LABEL     INSTRUCTION OPERAND    COMMENT

             FFFFF82041 +                       H'00,H'00,H'00,H'7F
             0241024192   
             083FFFFFFF   
             FFFFFFF9F9   
             C9CE4FCE41   
             9279FFFFFF   
             FFFFFFFFF8   
             79C9CE43CE   
             4992187FFF   
             FFFFFFFFFF   
             FC39C1CE61   
             CE49921C3F   
             FFFFFFFFFF   
             FFFF39C1CE   
             79CE41927F   
             3FFFFFFFFF   
             FFFFF839C9   
             CE41CE4182   
             083FFFFFFF   
             000003FC79   
             C9CE63CE61   
             C70C7F8000   
             00000001FF   
             FFFFFFFFFF   
             F8FFFFFF00   
             0000000000   
             FFFFFFFFFF   
             FFFFFFFFFE   
             0000000000   
             007F         
    00001B8E FFFFFFFFFF             .DATA.B     H'FF,H'FF,H'FF,H'FF,H'FF,H'FF,H'FF,H'FF,H'FC,H'00,H'00,H'00,H'00,H'00,H'00,H'00,
             FFFFFFFC00 +                       H'00,H'00,H'00,H'00,H'00,H'00,H'00,H'00,H'00,H'00,H'00,H'00,H'00,H'00,H'00,H'00,
             0000000000 +                       H'00,H'00,H'00,H'00,H'00,H'00,H'00,H'00,H'00,H'00,H'00,H'00
             0000000000   
             0000000000   
             0000000000   
             0000000000   
             0000000000   
             00000000     
    00001BBA              __$succesTop:                    ; static: succesTop
    00001BBA FFFFFFFFFF             .DATA.B     H'FF,H'FF,H'FF,H'FF,H'FF,H'FF,H'FF,H'FF,H'FF,H'FF,H'FF,H'FF,H'FF,H'FF,H'FF,H'FF,
             FFFFFFFFFF +                       H'FF,H'FF,H'FF,H'FF,H'FF,H'FF,H'FF,H'FF,H'FF,H'FF,H'FF,H'FF,H'FF,H'FF,H'FF,H'FF,
             FFFFFFFFFF +                       H'FF,H'FF,H'FF,H'FF,H'FF,H'FF,H'FF,H'FF,H'FF,H'FF,H'FF,H'FF,H'FF,H'FF,H'FF,H'FF,
             FFFFFFFFFF +                       H'FF,H'FF,H'FF,H'FF,H'FF,H'FF,H'19,H'31,H'C7,H'0C,H'7F,H'FF,H'FF,H'FF,H'FF,H'FF,
             FFFFFFFFFF +                       H'FF,H'FF,H'FF,H'FF,H'FF,H'FE,H'09,H'20,H'82,H'08,H'3F,H'FF,H'FF,H'FF,H'FF,H'FF,
             FFFFFFFFFF +                       H'FF,H'FF,H'FF,H'FF,H'FF,H'FE,H'79,H'27,H'9E,H'79,H'FF,H'FF,H'FF,H'FF,H'FF,H'FF,
             FFFFFFFFFF +                       H'FF,H'FF,H'FF,H'FF,H'FF,H'FE,H'19,H'27,H'9E,H'18,H'7F,H'FF,H'FF,H'FF,H'FF,H'FF,
             FFFFFFFFFF +                       H'FF,H'FF,H'FF,H'FF,H'FF,H'FF,H'09,H'27,H'9E,H'1C,H'3F,H'FF,H'FF,H'FF,H'FF,H'FF,
             FFFFFFFFFF +                       H'FF,H'FF,H'FF,H'FF,H'FF,H'FF,H'C9,H'27,H'9E,H'7F,H'3F,H'FF,H'FF,H'FF,H'FF,H'FF,
             FFFFFFFFFF +                       H'FF,H'FF,H'FF,H'FF,H'FF,H'FE,H'08,H'20,H'82,H'08,H'3F,H'FF,H'FF,H'FF,H'FF,H'FF,
             FFFFFFFF19 +                       H'00,H'00,H'00,H'00,H'0F,H'FF,H'1C,H'71,H'C7,H'0C,H'7F,H'F0,H'00,H'00,H'00,H'00,
             31C70C7FFF +                       H'00,H'00,H'00,H'00,H'07,H'FF,H'FF,H'FF,H'FF,H'FF,H'FF,H'E0,H'00,H'00,H'00,H'00,
             FFFFFFFFFF +                       H'00,H'00,H'00,H'00,H'03,H'FF,H'FF,H'FF,H'FF,H'FF,H'FF,H'C0,H'00,H'00,H'00,H'00,
             FFFFFFFFFE +                       H'00,H'00,H'00,H'00
             092082083F   
             FFFFFFFFFF   
             FFFFFFFFFF   




SH SERIES C/C++ Compiler (Ver. 6.0C)                                                                 30-Jan-2015 21:53:33  PAGE   61


SCT OFFSET   CODE       C LABEL     INSTRUCTION OPERAND    COMMENT

             FE79279E79   
             FFFFFFFFFF   
             FFFFFFFFFF   
             FFFE19279E   
             187FFFFFFF   
             FFFFFFFFFF   
             FFFFFF0927   
             9E1C3FFFFF   
             FFFFFFFFFF   
             FFFFFFFFC9   
             279E7F3FFF   
             FFFFFFFFFF   
             FFFFFFFFFE   
             082082083F   
             FFFFFFFFFF   
             000000000F   
             FF1C71C70C   
             7FF0000000   
             0000000000   
             07FFFFFFFF   
             FFFFE00000   
             0000000000   
             0003FFFFFF   
             FFFFFFC000   
             0000000000   
             0000         
    00001C8E 01FFFFFFFF             .DATA.B     H'01,H'FF,H'FF,H'FF,H'FF,H'FF,H'FF,H'80,H'00,H'00,H'00,H'00,H'00,H'00,H'00,H'00,
             FFFF800000 +                       H'00,H'00,H'00,H'00,H'00,H'00,H'00,H'00,H'00,H'00,H'00,H'00,H'00,H'00,H'00,H'00,
             0000000000 +                       H'00,H'00,H'00,H'00,H'00,H'00,H'00,H'00,H'00,H'00,H'00,H'00
             0000000000   
             0000000000   
             0000000000   
             0000000000   
             0000000000   
             00000000     
    00001CBA              __$optionsTop:                   ; static: optionsTop
    00001CBA FFFFFFFFFF             .DATA.B     H'FF,H'FF,H'FF,H'FF,H'FF,H'FF,H'FF,H'FF,H'FF,H'FF,H'FF,H'FF,H'FF,H'FF,H'FF,H'FF,
             FFFFFFFFFF +                       H'FF,H'FF,H'FF,H'FF,H'FF,H'FF,H'FF,H'FF,H'FF,H'FF,H'FF,H'FF,H'FF,H'FF,H'FF,H'FF,
             FFFFFFFFFF +                       H'FF,H'FF,H'FF,H'FF,H'FF,H'FF,H'FF,H'FF,H'FF,H'FF,H'FF,H'FF,H'FF,H'FF,H'FF,H'FF,
             FFFFFFFFFF +                       H'FF,H'FF,H'FF,H'FF,H'FF,H'F8,H'E3,H'02,H'63,H'33,H'1F,H'FF,H'FF,H'FF,H'FF,H'FF,
             FFFFFFFFFF +                       H'FF,H'FF,H'FF,H'FF,H'FF,H'F0,H'41,H'02,H'41,H'32,H'0F,H'FF,H'FF,H'FF,H'FF,H'FF,
             FFFFFFFFFF +                       H'FF,H'FF,H'FF,H'FF,H'FF,H'F0,H'49,H'CE,H'41,H'12,H'7F,H'FF,H'FF,H'FF,H'FF,H'FF,
             FFFFFFFFFF +                       H'FF,H'FF,H'FF,H'FF,H'FF,H'F2,H'41,H'CE,H'49,H'02,H'1F,H'FF,H'FF,H'FF,H'FF,H'FF,
             FFFFFFFFFF +                       H'FF,H'FF,H'FF,H'FF,H'FF,H'F2,H'43,H'CE,H'49,H'03,H'0F,H'FF,H'FF,H'FF,H'FF,H'FF,
             FFFFFFFFFF +                       H'FF,H'FF,H'FF,H'FF,H'FF,H'F0,H'4F,H'CE,H'41,H'23,H'CF,H'FF,H'FF,H'FF,H'FF,H'FF,
             FFFFFFFFFF +                       H'FF,H'FF,H'FF,H'FF,H'FF,H'F0,H'4F,H'CE,H'41,H'32,H'0F,H'FF,H'FF,H'FF,H'FF,H'FF,
             FFFFFFF8E3 +                       H'00,H'00,H'00,H'00,H'0F,H'F8,H'CF,H'CE,H'63,H'33,H'1F,H'F0,H'00,H'00,H'00,H'00,
             0263331FFF +                       H'00,H'00,H'00,H'00,H'07,H'FF,H'FF,H'FF,H'FF,H'FF,H'FF,H'E0,H'00,H'00,H'00,H'00,
             FFFFFFFFFF +                       H'00,H'00,H'00,H'00,H'03,H'FF,H'FF,H'FF,H'FF,H'FF,H'FF,H'C0,H'00,H'00,H'00,H'00,
             FFFFFFFFF0 +                       H'00,H'00,H'00,H'00
             410241320F   
             FFFFFFFFFF   
             FFFFFFFFFF   
             F049CE4112   
             7FFFFFFFFF   
             FFFFFFFFFF   
             FFF241CE49   




SH SERIES C/C++ Compiler (Ver. 6.0C)                                                                 30-Jan-2015 21:53:33  PAGE   62


SCT OFFSET   CODE       C LABEL     INSTRUCTION OPERAND    COMMENT

             021FFFFFFF   
             FFFFFFFFFF   
             FFFFF243CE   
             49030FFFFF   
             FFFFFFFFFF   
             FFFFFFF04F   
             CE4123CFFF   
             FFFFFFFFFF   
             FFFFFFFFF0   
             4FCE41320F   
             FFFFFFFFFF   
             000000000F   
             F8CFCE6333   
             1FF0000000   
             0000000000   
             07FFFFFFFF   
             FFFFE00000   
             0000000000   
             0003FFFFFF   
             FFFFFFC000   
             0000000000   
             0000         
    00001D8E 01FFFFFFFF             .DATA.B     H'01,H'FF,H'FF,H'FF,H'FF,H'FF,H'FF,H'80,H'00,H'00,H'00,H'00,H'00,H'00,H'00,H'00,
             FFFF800000 +                       H'00,H'00,H'00,H'00,H'00,H'00,H'00,H'00,H'00,H'00,H'00,H'00,H'00,H'00,H'00,H'00,
             0000000000 +                       H'00,H'00,H'00,H'00,H'00,H'00,H'00,H'00,H'00,H'00,H'00,H'00
             0000000000   
             0000000000   
             0000000000   
             0000000000   
             0000000000   
             00000000     
    00001DBA              __$trophee:                      ; static: trophee
    00001DBA F00FFFFFFF             .DATA.B     H'F0,H'0F,H'FF,H'FF,H'FF,H'FF,H'CF,H'F3,H'6F,H'F6,H'3F,H'FC,H'1F,H'F8,H'07,H'E0,
             FFCFF36FF6 +                       H'03,H'C0,H'03,H'C0,H'03,H'C0,H'07,H'E0,H'1F,H'F8,H'3F,H'FC,H'3F,H'FC,H'3F,H'FC,
             3FFC1FF807 +                       H'F0,H'0F,H'8F,H'F1,H'80,H'01,H'B0,H'0D,H'50,H'0A,H'20,H'04,H'18,H'18,H'04,H'20,
             E003C003C0 +                       H'02,H'40,H'02,H'40,H'02,H'40,H'06,H'60,H'18,H'18,H'23,H'C4,H'20,H'04,H'3F,H'FC
             03C007E01F   
             F83FFC3FFC   
             3FFCF00F8F   
             F18001B00D   
             500A200418   
             1804200240   
             0240024006   
             60181823C4   
             20043FFC     
    00001DFA              __$expand:                       ; static: expand
    00001DFA F870200000             .DATA.B     H'F8,H'70,H'20,H'00,H'00,H'00,H'00,H'00,H'20,H'70,H'F8,H'00,H'00,H'00,H'00,H'00
             0000002070   
             F800000000   
             00           
    00001E0A              __$succes:                       ; static: succes
    00001E0A 8000000000             .DATA.B     H'80,H'00,H'00,H'00,H'00,H'00,H'00,H'00,H'00,H'00,H'00,H'00,H'00,H'80,H'BC,H'03,
             0000000000 +                       H'C0,H'00,H'00,H'00,H'00,H'00,H'00,H'00,H'00,H'00,H'00,H'80,H'A3,H'FC,H'40,H'00,
             00000080BC +                       H'00,H'00,H'00,H'00,H'00,H'00,H'00,H'00,H'00,H'80,H'A0,H'00,H'4C,H'CE,H'6D,H'B3,
             03C0000000 +                       H'CE,H'6C,H'0E,H'6C,H'E3,H'8F,H'38,H'80,H'AC,H'03,H'4C,H'DF,H'6D,H'B7,H'DF,H'6C,
             0000000000 +                       H'1F,H'6D,H'F7,H'DF,H'7C,H'80,H'94,H'02,H'8E,H'DB,H'6D,H'B6,H'1B,H'6C,H'18,H'6D,
             000080A3FC +                       H'86,H'18,H'60,H'80,H'88,H'01,H'0F,H'DB,H'6D,H'B7,H'9B,H'6C,H'1E,H'6D,H'86,H'1E,




SH SERIES C/C++ Compiler (Ver. 6.0C)                                                                 30-Jan-2015 21:53:33  PAGE   63


SCT OFFSET   CODE       C LABEL     INSTRUCTION OPERAND    COMMENT

             4000000000 +                       H'78,H'80,H'86,H'06,H'0F,H'DB,H'6D,H'B7,H'9F,H'6C,H'0F,H'6D,H'86,H'1E,H'3C,H'80,
             0000000000 +                       H'81,H'08,H'0D,H'DB,H'6D,H'B6,H'1F,H'6C,H'03,H'6D,H'86,H'18,H'0C,H'80,H'80,H'90,
             0080A0004C +                       H'0C,H'DF,H'7C,H'E7,H'DB,H'7C,H'1F,H'7D,H'F7,H'DF,H'7C,H'80,H'80,H'90,H'0C,H'CE,
             CE6DB3CE6C +                       H'38,H'43,H'DB,H'38,H'0E,H'38,H'E3,H'8F,H'38,H'80,H'80,H'90,H'00,H'00,H'00,H'00,
             0E6CE38F38 +                       H'00,H'00,H'00,H'00,H'00,H'00,H'00,H'80,H'81,H'98,H'00,H'00,H'00,H'00,H'00,H'00,
             80AC034CDF +                       H'00,H'00,H'00,H'00,H'01,H'00,H'86,H'06,H'0F,H'FF,H'FF,H'FF,H'FF,H'FF,H'FF,H'FF,
             6DB7DF6C1F +                       H'FF,H'FF,H'FE,H'00,H'88,H'F1,H'10,H'00,H'00,H'00,H'00,H'00,H'00,H'00,H'00,H'00,
             6DF7DF7C80 +                       H'00,H'00,H'88,H'01
             94028EDB6D   
             B61B6C186D   
             8618608088   
             010FDB6DB7   
             9B6C1E6D86   
             1E78808606   
             0FDB6DB79F   
             6C0F6D861E   
             3C8081080D   
             DB6DB61F6C   
             036D86180C   
             8080900CDF   
             7CE7DB7C1F   
             7DF7DF7C80   
             80900CCE38   
             43DB380E38   
             E38F388080   
             9000000000   
             0000000000   
             0000808198   
             0000000000   
             0000000000   
             010086060F   
             FFFFFFFFFF   
             FFFFFFFFFE   
             0088F11000   
             0000000000   
             0000000000   
             8801         
    00001EDE 1000000000             .DATA.B     H'10,H'00,H'00,H'00,H'00,H'00,H'00,H'00,H'00,H'00,H'00,H'00,H'8F,H'FF,H'10,H'00,
             0000000000 +                       H'00,H'00,H'00,H'00,H'00,H'00,H'00,H'00,H'00,H'00,H'80,H'00,H'10,H'00,H'00,H'00,
             00008FFF10 +                       H'00,H'00,H'00,H'00,H'00,H'00,H'00,H'00,H'40,H'00,H'20,H'00,H'00,H'00,H'00,H'00,
             0000000000 +                       H'00,H'00,H'00,H'00,H'00,H'00,H'3F,H'FF,H'C0,H'00,H'00,H'00,H'00,H'00,H'00,H'00,
             0000000000 +                       H'00,H'00,H'00,H'00
             0080001000   
             0000000000   
             0000000000   
             4000200000   
             0000000000   
             000000003F   
             FFC0000000   
             0000000000   
             000000       
    00001F22              __$succesAlpha:                  ; static: succesAlpha
    00001F22 0000000000             .DATA.B     H'00,H'00,H'00,H'00,H'00,H'00,H'00,H'00,H'00,H'00,H'00,H'00,H'00,H'00,H'00,H'00,
             0000000000 +                       H'00,H'00,H'00,H'00,H'00,H'00,H'00,H'00,H'00,H'00,H'00,H'00,H'00,H'00,H'00,H'00,
             0000000000 +                       H'00,H'00,H'00,H'00,H'00,H'00,H'00,H'00,H'00,H'00,H'00,H'00,H'00,H'00,H'00,H'00,
             0000000000 +                       H'00,H'00,H'00,H'00,H'00,H'00,H'00,H'00,H'00,H'00,H'00,H'00,H'00,H'00,H'00,H'00,
             0000000000 +                       H'00,H'00,H'00,H'00,H'00,H'00,H'00,H'00,H'00,H'00,H'00,H'00,H'00,H'00,H'00,H'00,




SH SERIES C/C++ Compiler (Ver. 6.0C)                                                                 30-Jan-2015 21:53:33  PAGE   64


SCT OFFSET   CODE       C LABEL     INSTRUCTION OPERAND    COMMENT

             0000000000 +                       H'00,H'00,H'00,H'00,H'00,H'00,H'00,H'00,H'00,H'00,H'00,H'00,H'00,H'00,H'00,H'00,
             0000000000 +                       H'00,H'00,H'00,H'00,H'00,H'00,H'00,H'00,H'00,H'00,H'00,H'00,H'00,H'00,H'00,H'00,
             0000000000 +                       H'00,H'00,H'00,H'00,H'00,H'00,H'00,H'00,H'00,H'00,H'00,H'00,H'00,H'00,H'00,H'00,
             0000000000 +                       H'00,H'00,H'00,H'00,H'00,H'00,H'00,H'00,H'00,H'00,H'00,H'00,H'00,H'00,H'00,H'00,
             0000000000 +                       H'00,H'00,H'00,H'00,H'00,H'00,H'00,H'00,H'00,H'00,H'00,H'00,H'00,H'00,H'00,H'00,
             0000000000 +                       H'00,H'00,H'00,H'00,H'00,H'00,H'00,H'00,H'00,H'00,H'00,H'00,H'00,H'00,H'00,H'00,
             0000000000 +                       H'00,H'00,H'00,H'00,H'00,H'80,H'00,H'00,H'00,H'00,H'00,H'00,H'00,H'00,H'00,H'00,
             0000000000 +                       H'00,H'00,H'01,H'80,H'00,H'00,H'0F,H'FF,H'FF,H'FF,H'FF,H'FF,H'FF,H'FF,H'FF,H'FF,
             0000000000 +                       H'FF,H'80,H'00,H'00
             0000000000   
             0000000000   
             0000000000   
             0000000000   
             0000000000   
             0000000000   
             0000000000   
             0000000000   
             0000000000   
             0000000000   
             0000000000   
             0000000000   
             0000000000   
             0000000000   
             0000000000   
             0000000000   
             0000000000   
             0000000000   
             0000000000   
             0000000000   
             0000000000   
             0000000000   
             0080000000   
             0000000000   
             0000000001   
             8000000FFF   
             FFFFFFFFFF   
             FFFFFFFF80   
             0000         
    00001FF6 0FFFFFFFFF             .DATA.B     H'0F,H'FF,H'FF,H'FF,H'FF,H'FF,H'FF,H'FF,H'FF,H'FF,H'FF,H'80,H'00,H'00,H'0F,H'FF,
             FFFFFFFFFF +                       H'FF,H'FF,H'FF,H'FF,H'FF,H'FF,H'FF,H'FF,H'FF,H'80,H'00,H'00,H'0F,H'FF,H'FF,H'FF,
             FF8000000F +                       H'FF,H'FF,H'FF,H'FF,H'FF,H'FF,H'FF,H'80,H'80,H'00,H'1F,H'FF,H'FF,H'FF,H'FF,H'FF,
             FFFFFFFFFF +                       H'FF,H'FF,H'FF,H'FF,H'FF,H'80,H'C0,H'00,H'3F,H'FF,H'FF,H'FF,H'FF,H'FF,H'FF,H'FF,
             FFFFFFFFFF +                       H'FF,H'FF,H'FF,H'80
             8000000FFF   
             FFFFFFFFFF   
             FFFFFFFF80   
             80001FFFFF   
             FFFFFFFFFF   
             FFFFFF80C0   
             003FFFFFFF   
             FFFFFFFFFF   
             FFFF80       
    0000203A              __$sixtyNine:                    ; static: sixtyNine
    0000203A 7C3EFE7FC6             .DATA.B     H'7C,H'3E,H'FE,H'7F,H'C6,H'63,H'C6,H'63,H'C0,H'63,H'C0,H'7F,H'FC,H'3F,H'FE,H'03,
             63C663C063 +                       H'C6,H'03,H'C6,H'63,H'C6,H'63,H'FE,H'7F,H'7C,H'3E,H'00,H'00,H'00,H'00,H'00,H'00
             C07FFC3FFE   
             03C603C663   




SH SERIES C/C++ Compiler (Ver. 6.0C)                                                                 30-Jan-2015 21:53:33  PAGE   65


SCT OFFSET   CODE       C LABEL     INSTRUCTION OPERAND    COMMENT

             C663FE7F7C   
             3E00000000   
             0000         
    0000205A              __$record:                       ; static: record
    0000205A 71E71C73C6             .DATA.B     H'71,H'E7,H'1C,H'73,H'C6,H'C0,H'FB,H'EF,H'BE,H'FB,H'E6,H'C0,H'DB,H'0C,H'3E,H'DB,
             C0FBEFBEFB +                       H'66,H'C0,H'FB,H'CC,H'36,H'FB,H'66,H'C0,H'F3,H'CC,H'36,H'F3,H'66,H'C0,H'FB,H'0C,
             E6C0DB0C3E +                       H'3E,H'FB,H'60,H'00,H'DB,H'EF,H'BE,H'DB,H'E6,H'C0,H'D9,H'E7,H'1C,H'DB,H'C6,H'C0
             DB66C0FBCC   
             36FB66C0F3   
             CC36F366C0   
             FB0C3EFB60   
             00DBEFBEDB   
             E6C0D9E71C   
             DBC6C0       
    0000208A              __$tirageFinal:                  ; static: tirageFinal
    0000208A FFFFFFFFFF             .DATA.B     H'FF,H'FF,H'FF,H'FF,H'FF,H'FF,H'FF,H'FF,H'FF,H'FF,H'FF,H'FF,H'FF,H'FF,H'FF,H'FF,
             FFFFFFFFFF +                       H'80,H'00,H'00,H'00,H'00,H'00,H'00,H'00,H'00,H'FF,H'00,H'00,H'00,H'00,H'01,H'FF,
             FFFFFFFFFF +                       H'BF,H'FF,H'FF,H'FF,H'FF,H'FF,H'FF,H'FF,H'FE,H'FF,H'7F,H'FF,H'FF,H'FF,H'FD,H'FF,
             FF80000000 +                       H'A0,H'00,H'00,H'00,H'00,H'00,H'00,H'00,H'02,H'FF,H'41,H'C0,H'00,H'00,H'05,H'FF,
             0000000000 +                       H'A0,H'00,H'00,H'00,H'00,H'00,H'00,H'00,H'02,H'FF,H'46,H'30,H'00,H'00,H'05,H'FF,
             FF00000000 +                       H'A0,H'00,H'00,H'00,H'00,H'00,H'00,H'00,H'02,H'FF,H'4C,H'18,H'00,H'00,H'05,H'FF,
             01FFBFFFFF +                       H'AF,H'D9,H'C7,H'1C,H'78,H'3D,H'B3,H'39,H'82,H'FF,H'5E,H'3C,H'00,H'00,H'05,H'FF,
             FFFFFFFFFF +                       H'AF,H'DB,H'EF,H'BE,H'F8,H'7D,H'B3,H'7D,H'82,H'FF,H'57,H'74,H'00,H'00,H'05,H'FF,
             FEFF7FFFFF +                       H'A3,H'1B,H'6D,H'B0,H'C0,H'61,H'BB,H'6D,H'82,H'FF,H'63,H'E2,H'00,H'00,H'05,H'FF,
             FFFDFFA000 +                       H'A3,H'1B,H'ED,H'B0,H'F0,H'79,H'BF,H'6D,H'82,H'FF,H'61,H'C2,H'00,H'00,H'05,H'FF,
             0000000000 +                       H'A3,H'1B,H'CF,H'B6,H'F0,H'79,H'BF,H'7D,H'82,H'FF,H'63,H'E2,H'00,H'00,H'05,H'FF,
             0002FF41C0 +                       H'A3,H'1B,H'EF,H'B6,H'C0,H'61,H'B7,H'7D,H'82,H'FF,H'57,H'74,H'00,H'00,H'05,H'FF,
             000005FFA0 +                       H'A3,H'1B,H'6D,H'BE,H'F8,H'61,H'B3,H'6D,H'F2,H'FF,H'5E,H'3C,H'00,H'00,H'05,H'FF,
             0000000000 +                       H'A3,H'1B,H'6D,H'9C
             000002FF46   
             30000005FF   
             A000000000   
             00000002FF   
             4C18000005   
             FFAFD9C71C   
             783DB33982   
             FF5E3C0000   
             05FFAFDBEF   
             BEF87DB37D   
             82FF577400   
             0005FFA31B   
             6DB0C061BB   
             6D82FF63E2   
             000005FFA3   
             1BEDB0F079   
             BF6D82FF61   
             C2000005FF   
             A31BCFB6F0   
             79BF7D82FF   
             63E2000005   
             FFA31BEFB6   
             C061B77D82   
             FF57740000   
             05FFA31B6D   
             BEF861B36D   
             F2FF5E3C00   
             0005FFA31B   




SH SERIES C/C++ Compiler (Ver. 6.0C)                                                                 30-Jan-2015 21:53:33  PAGE   66


SCT OFFSET   CODE       C LABEL     INSTRUCTION OPERAND    COMMENT

             6D9C         
    0000215E 7861B36CF2             .DATA.B     H'78,H'61,H'B3,H'6C,H'F2,H'FF,H'4C,H'18,H'00,H'00,H'05,H'FF,H'A0,H'00,H'00,H'00,
             FF4C180000 +                       H'00,H'00,H'00,H'00,H'02,H'FF,H'46,H'30,H'00,H'00,H'05,H'FF,H'A0,H'00,H'00,H'00,
             05FFA00000 +                       H'00,H'00,H'00,H'00,H'02,H'FF,H'41,H'C0,H'00,H'00,H'05,H'FF,H'BF,H'FF,H'FF,H'FF,
             0000000000 +                       H'FF,H'FF,H'FF,H'FF,H'FE,H'FF,H'7F,H'FF,H'FF,H'FF,H'FD,H'FF,H'80,H'00,H'00,H'00,
             02FF463000 +                       H'00,H'00,H'00,H'00,H'00,H'FF,H'00,H'00,H'00,H'00,H'01,H'FF,H'FF,H'FF,H'FF,H'FF,
             0005FFA000 +                       H'FF,H'FF,H'FF,H'FF,H'FF,H'FF,H'FF,H'FF,H'FF,H'FF,H'FF,H'FF,H'FF,H'FF,H'FF,H'FF,
             0000000000 +                       H'FF,H'FF,H'FF,H'FF,H'FF,H'FF,H'E0,H'00,H'00,H'00,H'07,H'FF,H'80,H'00,H'00,H'80,
             0002FF41C0 +                       H'00,H'00,H'80,H'00,H'00,H'FF,H'EF,H'FF,H'FF,H'FF,H'F7,H'FF,H'BF,H'FF,H'FE,H'BF,
             000005FFBF +                       H'FF,H'FE,H'BF,H'FF,H'FE,H'FF,H'E8,H'00,H'00,H'00,H'17,H'FF,H'A0,H'00,H'02,H'A0,
             FFFFFFFFFF +                       H'00,H'02,H'A0,H'00,H'02,H'EC,H'E8,H'00,H'00,H'00,H'16,H'07,H'A0,H'00,H'02,H'A0,
             FFFFFEFF7F +                       H'00,H'02,H'A0,H'00,H'02,H'DB,H'68,H'00,H'00,H'00,H'14,H'03,H'A0,H'00,H'02,H'A0,
             FFFFFFFDFF +                       H'00,H'02,H'A0,H'00,H'02,H'80,H'28,H'00,H'00,H'00,H'14,H'93,H'A0,H'00,H'02,H'A0,
             8000000000 +                       H'00,H'02,H'A0,H'00,H'02,H'DB,H'68,H'00,H'00,H'00,H'14,H'93,H'A0,H'00,H'02,H'A0,
             00000000FF +                       H'00,H'02,H'A0,H'00
             0000000001   
             FFFFFFFFFF   
             FFFFFFFFFF   
             FFFFFFFFFF   
             FFFFFFFFFF   
             FFFFFFFFFF   
             FFFFE00000   
             0007FF8000   
             0080000080   
             0000FFEFFF   
             FFFFF7FFBF   
             FFFEBFFFFE   
             BFFFFEFFE8   
             00000017FF   
             A00002A000   
             02A00002EC   
             E800000016   
             07A00002A0   
             0002A00002   
             DB68000000   
             1403A00002   
             A00002A000   
             0280280000   
             001493A000   
             02A00002A0   
             0002DB6800   
             00001493A0   
             0002A00002   
             A000         
    00002232 02E6E80000             .DATA.B     H'02,H'E6,H'E8,H'00,H'00,H'00,H'14,H'F3,H'A0,H'00,H'02,H'A0,H'00,H'02,H'A0,H'00,
             0014F3A000 +                       H'02,H'FF,H'E8,H'00,H'00,H'00,H'17,H'FF,H'A0,H'00,H'02,H'A0,H'00,H'02,H'A0,H'00,
             02A00002A0 +                       H'02,H'FF,H'E8,H'00,H'00,H'00,H'14,H'63,H'A0,H'00,H'02,H'A0,H'00,H'02,H'A0,H'00,
             0002FFE800 +                       H'02,H'F2,H'6B,H'E0,H'00,H'07,H'D4,H'03,H'A0,H'00,H'02,H'A0,H'00,H'02,H'A0,H'00,
             000017FFA0 +                       H'02,H'F2,H'69,H'C0,H'00,H'03,H'97,H'9F,H'A0,H'00,H'02,H'A0,H'00,H'02,H'A0,H'00,
             0002A00002 +                       H'02,H'FF,H'E8,H'80,H'00,H'01,H'14,H'03,H'A0,H'00,H'02,H'A0,H'00,H'02,H'A0,H'00,
             A00002FFE8 +                       H'02,H'CF,H'E8,H'00,H'00,H'00,H'14,H'63,H'A0,H'00,H'02,H'A0,H'00,H'02,H'A0,H'00,
             0000001463 +                       H'02,H'CF,H'E8,H'00,H'00,H'00,H'17,H'FF,H'A0,H'00,H'02,H'A0,H'00,H'02,H'A0,H'00,
             A00002A000 +                       H'02,H'C0,H'28,H'00,H'00,H'00,H'16,H'07,H'A0,H'00,H'02,H'A0,H'00,H'02,H'A0,H'00,
             02A00002F2 +                       H'02,H'C0,H'28,H'00,H'00,H'00,H'14,H'03,H'A0,H'00,H'02,H'A0,H'00,H'02,H'A0,H'00,
             6BE00007D4 +                       H'02,H'CF,H'EB,H'E0,H'00,H'07,H'D4,H'93,H'A0,H'00,H'02,H'A0,H'00,H'02,H'A0,H'00,
             03A00002A0 +                       H'02,H'CF,H'E9,H'C0,H'00,H'03,H'94,H'93,H'A0,H'00,H'02,H'A0,H'00,H'02,H'A0,H'00,
             0002A00002 +                       H'02,H'FF,H'E8,H'80,H'00,H'01,H'14,H'F3,H'A0,H'00,H'02,H'A0,H'00,H'02,H'A0,H'00,




SH SERIES C/C++ Compiler (Ver. 6.0C)                                                                 30-Jan-2015 21:53:33  PAGE   67


SCT OFFSET   CODE       C LABEL     INSTRUCTION OPERAND    COMMENT

             F269C00003 +                       H'02,H'CF,H'E8,H'00
             979FA00002   
             A00002A000   
             02FFE88000   
             011403A000   
             02A00002A0   
             0002CFE800   
             00001463A0   
             0002A00002   
             A00002CFE8   
             00000017FF   
             A00002A000   
             02A00002C0   
             2800000016   
             07A00002A0   
             0002A00002   
             C028000000   
             1403A00002   
             A00002A000   
             02CFEBE000   
             07D493A000   
             02A00002A0   
             0002CFE9C0   
             00039493A0   
             0002A00002   
             A00002FFE8   
             80000114F3   
             A00002A000   
             02A00002CF   
             E800         
    00002306 000017FFA0             .DATA.B     H'00,H'00,H'17,H'FF,H'A0,H'00,H'02,H'A0,H'00,H'02,H'A0,H'00,H'02,H'C9,H'E8,H'00,
             0002A00002 +                       H'00,H'00,H'17,H'FF,H'A0,H'00,H'02,H'A0,H'00,H'02,H'A0,H'00,H'02,H'C9,H'E8,H'00,
             A00002C9E8 +                       H'00,H'00,H'17,H'FF,H'A0,H'00,H'02,H'A0,H'00,H'02,H'A0,H'00,H'02,H'C0,H'28,H'00,
             00000017FF +                       H'00,H'00,H'17,H'0F,H'A0,H'00,H'02,H'A0,H'00,H'02,H'A0,H'00,H'02,H'E0,H'2B,H'E0,
             A00002A000 +                       H'00,H'07,H'D7,H'0F,H'A0,H'00,H'02,H'A0,H'00,H'02,H'A0,H'00,H'02,H'FF,H'E9,H'C0,
             02A00002C9 +                       H'00,H'03,H'97,H'0F,H'A0,H'00,H'02,H'A0,H'00,H'02,H'A0,H'00,H'02,H'C0,H'28,H'80,
             E800000017 +                       H'00,H'01,H'17,H'0F,H'A0,H'00,H'02,H'A0,H'00,H'02,H'A0,H'00,H'02,H'C0,H'28,H'00,
             FFA00002A0 +                       H'00,H'00,H'17,H'0F,H'A0,H'00,H'02,H'A0,H'00,H'02,H'A0,H'00,H'02,H'FF,H'E8,H'00,
             0002A00002 +                       H'00,H'00,H'17,H'0F,H'A0,H'00,H'02,H'A0,H'00,H'02,H'A0,H'00,H'02,H'C0,H'28,H'00,
             C028000000 +                       H'00,H'00,H'17,H'0F,H'A0,H'00,H'02,H'A0,H'00,H'02,H'A0,H'00,H'02,H'C0,H'28,H'00,
             170FA00002 +                       H'00,H'00,H'17,H'0F,H'A0,H'00,H'02,H'A0,H'00,H'02,H'A0,H'00,H'02,H'F9,H'EB,H'E0,
             A00002A000 +                       H'00,H'07,H'D7,H'0F,H'A0,H'00,H'02,H'A0,H'00,H'02,H'A0,H'00,H'02,H'C0,H'29,H'C0,
             02E02BE000 +                       H'00,H'03,H'97,H'0F,H'A0,H'00,H'02,H'A0,H'00,H'02,H'A0,H'00,H'02,H'C0,H'28,H'80,
             07D70FA000 +                       H'00,H'01,H'17,H'0F
             02A00002A0   
             0002FFE9C0   
             0003970FA0   
             0002A00002   
             A00002C028   
             800001170F   
             A00002A000   
             02A00002C0   
             2800000017   
             0FA00002A0   
             0002A00002   
             FFE8000000   
             170FA00002   




SH SERIES C/C++ Compiler (Ver. 6.0C)                                                                 30-Jan-2015 21:53:33  PAGE   68


SCT OFFSET   CODE       C LABEL     INSTRUCTION OPERAND    COMMENT

             A00002A000   
             02C0280000   
             00170FA000   
             02A00002A0   
             0002C02800   
             0000170FA0   
             0002A00002   
             A00002F9EB   
             E00007D70F   
             A00002A000   
             02A00002C0   
             29C0000397   
             0FA00002A0   
             0002A00002   
             C028800001   
             170F         
    000023DA A00002A000             .DATA.B     H'A0,H'00,H'02,H'A0,H'00,H'02,H'A0,H'00,H'02,H'FF,H'E8,H'00,H'00,H'00,H'17,H'0F,
             02A00002FF +                       H'A0,H'00,H'02,H'A0,H'00,H'02,H'A0,H'00,H'02,H'EC,H'68,H'00,H'00,H'00,H'14,H'03,
             E800000017 +                       H'A0,H'00,H'02,H'A0,H'00,H'02,H'A0,H'00,H'02,H'C8,H'28,H'00,H'00,H'00,H'16,H'07,
             0FA00002A0 +                       H'A0,H'00,H'02,H'A0,H'00,H'02,H'A0,H'00,H'02,H'C9,H'28,H'00,H'00,H'00,H'17,H'0F,
             0002A00002 +                       H'A0,H'00,H'02,H'A0,H'00,H'02,H'A0,H'00,H'02,H'C1,H'28,H'00,H'00,H'00,H'17,H'9F,
             EC68000000 +                       H'A0,H'00,H'02,H'A0,H'00,H'02,H'A0,H'00,H'02,H'E3,H'68,H'00,H'00,H'00,H'17,H'FF,
             1403A00002 +                       H'A0,H'00,H'02,H'A0,H'00,H'02,H'A0,H'00,H'02,H'FF,H'E8,H'00,H'00,H'00,H'17,H'FF,
             A00002A000 +                       H'A0,H'00,H'02,H'A0,H'00,H'02,H'A0,H'00,H'02,H'FF,H'E8,H'00,H'00,H'00,H'17,H'FF,
             02C8280000 +                       H'BF,H'FF,H'FE,H'BF,H'FF,H'FE,H'BF,H'FF,H'FE,H'FF,H'EF,H'FF,H'FF,H'FF,H'F7,H'FF,
             001607A000 +                       H'80,H'00,H'00,H'80,H'00,H'00,H'80,H'00,H'00,H'FF,H'E0,H'00,H'00,H'00,H'07,H'FF,
             02A00002A0 +                       H'FF,H'FF,H'FF,H'FF,H'FF,H'FF,H'FF,H'FF,H'FF,H'FF,H'FF,H'FF,H'FF,H'FF,H'FF,H'FF
             0002C92800   
             0000170FA0   
             0002A00002   
             A00002C128   
             000000179F   
             A00002A000   
             02A00002E3   
             6800000017   
             FFA00002A0   
             0002A00002   
             FFE8000000   
             17FFA00002   
             A00002A000   
             02FFE80000   
             0017FFBFFF   
             FEBFFFFEBF   
             FFFEFFEFFF   
             FFFFF7FF80   
             0000800000   
             800000FFE0   
             00000007FF   
             FFFFFFFFFF   
             FFFFFFFFFF   
             FFFFFFFFFF   
             FF           
    0000248A              __$tirageFinalAlpha:             ; static: tirageFinalAlpha
    0000248A 0000000000             .DATA.B     H'00,H'00,H'00,H'00,H'00,H'00,H'00,H'00,H'00,H'00,H'00,H'00,H'00,H'00,H'00,H'00,
             0000000000 +                       H'00,H'00,H'00,H'00,H'00,H'00,H'00,H'00,H'00,H'00,H'00,H'00,H'00,H'00,H'00,H'00,
             0000000000 +                       H'00,H'00,H'00,H'00,H'00,H'00,H'00,H'00,H'00,H'00,H'7F,H'FF,H'FF,H'FF,H'FC,H'00,
             0000000000 +                       H'00,H'00,H'00,H'00,H'00,H'00,H'00,H'00,H'00,H'00,H'7F,H'FF,H'FF,H'FF,H'FC,H'00,




SH SERIES C/C++ Compiler (Ver. 6.0C)                                                                 30-Jan-2015 21:53:33  PAGE   69


SCT OFFSET   CODE       C LABEL     INSTRUCTION OPERAND    COMMENT

             0000000000 +                       H'00,H'00,H'00,H'00,H'00,H'00,H'00,H'00,H'00,H'00,H'7F,H'FF,H'FF,H'FF,H'FC,H'00,
             0000000000 +                       H'00,H'00,H'00,H'00,H'00,H'00,H'00,H'00,H'00,H'00,H'7F,H'FF,H'FF,H'FF,H'FC,H'00,
             0000000000 +                       H'00,H'00,H'00,H'00,H'00,H'00,H'00,H'00,H'00,H'00,H'7F,H'FF,H'FF,H'FF,H'FC,H'00,
             0000000000 +                       H'00,H'00,H'00,H'00,H'00,H'00,H'00,H'00,H'00,H'00,H'7F,H'FF,H'FF,H'FF,H'FC,H'00,
             00007FFFFF +                       H'00,H'00,H'00,H'00,H'00,H'00,H'00,H'00,H'00,H'00,H'7F,H'FF,H'FF,H'FF,H'FC,H'00,
             FFFC000000 +                       H'00,H'00,H'00,H'00,H'00,H'00,H'00,H'00,H'00,H'00,H'7F,H'FF,H'FF,H'FF,H'FC,H'00,
             0000000000 +                       H'00,H'00,H'00,H'00,H'00,H'00,H'00,H'00,H'00,H'00,H'7F,H'FF,H'FF,H'FF,H'FC,H'00,
             0000007FFF +                       H'00,H'00,H'00,H'00,H'00,H'00,H'00,H'00,H'00,H'00,H'7F,H'FF,H'FF,H'FF,H'FC,H'00,
             FFFFFC0000 +                       H'00,H'00,H'00,H'00,H'00,H'00,H'00,H'00,H'00,H'00,H'7F,H'FF,H'FF,H'FF,H'FC,H'00,
             0000000000 +                       H'00,H'00,H'00,H'00
             000000007F   
             FFFFFFFC00   
             0000000000   
             0000000000   
             7FFFFFFFFC   
             0000000000   
             0000000000   
             007FFFFFFF   
             FC00000000   
             0000000000   
             00007FFFFF   
             FFFC000000   
             0000000000   
             0000007FFF   
             FFFFFC0000   
             0000000000   
             000000007F   
             FFFFFFFC00   
             0000000000   
             0000000000   
             7FFFFFFFFC   
             0000000000   
             0000000000   
             007FFFFFFF   
             FC00000000   
             0000000000   
             00007FFFFF   
             FFFC000000   
             0000         
    0000255E 0000000000             .DATA.B     H'00,H'00,H'00,H'00,H'00,H'00,H'7F,H'FF,H'FF,H'FF,H'FC,H'00,H'00,H'00,H'00,H'00,
             007FFFFFFF +                       H'00,H'00,H'00,H'00,H'00,H'00,H'7F,H'FF,H'FF,H'FF,H'FC,H'00,H'00,H'00,H'00,H'00,
             FC00000000 +                       H'00,H'00,H'00,H'00,H'00,H'00,H'7F,H'FF,H'FF,H'FF,H'FC,H'00,H'00,H'00,H'00,H'00,
             0000000000 +                       H'00,H'00,H'00,H'00,H'00,H'00,H'7F,H'FF,H'FF,H'FF,H'FC,H'00,H'00,H'00,H'00,H'00,
             00007FFFFF +                       H'00,H'00,H'00,H'00,H'00,H'00,H'00,H'00,H'00,H'00,H'00,H'00,H'00,H'00,H'00,H'00,
             FFFC000000 +                       H'00,H'00,H'00,H'00,H'00,H'00,H'00,H'00,H'00,H'00,H'00,H'00,H'00,H'00,H'00,H'00,
             0000000000 +                       H'00,H'00,H'00,H'00,H'00,H'00,H'00,H'00,H'00,H'00,H'00,H'00,H'00,H'00,H'00,H'00,
             0000007FFF +                       H'00,H'00,H'00,H'00,H'00,H'00,H'00,H'00,H'00,H'00,H'00,H'00,H'00,H'00,H'00,H'00,
             FFFFFC0000 +                       H'00,H'00,H'00,H'00,H'00,H'00,H'00,H'00,H'00,H'00,H'00,H'00,H'1F,H'FF,H'FC,H'1F,
             0000000000 +                       H'FF,H'FC,H'1F,H'FF,H'FC,H'00,H'00,H'00,H'00,H'00,H'00,H'00,H'1F,H'FF,H'FC,H'1F,
             000000007F +                       H'FF,H'FC,H'1F,H'FF,H'FC,H'00,H'00,H'00,H'00,H'00,H'00,H'00,H'1F,H'FF,H'FC,H'1F,
             FFFFFFFC00 +                       H'FF,H'FC,H'1F,H'FF,H'FC,H'00,H'00,H'00,H'00,H'00,H'00,H'00,H'1F,H'FF,H'FC,H'1F,
             0000000000 +                       H'FF,H'FC,H'1F,H'FF,H'FC,H'00,H'00,H'00,H'00,H'00,H'00,H'00,H'1F,H'FF,H'FC,H'1F,
             0000000000 +                       H'FF,H'FC,H'1F,H'FF
             0000000000   
             0000000000   
             0000000000   
             0000000000   




SH SERIES C/C++ Compiler (Ver. 6.0C)                                                                 30-Jan-2015 21:53:33  PAGE   70


SCT OFFSET   CODE       C LABEL     INSTRUCTION OPERAND    COMMENT

             0000000000   
             0000000000   
             0000000000   
             0000000000   
             0000000000   
             0000000000   
             0000000000   
             0000000000   
             0000000000   
             0000000000   
             1FFFFC1FFF   
             FC1FFFFC00   
             0000000000   
             001FFFFC1F   
             FFFC1FFFFC   
             0000000000   
             00001FFFFC   
             1FFFFC1FFF   
             FC00000000   
             0000001FFF   
             FC1FFFFC1F   
             FFFC000000   
             000000001F   
             FFFC1FFFFC   
             1FFF         
    00002632 FC00000000             .DATA.B     H'FC,H'00,H'00,H'00,H'00,H'00,H'00,H'00,H'1F,H'FF,H'FC,H'1F,H'FF,H'FC,H'1F,H'FF,
             0000001FFF +                       H'FC,H'00,H'00,H'00,H'00,H'00,H'00,H'00,H'1F,H'FF,H'FC,H'1F,H'FF,H'FC,H'1F,H'FF,
             FC1FFFFC1F +                       H'FC,H'00,H'00,H'00,H'00,H'00,H'00,H'00,H'1F,H'FF,H'FC,H'1F,H'FF,H'FC,H'1F,H'FF,
             FFFC000000 +                       H'FC,H'00,H'00,H'00,H'00,H'00,H'00,H'00,H'1F,H'FF,H'FC,H'1F,H'FF,H'FC,H'1F,H'FF,
             000000001F +                       H'FC,H'00,H'00,H'00,H'00,H'00,H'00,H'00,H'1F,H'FF,H'FC,H'1F,H'FF,H'FC,H'1F,H'FF,
             FFFC1FFFFC +                       H'FC,H'00,H'00,H'00,H'00,H'00,H'00,H'00,H'1F,H'FF,H'FC,H'1F,H'FF,H'FC,H'1F,H'FF,
             1FFFFC0000 +                       H'FC,H'00,H'00,H'00,H'00,H'00,H'00,H'00,H'1F,H'FF,H'FC,H'1F,H'FF,H'FC,H'1F,H'FF,
             0000000000 +                       H'FC,H'00,H'00,H'00,H'00,H'00,H'00,H'00,H'1F,H'FF,H'FC,H'1F,H'FF,H'FC,H'1F,H'FF,
             1FFFFC1FFF +                       H'FC,H'00,H'00,H'00,H'00,H'00,H'00,H'00,H'1F,H'FF,H'FC,H'1F,H'FF,H'FC,H'1F,H'FF,
             FC1FFFFC00 +                       H'FC,H'00,H'00,H'00,H'00,H'00,H'00,H'00,H'1F,H'FF,H'FC,H'1F,H'FF,H'FC,H'1F,H'FF,
             0000000000 +                       H'FC,H'00,H'00,H'00,H'00,H'00,H'00,H'00,H'1F,H'FF,H'FC,H'1F,H'FF,H'FC,H'1F,H'FF,
             001FFFFC1F +                       H'FC,H'00,H'00,H'00,H'00,H'00,H'00,H'00,H'1F,H'FF,H'FC,H'1F,H'FF,H'FC,H'1F,H'FF,
             FFFC1FFFFC +                       H'FC,H'00,H'00,H'00,H'00,H'00,H'00,H'00,H'1F,H'FF,H'FC,H'1F,H'FF,H'FC,H'1F,H'FF,
             0000000000 +                       H'FC,H'00,H'00,H'00
             00001FFFFC   
             1FFFFC1FFF   
             FC00000000   
             0000001FFF   
             FC1FFFFC1F   
             FFFC000000   
             000000001F   
             FFFC1FFFFC   
             1FFFFC0000   
             0000000000   
             1FFFFC1FFF   
             FC1FFFFC00   
             0000000000   
             001FFFFC1F   
             FFFC1FFFFC   
             0000000000   
             00001FFFFC   
             1FFFFC1FFF   




SH SERIES C/C++ Compiler (Ver. 6.0C)                                                                 30-Jan-2015 21:53:33  PAGE   71


SCT OFFSET   CODE       C LABEL     INSTRUCTION OPERAND    COMMENT

             FC00000000   
             0000001FFF   
             FC1FFFFC1F   
             FFFC000000   
             000000001F   
             FFFC1FFFFC   
             1FFFFC0000   
             0000000000   
             1FFFFC1FFF   
             FC1FFFFC00   
             0000         
    00002706 000000001F             .DATA.B     H'00,H'00,H'00,H'00,H'1F,H'FF,H'FC,H'1F,H'FF,H'FC,H'1F,H'FF,H'FC,H'00,H'00,H'00,
             FFFC1FFFFC +                       H'00,H'00,H'00,H'00,H'1F,H'FF,H'FC,H'1F,H'FF,H'FC,H'1F,H'FF,H'FC,H'00,H'00,H'00,
             1FFFFC0000 +                       H'00,H'00,H'00,H'00,H'1F,H'FF,H'FC,H'1F,H'FF,H'FC,H'1F,H'FF,H'FC,H'00,H'00,H'00,
             0000000000 +                       H'00,H'00,H'00,H'00,H'1F,H'FF,H'FC,H'1F,H'FF,H'FC,H'1F,H'FF,H'FC,H'00,H'00,H'00,
             1FFFFC1FFF +                       H'00,H'00,H'00,H'00,H'1F,H'FF,H'FC,H'1F,H'FF,H'FC,H'1F,H'FF,H'FC,H'00,H'00,H'00,
             FC1FFFFC00 +                       H'00,H'00,H'00,H'00,H'1F,H'FF,H'FC,H'1F,H'FF,H'FC,H'1F,H'FF,H'FC,H'00,H'00,H'00,
             0000000000 +                       H'00,H'00,H'00,H'00,H'1F,H'FF,H'FC,H'1F,H'FF,H'FC,H'1F,H'FF,H'FC,H'00,H'00,H'00,
             001FFFFC1F +                       H'00,H'00,H'00,H'00,H'1F,H'FF,H'FC,H'1F,H'FF,H'FC,H'1F,H'FF,H'FC,H'00,H'00,H'00,
             FFFC1FFFFC +                       H'00,H'00,H'00,H'00,H'1F,H'FF,H'FC,H'1F,H'FF,H'FC,H'1F,H'FF,H'FC,H'00,H'00,H'00,
             0000000000 +                       H'00,H'00,H'00,H'00,H'1F,H'FF,H'FC,H'1F,H'FF,H'FC,H'1F,H'FF,H'FC,H'00,H'00,H'00,
             00001FFFFC +                       H'00,H'00,H'00,H'00,H'1F,H'FF,H'FC,H'1F,H'FF,H'FC,H'1F,H'FF,H'FC,H'00,H'00,H'00,
             1FFFFC1FFF +                       H'00,H'00,H'00,H'00,H'1F,H'FF,H'FC,H'1F,H'FF,H'FC,H'1F,H'FF,H'FC,H'00,H'00,H'00,
             FC00000000 +                       H'00,H'00,H'00,H'00,H'1F,H'FF,H'FC,H'1F,H'FF,H'FC,H'1F,H'FF,H'FC,H'00,H'00,H'00,
             0000001FFF +                       H'00,H'00,H'00,H'00
             FC1FFFFC1F   
             FFFC000000   
             000000001F   
             FFFC1FFFFC   
             1FFFFC0000   
             0000000000   
             1FFFFC1FFF   
             FC1FFFFC00   
             0000000000   
             001FFFFC1F   
             FFFC1FFFFC   
             0000000000   
             00001FFFFC   
             1FFFFC1FFF   
             FC00000000   
             0000001FFF   
             FC1FFFFC1F   
             FFFC000000   
             000000001F   
             FFFC1FFFFC   
             1FFFFC0000   
             0000000000   
             1FFFFC1FFF   
             FC1FFFFC00   
             0000000000   
             001FFFFC1F   
             FFFC1FFFFC   
             0000000000   
             0000         
    000027DA 1FFFFC1FFF             .DATA.B     H'1F,H'FF,H'FC,H'1F,H'FF,H'FC,H'1F,H'FF,H'FC,H'00,H'00,H'00,H'00,H'00,H'00,H'00,
             FC1FFFFC00 +                       H'1F,H'FF,H'FC,H'1F,H'FF,H'FC,H'1F,H'FF,H'FC,H'00,H'00,H'00,H'00,H'00,H'00,H'00,
             0000000000 +                       H'1F,H'FF,H'FC,H'1F,H'FF,H'FC,H'1F,H'FF,H'FC,H'00,H'00,H'00,H'00,H'00,H'00,H'00,




SH SERIES C/C++ Compiler (Ver. 6.0C)                                                                 30-Jan-2015 21:53:33  PAGE   72


SCT OFFSET   CODE       C LABEL     INSTRUCTION OPERAND    COMMENT

             001FFFFC1F +                       H'1F,H'FF,H'FC,H'1F,H'FF,H'FC,H'1F,H'FF,H'FC,H'00,H'00,H'00,H'00,H'00,H'00,H'00,
             FFFC1FFFFC +                       H'1F,H'FF,H'FC,H'1F,H'FF,H'FC,H'1F,H'FF,H'FC,H'00,H'00,H'00,H'00,H'00,H'00,H'00,
             0000000000 +                       H'1F,H'FF,H'FC,H'1F,H'FF,H'FC,H'1F,H'FF,H'FC,H'00,H'00,H'00,H'00,H'00,H'00,H'00,
             00001FFFFC +                       H'1F,H'FF,H'FC,H'1F,H'FF,H'FC,H'1F,H'FF,H'FC,H'00,H'00,H'00,H'00,H'00,H'00,H'00,
             1FFFFC1FFF +                       H'1F,H'FF,H'FC,H'1F,H'FF,H'FC,H'1F,H'FF,H'FC,H'00,H'00,H'00,H'00,H'00,H'00,H'00,
             FC00000000 +                       H'00,H'00,H'00,H'00,H'00,H'00,H'00,H'00,H'00,H'00,H'00,H'00,H'00,H'00,H'00,H'00,
             0000001FFF +                       H'00,H'00,H'00,H'00,H'00,H'00,H'00,H'00,H'00,H'00,H'00,H'00,H'00,H'00,H'00,H'00,
             FC1FFFFC1F +                       H'00,H'00,H'00,H'00,H'00,H'00,H'00,H'00,H'00,H'00,H'00,H'00,H'00,H'00,H'00,H'00
             FFFC000000   
             000000001F   
             FFFC1FFFFC   
             1FFFFC0000   
             0000000000   
             1FFFFC1FFF   
             FC1FFFFC00   
             0000000000   
             001FFFFC1F   
             FFFC1FFFFC   
             0000000000   
             00001FFFFC   
             1FFFFC1FFF   
             FC00000000   
             0000000000   
             0000000000   
             0000000000   
             0000000000   
             0000000000   
             0000000000   
             0000000000   
             0000000000   
             0000000000   
             0000000000   
             00           
    0000288A              __$moto:                         ; static: moto
    0000288A 00880003F8             .DATA.B     H'00,H'88,H'00,H'03,H'F8,H'00,H'07,H'F8,H'00,H'0F,H'F0,H'00,H'0F,H'88,H'00,H'0F,
             0007F8000F +                       H'88,H'00,H'0C,H'F8,H'00,H'0C,H'B4,H'00,H'06,H'88,H'00,H'05,H'08,H'00,H'02,H'F7,
             F0000F8800 +                       H'40,H'04,H'0F,H'C0,H'07,H'DF,H'C0,H'FF,H'2F,H'AE,H'9F,H'9F,H'15,H'41,H'CE,H'2F,
             0F88000CF8 +                       H'7F,H'FE,H'3D,H'57,H'FC,H'2B,H'3C,H'00,H'1E,H'00,H'00,H'00,H'00,H'00,H'00,H'00,
             000CB40006 +                       H'00,H'00,H'00,H'00,H'00,H'00,H'00,H'00,H'00,H'88,H'00,H'03,H'F8,H'00,H'07,H'F8,
             8800050800 +                       H'00,H'0F,H'F0,H'00,H'0F,H'88,H'00,H'0F,H'88,H'00,H'0C,H'F8,H'00,H'0C,H'B4,H'00,
             02F740040F +                       H'06,H'88,H'00,H'05,H'08,H'00,H'02,H'F7,H'40,H'04,H'0F,H'C0,H'07,H'DF,H'C0,H'FF,
             C007DFC0FF +                       H'2F,H'AE,H'FF,H'9F,H'1F,H'7F,H'CE,H'3F,H'7F,H'FE,H'3F,H'7F,H'FC,H'3F,H'3C,H'00,
             2FAE9F9F15 +                       H'1E,H'00,H'00,H'00,H'00,H'00,H'00,H'00,H'00,H'00,H'00,H'00,H'00,H'00,H'00,H'00
             41CE2F7FFE   
             3D57FC2B3C   
             001E000000   
             0000000000   
             0000000000   
             0000008800   
             03F80007F8   
             000FF0000F   
             88000F8800   
             0CF8000CB4   
             0006880005   
             080002F740   
             040FC007DF   
             C0FF2FAEFF   




SH SERIES C/C++ Compiler (Ver. 6.0C)                                                                 30-Jan-2015 21:53:33  PAGE   73


SCT OFFSET   CODE       C LABEL     INSTRUCTION OPERAND    COMMENT

             9F1F7FCE3F   
             7FFE3F7FFC   
             3F3C001E00   
             0000000000   
             0000000000   
             00000000     
    0000291A              __$motoAir:                      ; static: motoAir
    0000291A 0420000FE0             .DATA.B     H'04,H'20,H'00,H'0F,H'E0,H'00,H'1F,H'C0,H'00,H'3F,H'20,H'00,H'3E,H'20,H'00,H'3F,
             001FC0003F +                       H'E0,H'00,H'3A,H'D0,H'00,H'3A,H'20,H'00,H'1E,H'26,H'80,H'0B,H'CF,H'80,H'0D,H'AF,
             20003E2000 +                       H'80,H'02,H'5F,H'80,H'07,H'87,H'5C,H'07,H'9F,H'36,H'7F,H'CF,H'7A,H'CC,H'EE,H'5E,
             3FE0003AD0 +                       H'63,H'FC,H'6A,H'3F,H'C0,H'3C,H'35,H'00,H'00,H'1E,H'00,H'00,H'00,H'00,H'00,H'00,
             003A20001E +                       H'00,H'00,H'00,H'00,H'00,H'00,H'00,H'00,H'04,H'20,H'00,H'0F,H'E0,H'00,H'1F,H'C0,
             26800BCF80 +                       H'00,H'3F,H'20,H'00,H'3E,H'20,H'00,H'3F,H'E0,H'00,H'3A,H'D0,H'00,H'3A,H'20,H'00,
             0DAF80025F +                       H'1E,H'26,H'80,H'0B,H'CF,H'80,H'0D,H'AF,H'80,H'02,H'5F,H'80,H'07,H'87,H'5C,H'07,
             8007875C07 +                       H'9E,H'3E,H'7F,H'CF,H'7E,H'FF,H'EE,H'7E,H'7F,H'FC,H'7E,H'3F,H'C0,H'3C,H'3F,H'00,
             9F367FCF7A +                       H'00,H'1E,H'00,H'00,H'00,H'00,H'00,H'00,H'00,H'00,H'00,H'00,H'00,H'00,H'00,H'00
             CCEE5E63FC   
             6A3FC03C35   
             00001E0000   
             0000000000   
             0000000000   
             0000042000   
             0FE0001FC0   
             003F20003E   
             20003FE000   
             3AD0003A20   
             001E26800B   
             CF800DAF80   
             025F800787   
             5C079E3E7F   
             CF7EFFEE7E   
             7FFC7E3FC0   
             3C3F00001E   
             0000000000   
             0000000000   
             00000000     
    000029AA              __$moto2:                        ; static: moto2
    000029AA 00880003F8             .DATA.B     H'00,H'88,H'00,H'03,H'F8,H'00,H'07,H'F8,H'00,H'0F,H'F0,H'00,H'0F,H'88,H'00,H'0F,
             0007F8000F +                       H'88,H'00,H'0C,H'F8,H'00,H'0C,H'B4,H'00,H'06,H'88,H'00,H'05,H'08,H'00,H'02,H'F7,
             F0000F8800 +                       H'40,H'04,H'0F,H'C0,H'07,H'DF,H'C0,H'FF,H'2F,H'AE,H'9F,H'9F,H'1B,H'41,H'CE,H'3D,
             0F88000CF8 +                       H'7F,H'FE,H'2F,H'6B,H'FC,H'35,H'3C,H'00,H'1E,H'00,H'00,H'00,H'00,H'00,H'00,H'00,
             000CB40006 +                       H'00,H'00,H'00,H'00,H'00,H'00,H'00,H'00
             8800050800   
             02F740040F   
             C007DFC0FF   
             2FAE9F9F1B   
             41CE3D7FFE   
             2F6BFC353C   
             001E000000   
             0000000000   
             0000000000   
             0000         
    000029F2              __$motoAlpha:                    ; static: motoAlpha
    000029F2 FF77FFFC07             .DATA.B     H'FF,H'77,H'FF,H'FC,H'07,H'FF,H'F8,H'07,H'FF,H'F0,H'0F,H'FF,H'F0,H'07,H'FF,H'F0,
             FFF807FFF0 +                       H'07,H'FF,H'F0,H'07,H'FF,H'F0,H'03,H'FF,H'F8,H'07,H'FF,H'F8,H'07,H'FF,H'FC,H'00,
             0FFFF007FF +                       H'BF,H'F8,H'00,H'3F,H'F8,H'00,H'3F,H'00,H'00,H'51,H'00,H'00,H'E0,H'80,H'01,H'C0,
             F007FFF007 +                       H'80,H'01,H'C0,H'80,H'03,H'C0,H'C7,H'FF,H'E1,H'FF,H'FF,H'FF,H'FF,H'FF,H'FF,H'FF,




SH SERIES C/C++ Compiler (Ver. 6.0C)                                                                 30-Jan-2015 21:53:33  PAGE   74


SCT OFFSET   CODE       C LABEL     INSTRUCTION OPERAND    COMMENT

             FFF003FFF8 +                       H'FF,H'FF,H'FF,H'FF,H'FF,H'FF,H'FF,H'FF
             07FFF807FF   
             FC00BFF800   
             3FF8003F00   
             00510000E0   
             8001C08001   
             C08003C0C7   
             FFE1FFFFFF   
             FFFFFFFFFF   
             FFFFFFFFFF   
             FFFF         
    00002A3A              __$motoAirAlpha:                 ; static: motoAirAlpha
    00002A3A FBDFFFF01F             .DATA.B     H'FB,H'DF,H'FF,H'F0,H'1F,H'FF,H'E0,H'3F,H'FF,H'C0,H'1F,H'FF,H'C0,H'1F,H'FF,H'C0,
             FFE03FFFC0 +                       H'1F,H'FF,H'C0,H'0F,H'FF,H'C0,H'1F,H'FF,H'E0,H'19,H'7F,H'F0,H'30,H'7F,H'F0,H'10,
             1FFFC01FFF +                       H'7F,H'FC,H'00,H'7F,H'F8,H'00,H'A3,H'F8,H'00,H'C1,H'80,H'00,H'81,H'00,H'01,H'81,
             C01FFFC00F +                       H'80,H'03,H'81,H'C0,H'3F,H'C3,H'C0,H'FF,H'FF,H'E1,H'FF,H'FF,H'FF,H'FF,H'FF,H'FF,
             FFC01FFFE0 +                       H'FF,H'FF,H'FF,H'FF,H'FF,H'FF,H'FF,H'FF
             197FF0307F   
             F0107FFC00   
             7FF800A3F8   
             00C1800081   
             0001818003   
             81C03FC3C0   
             FFFFE1FFFF   
             FFFFFFFFFF   
             FFFFFFFFFF   
             FFFF         
    00002A82              __$teleporteur1:                 ; static: teleporteur1
    00002A82 81423C7EE7             .DATA.B     H'81,H'42,H'3C,H'7E,H'E7,H'C3,H'81,H'81,H'81,H'81,H'C3,H'E7,H'7E,H'3C,H'42,H'81,
             C381818181 +                       H'81,H'42,H'3C,H'7E,H'EF,H'DF,H'FF,H'FF,H'FF,H'FF,H'FF,H'FF,H'7E,H'3C,H'42,H'81
             C3E77E3C42   
             8181423C7E   
             EFDFFFFFFF   
             FFFFFF7E3C   
             4281         
    00002AA2              __$teleporteur2:                 ; static: teleporteur2
    00002AA2 000081423C             .DATA.B     H'00,H'00,H'81,H'42,H'3C,H'7E,H'E7,H'81,H'81,H'E7,H'7E,H'3C,H'42,H'81,H'00,H'00,
             7EE78181E7 +                       H'00,H'00,H'81,H'42,H'3C,H'7E,H'EF,H'DF,H'FF,H'FF,H'7E,H'3C,H'42,H'81,H'00,H'00
             7E3C428100   
             0000008142   
             3C7EEFDFFF   
             FF7E3C4281   
             0000         
    00002AC2              __$teleporteur3:                 ; static: teleporteur3
    00002AC2 0000000081             .DATA.B     H'00,H'00,H'00,H'00,H'81,H'42,H'3C,H'7E,H'81,H'7E,H'3C,H'42,H'81,H'00,H'00,H'00,
             423C7E817E +                       H'00,H'00,H'00,H'00,H'81,H'42,H'3C,H'7E,H'DF,H'7E,H'3C,H'42,H'81,H'00,H'00,H'00
             3C42810000   
             0000000000   
             81423C7EDF   
             7E3C428100   
             0000         
    00002AE2              __$teleporteur1Alpha:            ; static: teleporteur1Alpha
    00002AE2 7EBDC38100             .DATA.B     H'7E,H'BD,H'C3,H'81,H'00,H'00,H'00,H'00,H'00,H'00,H'00,H'00,H'81,H'C3,H'BD,H'7E
             0000000000   
             000081C3BD   
             7E           
    00002AF2              __$teleporteur2Alpha:            ; static: teleporteur2Alpha




SH SERIES C/C++ Compiler (Ver. 6.0C)                                                                 30-Jan-2015 21:53:33  PAGE   75


SCT OFFSET   CODE       C LABEL     INSTRUCTION OPERAND    COMMENT

    00002AF2 FFFF7EBDC3             .DATA.B     H'FF,H'FF,H'7E,H'BD,H'C3,H'81,H'00,H'00,H'00,H'00,H'81,H'C3,H'BD,H'7E,H'FF,H'FF
             8100000000   
             81C3BD7EFF   
             FF           
    00002B02              __$teleporteur3Alpha:            ; static: teleporteur3Alpha
    00002B02 FFFFFFFF7E             .DATA.B     H'FF,H'FF,H'FF,H'FF,H'7E,H'BD,H'C3,H'81,H'00,H'81,H'C3,H'BD,H'7E,H'FF,H'FF,H'FF
             BDC3810081   
             C3BD7EFFFF   
             FF           
    00002B12              __$gravitySolUp1:                ; static: gravitySolUp1
    00002B12 FE007F803F             .DATA.B     H'FE,H'00,H'7F,H'80,H'3F,H'E0,H'38,H'10,H'31,H'F0,H'13,H'E0,H'17,H'F0,H'17,H'B0,
             E0381031F0 +                       H'13,H'F8,H'12,H'10,H'0E,H'10,H'05,H'E0,H'04,H'90,H'03,H'D0,H'04,H'A0,H'09,H'20,
             13E017F017 +                       H'0E,H'E0,H'00,H'00,H'00,H'00,H'00,H'00,H'00,H'00,H'00,H'00,H'00,H'00,H'00,H'00,
             B013F81210 +                       H'FE,H'00,H'7F,H'80,H'3F,H'E0,H'38,H'10,H'31,H'F0,H'13,H'E0,H'17,H'F0,H'17,H'B0,
             0E1005E004 +                       H'13,H'F8,H'12,H'10,H'0E,H'10,H'07,H'E0,H'07,H'F0,H'03,H'F0,H'07,H'E0,H'0F,H'E0,
             9003D004A0 +                       H'0E,H'E0,H'00,H'00,H'00,H'00,H'00,H'00,H'00,H'00,H'00,H'00,H'00,H'00,H'00,H'00
             09200EE000   
             0000000000   
             0000000000   
             000000FE00   
             7F803FE038   
             1031F013E0   
             17F017B013   
             F812100E10   
             07E007F003   
             F007E00FE0   
             0EE0000000   
             0000000000   
             0000000000   
             00           
    00002B72              __$gravitySolUp2:                ; static: gravitySolUp2
    00002B72 FE007F803F             .DATA.B     H'FE,H'00,H'7F,H'80,H'3F,H'E0,H'38,H'10,H'31,H'F0,H'13,H'E0,H'17,H'F0,H'17,H'B0,
             E0381031F0 +                       H'13,H'F8,H'12,H'10,H'0E,H'10,H'05,H'E0,H'04,H'90,H'07,H'D0,H'04,H'60,H'03,H'40,
             13E017F017 +                       H'01,H'C0,H'00,H'00,H'00,H'00,H'00,H'00,H'00,H'00,H'00,H'00,H'00,H'00,H'00,H'00,
             B013F81210 +                       H'FE,H'00,H'7F,H'80,H'3F,H'E0,H'38,H'10,H'31,H'F0,H'13,H'E0,H'17,H'F0,H'17,H'B0,
             0E1005E004 +                       H'13,H'F8,H'12,H'10,H'0E,H'10,H'07,H'E0,H'07,H'F0,H'07,H'F0,H'07,H'E0,H'03,H'C0,
             9007D00460 +                       H'01,H'C0,H'00,H'00,H'00,H'00,H'00,H'00,H'00,H'00,H'00,H'00,H'00,H'00,H'00,H'00
             034001C000   
             0000000000   
             0000000000   
             000000FE00   
             7F803FE038   
             1031F013E0   
             17F017B013   
             F812100E10   
             07E007F007   
             F007E003C0   
             01C0000000   
             0000000000   
             0000000000   
             00           
    00002BD2              __$gravitySolDown1:              ; static: gravitySolDown1
    00002BD2 0EE0092004             .DATA.B     H'0E,H'E0,H'09,H'20,H'04,H'A0,H'03,H'D0,H'04,H'90,H'05,H'E0,H'0E,H'10,H'12,H'10,
             A003D00490 +                       H'13,H'F8,H'17,H'B0,H'17,H'F0,H'13,H'E0,H'31,H'F0,H'38,H'10,H'3F,H'E0,H'7F,H'80,
             05E00E1012 +                       H'FE,H'00,H'00,H'00,H'00,H'00,H'00,H'00,H'00,H'00,H'00,H'00,H'00,H'00,H'00,H'00,
             1013F817B0 +                       H'0E,H'E0,H'0F,H'E0,H'07,H'E0,H'03,H'F0,H'07,H'F0,H'07,H'E0,H'0E,H'10,H'12,H'10,
             17F013E031 +                       H'13,H'F8,H'17,H'B0,H'17,H'F0,H'13,H'E0,H'31,H'F0,H'38,H'10,H'3F,H'E0,H'7F,H'80,




SH SERIES C/C++ Compiler (Ver. 6.0C)                                                                 30-Jan-2015 21:53:33  PAGE   76


SCT OFFSET   CODE       C LABEL     INSTRUCTION OPERAND    COMMENT

             F038103FE0 +                       H'FE,H'00,H'00,H'00,H'00,H'00,H'00,H'00,H'00,H'00,H'00,H'00,H'00,H'00,H'00,H'00
             7F80FE0000   
             0000000000   
             0000000000   
             0000000EE0   
             0FE007E003   
             F007F007E0   
             0E10121013   
             F817B017F0   
             13E031F038   
             103FE07F80   
             FE00000000   
             0000000000   
             0000000000   
             00           
    00002C32              __$gravitySolDown2:              ; static: gravitySolDown2
    00002C32 01C0034004             .DATA.B     H'01,H'C0,H'03,H'40,H'04,H'60,H'07,H'D0,H'04,H'90,H'05,H'E0,H'0E,H'10,H'12,H'10,
             6007D00490 +                       H'13,H'F8,H'17,H'B0,H'17,H'F0,H'13,H'E0,H'31,H'F0,H'38,H'10,H'3F,H'E0,H'7F,H'80,
             05E00E1012 +                       H'FE,H'00,H'00,H'00,H'00,H'00,H'00,H'00,H'00,H'00,H'00,H'00,H'00,H'00,H'00,H'00,
             1013F817B0 +                       H'01,H'C0,H'03,H'C0,H'07,H'E0,H'07,H'F0,H'07,H'F0,H'07,H'E0,H'0E,H'10,H'12,H'10,
             17F013E031 +                       H'13,H'F8,H'17,H'B0,H'17,H'F0,H'13,H'E0,H'31,H'F0,H'38,H'10,H'3F,H'E0,H'7F,H'80,
             F038103FE0 +                       H'FE,H'00,H'00,H'00,H'00,H'00,H'00,H'00,H'00,H'00,H'00,H'00,H'00,H'00,H'00,H'00
             7F80FE0000   
             0000000000   
             0000000000   
             00000001C0   
             03C007E007   
             F007F007E0   
             0E10121013   
             F817B017F0   
             13E031F038   
             103FE07F80   
             FE00000000   
             0000000000   
             0000000000   
             00           
    00002C92              __$gravitySolUp1Alpha:           ; static: gravitySolUp1Alpha
    00002C92 01FF807FC0             .DATA.B     H'01,H'FF,H'80,H'7F,H'C0,H'1F,H'C0,H'0F,H'C0,H'0F,H'E0,H'1F,H'E0,H'0F,H'E0,H'0F,
             1FC00FC00F +                       H'E0,H'07,H'E0,H'0F,H'F0,H'0F,H'F8,H'1F,H'F8,H'0F,H'FC,H'0F,H'F8,H'1F,H'F0,H'1F,
             E01FE00FE0 +                       H'F1,H'1F,H'FF,H'FF,H'FF,H'FF,H'FF,H'FF,H'FF,H'FF,H'FF,H'FF,H'FF,H'FF,H'FF,H'FF
             0FE007E00F   
             F00FF81FF8   
             0FFC0FF81F   
             F01FF11FFF   
             FFFFFFFFFF   
             FFFFFFFFFF   
             FFFFFF       
    00002CC2              __$gravitySolUp2Alpha:           ; static: gravitySolUp2Alpha
    00002CC2 01FF807FC0             .DATA.B     H'01,H'FF,H'80,H'7F,H'C0,H'1F,H'C0,H'0F,H'C0,H'0F,H'E0,H'1F,H'E0,H'0F,H'E0,H'0F,
             1FC00FC00F +                       H'E0,H'07,H'E0,H'0F,H'F0,H'0F,H'F8,H'1F,H'F8,H'0F,H'F8,H'0F,H'F8,H'1F,H'FC,H'3F,
             E01FE00FE0 +                       H'FE,H'3F,H'FF,H'FF,H'FF,H'FF,H'FF,H'FF,H'FF,H'FF,H'FF,H'FF,H'FF,H'FF,H'FF,H'FF
             0FE007E00F   
             F00FF81FF8   
             0FF80FF81F   
             FC3FFE3FFF   
             FFFFFFFFFF   
             FFFFFFFFFF   




SH SERIES C/C++ Compiler (Ver. 6.0C)                                                                 30-Jan-2015 21:53:33  PAGE   77


SCT OFFSET   CODE       C LABEL     INSTRUCTION OPERAND    COMMENT

             FFFFFF       
    00002CF2              __$gravitySolDown1Alpha:         ; static: gravitySolDown1Alpha
    00002CF2 F11FF01FF8             .DATA.B     H'F1,H'1F,H'F0,H'1F,H'F8,H'1F,H'FC,H'0F,H'F8,H'0F,H'F8,H'1F,H'F0,H'0F,H'E0,H'0F,
             1FFC0FF80F +                       H'E0,H'07,H'E0,H'0F,H'E0,H'0F,H'E0,H'1F,H'C0,H'0F,H'C0,H'0F,H'C0,H'1F,H'80,H'7F,
             F81FF00FE0 +                       H'01,H'FF,H'FF,H'FF,H'FF,H'FF,H'FF,H'FF,H'FF,H'FF,H'FF,H'FF,H'FF,H'FF,H'FF,H'FF
             0FE007E00F   
             E00FE01FC0   
             0FC00FC01F   
             807F01FFFF   
             FFFFFFFFFF   
             FFFFFFFFFF   
             FFFFFF       
    00002D22              __$gravitySolDown2Alpha:         ; static: gravitySolDown2Alpha
    00002D22 FE3FFC3FF8             .DATA.B     H'FE,H'3F,H'FC,H'3F,H'F8,H'1F,H'F8,H'0F,H'F8,H'0F,H'F8,H'1F,H'F0,H'0F,H'E0,H'0F,
             1FF80FF80F +                       H'E0,H'07,H'E0,H'0F,H'E0,H'0F,H'E0,H'1F,H'C0,H'0F,H'C0,H'0F,H'C0,H'1F,H'80,H'7F,
             F81FF00FE0 +                       H'01,H'FF,H'FF,H'FF,H'FF,H'FF,H'FF,H'FF,H'FF,H'FF,H'FF,H'FF,H'FF,H'FF,H'FF,H'FF
             0FE007E00F   
             E00FE01FC0   
             0FC00FC01F   
             807F01FFFF   
             FFFFFFFFFF   
             FFFFFFFFFF   
             FFFFFF       
    00002D52              __$bird1:                        ; static: bird1
    00002D52 0078000185             .DATA.B     H'00,H'78,H'00,H'01,H'85,H'00,H'0F,H'FE,H'80,H'F4,H'CC,H'40,H'84,H'58,H'20,H'4A,
             000FFE80F4 +                       H'28,H'58,H'29,H'28,H'84,H'7C,H'97,H'02,H'22,H'09,H'01,H'11,H'09,H'FF,H'0E,H'F9,
             CC40845820 +                       H'02,H'04,H'01,H'04,H'03,H'01,H'18,H'00,H'FF,H'E0,H'00,H'00,H'00,H'00,H'00,H'00,
             4A28582928 +                       H'00,H'78,H'00,H'01,H'85,H'00,H'0F,H'FE,H'80,H'FC,H'CC,H'40,H'FC,H'58,H'20,H'7A,
             847C970222 +                       H'38,H'58,H'39,H'38,H'84,H'7C,H'9F,H'02,H'3E,H'0F,H'01,H'1F,H'0F,H'FF,H'0F,H'FF,
             09011109FF +                       H'02,H'07,H'FF,H'04,H'03,H'FF,H'18,H'00,H'FF,H'E0,H'00,H'00,H'00,H'00,H'00,H'00
             0EF9020401   
             0403011800   
             FFE0000000   
             0000000078   
             000185000F   
             FE80FCCC40   
             FC58207A38   
             583938847C   
             9F023E0F01   
             1F0FFF0FFF   
             0207FF0403   
             FF1800FFE0   
             0000000000   
             00           
    00002DB2              __$bird2:                        ; static: bird2
    00002DB2 0078000185             .DATA.B     H'00,H'78,H'00,H'01,H'85,H'00,H'0F,H'7E,H'80,H'F1,H'4C,H'40,H'81,H'78,H'20,H'41,
             000F7E80F1 +                       H'48,H'58,H'20,H'F8,H'84,H'78,H'07,H'02,H'27,H'F9,H'01,H'12,H'09,H'FF,H'0D,H'F9,
             4C40817820 +                       H'02,H'04,H'01,H'04,H'03,H'01,H'18,H'00,H'FF,H'E0,H'00,H'00,H'00,H'00,H'00,H'00,
             41485820F8 +                       H'00,H'78,H'00,H'01,H'85,H'00,H'0F,H'7E,H'80,H'FF,H'4C,H'40,H'FF,H'78,H'20,H'7F,
             8478070227 +                       H'48,H'58,H'3F,H'F8,H'84,H'7F,H'FF,H'02,H'3F,H'FF,H'01,H'1E,H'0F,H'FF,H'0F,H'FF,
             F9011209FF +                       H'02,H'07,H'FF,H'04,H'03,H'FF,H'18,H'00,H'FF,H'E0,H'00,H'00,H'00,H'00,H'00,H'00
             0DF9020401   
             0403011800   
             FFE0000000   
             0000000078   
             000185000F   
             7E80FF4C40   




SH SERIES C/C++ Compiler (Ver. 6.0C)                                                                 30-Jan-2015 21:53:33  PAGE   78


SCT OFFSET   CODE       C LABEL     INSTRUCTION OPERAND    COMMENT

             FF78207F48   
             583FF8847F   
             FF023FFF01   
             1E0FFF0FFF   
             0207FF0403   
             FF1800FFE0   
             0000000000   
             00           
    00002E12              __$bird3:                        ; static: bird3
    00002E12 0078000185             .DATA.B     H'00,H'78,H'00,H'01,H'85,H'00,H'0F,H'7E,H'80,H'F1,H'4C,H'40,H'81,H'78,H'20,H'41,
             000F7E80F1 +                       H'48,H'58,H'20,H'F8,H'84,H'78,H'07,H'02,H'20,H'F9,H'01,H'11,H'09,H'FF,H'0A,H'09,
             4C40817820 +                       H'02,H'0C,H'91,H'04,H'09,H'21,H'18,H'0A,H'3F,H'E0,H'04,H'40,H'00,H'03,H'80,H'00,
             41485820F8 +                       H'00,H'78,H'00,H'01,H'85,H'00,H'0F,H'7E,H'80,H'FF,H'4C,H'40,H'FF,H'78,H'20,H'7F,
             8478070220 +                       H'48,H'58,H'3F,H'F8,H'84,H'7F,H'FF,H'02,H'3F,H'FF,H'01,H'1F,H'0F,H'FF,H'0E,H'0F,
             F9011109FF +                       H'02,H'0C,H'9F,H'04,H'09,H'3F,H'18,H'0A,H'3F,H'E0,H'04,H'40,H'00,H'03,H'80,H'00
             0A09020C91   
             040921180A   
             3FE0044000   
             0380000078   
             000185000F   
             7E80FF4C40   
             FF78207F48   
             583FF8847F   
             FF023FFF01   
             1F0FFF0E0F   
             020C9F0409   
             3F180A3FE0   
             0440000380   
             00           
    00002E72              __$bird1Alpha:                   ; static: bird1Alpha
    00002E72 FF87FFFE02             .DATA.B     H'FF,H'87,H'FF,H'FE,H'02,H'FF,H'F0,H'00,H'7F,H'00,H'00,H'3F,H'00,H'00,H'1F,H'80,
             FFF0007F00 +                       H'00,H'07,H'C0,H'00,H'03,H'80,H'00,H'01,H'C0,H'00,H'00,H'E0,H'00,H'00,H'F0,H'00,
             003F00001F +                       H'01,H'F8,H'00,H'03,H'FC,H'00,H'07,H'FF,H'00,H'1F,H'FF,H'FF,H'FF,H'FF,H'FF,H'FF
             800007C000   
             03800001C0   
             0000E00000   
             F00001F800   
             03FC0007FF   
             001FFFFFFF   
             FFFFFF       
    00002EA2              __$tank1:                        ; static: tank1
    00002EA2 00180001E7             .DATA.B     H'00,H'18,H'00,H'01,H'E7,H'00,H'02,H'18,H'E0,H'01,H'85,H'F0,H'00,H'63,H'10,H'01,
             000218E001 +                       H'D1,H'08,H'02,H'2A,H'88,H'02,H'46,H'84,H'02,H'8C,H'44,H'01,H'16,H'24,H'02,H'A2,
             85F0006310 +                       H'1C,H'04,H'55,H'04,H'04,H'28,H'C4,H'0A,H'A0,H'24,H'07,H'D0,H'58,H'00,H'6F,H'A0,
             01D108022A +                       H'00,H'90,H'40,H'01,H'60,H'20,H'02,H'57,H'50,H'01,H'88,H'88,H'00,H'77,H'70,H'00,
             8802468402 +                       H'00,H'00,H'00,H'00,H'00,H'00,H'00,H'00,H'00,H'18,H'00,H'01,H'E7,H'00,H'03,H'FF,
             8C44011624 +                       H'E0,H'01,H'FF,H'F0,H'00,H'7F,H'10,H'01,H'FF,H'08,H'03,H'EF,H'88,H'03,H'C7,H'84,
             02A21C0455 +                       H'03,H'8F,H'C4,H'01,H'17,H'E4,H'02,H'A3,H'FC,H'04,H'77,H'FC,H'04,H'3F,H'FC,H'0A,
             040428C40A +                       H'BF,H'FC,H'07,H'FF,H'F8,H'00,H'7F,H'E0,H'00,H'FF,H'C0,H'01,H'7F,H'E0,H'02,H'5F,
             A02407D058 +                       H'D0,H'01,H'88,H'88,H'00,H'77,H'70,H'00,H'00,H'00,H'00,H'00,H'00,H'00,H'00,H'00
             006FA00090   
             4001602002   
             5750018888   
             0077700000   
             0000000000   
             0000001800   
             01E70003FF   




SH SERIES C/C++ Compiler (Ver. 6.0C)                                                                 30-Jan-2015 21:53:33  PAGE   79


SCT OFFSET   CODE       C LABEL     INSTRUCTION OPERAND    COMMENT

             E001FFF000   
             7F1001FF08   
             03EF8803C7   
             84038FC401   
             17E402A3FC   
             0477FC043F   
             FC0ABFFC07   
             FFF8007FE0   
             00FFC0017F   
             E0025FD001   
             8888007770   
             0000000000   
             00000000     
    00002F32              __$tank2:                        ; static: tank2
    00002F32 00180001E7             .DATA.B     H'00,H'18,H'00,H'01,H'E7,H'00,H'02,H'18,H'E0,H'01,H'85,H'F0,H'00,H'63,H'10,H'01,
             000218E001 +                       H'D1,H'08,H'02,H'2A,H'88,H'02,H'46,H'84,H'02,H'8C,H'44,H'01,H'16,H'24,H'02,H'A2,
             85F0006310 +                       H'1C,H'04,H'55,H'04,H'04,H'28,H'C4,H'0A,H'A0,H'24,H'07,H'C7,H'D8,H'00,H'7E,H'40,
             01D108022A +                       H'00,H'41,H'20,H'00,H'80,H'D0,H'01,H'5D,H'48,H'02,H'22,H'30,H'01,H'DD,H'C0,H'00,
             8802468402 +                       H'00,H'00,H'00,H'00,H'00,H'00,H'00,H'00,H'00,H'18,H'00,H'01,H'E7,H'00,H'03,H'FF,
             8C44011624 +                       H'E0,H'01,H'FF,H'F0,H'00,H'7F,H'10,H'01,H'FF,H'08,H'03,H'EF,H'88,H'03,H'C7,H'84,
             02A21C0455 +                       H'03,H'8F,H'C4,H'01,H'17,H'E4,H'02,H'A3,H'FC,H'04,H'77,H'FC,H'04,H'3F,H'FC,H'0A,
             040428C40A +                       H'BF,H'FC,H'07,H'FF,H'D8,H'00,H'7F,H'C0,H'00,H'7F,H'E0,H'00,H'FF,H'D0,H'01,H'7F,
             A02407C7D8 +                       H'48,H'02,H'22,H'30,H'01,H'DD,H'C0,H'00,H'00,H'00,H'00,H'00,H'00,H'00,H'00,H'00
             007E400041   
             200080D001   
             5D48022230   
             01DDC00000   
             0000000000   
             0000001800   
             01E70003FF   
             E001FFF000   
             7F1001FF08   
             03EF8803C7   
             84038FC401   
             17E402A3FC   
             0477FC043F   
             FC0ABFFC07   
             FFD8007FC0   
             007FE000FF   
             D0017F4802   
             223001DDC0   
             0000000000   
             00000000     
    00002FC2              __$tank3:                        ; static: tank3
    00002FC2 00180001E7             .DATA.B     H'00,H'18,H'00,H'01,H'E7,H'00,H'02,H'18,H'E0,H'01,H'85,H'F0,H'00,H'63,H'10,H'01,
             000218E001 +                       H'D1,H'08,H'02,H'2A,H'88,H'02,H'46,H'84,H'5A,H'8C,H'44,H'A5,H'16,H'24,H'80,H'A2,
             85F0006310 +                       H'1C,H'BB,H'54,H'04,H'65,H'1E,H'04,H'A1,H'11,H'84,H'81,H'10,H'78,H'A3,H'18,H'00,
             01D108022A +                       H'4E,H'A8,H'00,H'50,H'40,H'00,H'20,H'00,H'00,H'00,H'00,H'00,H'00,H'00,H'00,H'00,
             880246845A +                       H'00,H'00,H'00,H'00,H'00,H'00,H'00,H'00,H'00,H'18,H'00,H'01,H'FF,H'00,H'03,H'FF,
             8C44A51624 +                       H'E0,H'01,H'FF,H'F0,H'00,H'7F,H'10,H'01,H'FF,H'08,H'03,H'EF,H'88,H'03,H'C7,H'84,
             80A21CBB54 +                       H'5B,H'8F,H'C4,H'BF,H'17,H'E4,H'9F,H'A3,H'FC,H'BF,H'57,H'FC,H'7F,H'1F,H'FC,H'BF,
             04651E04A1 +                       H'11,H'FC,H'9F,H'10,H'78,H'BF,H'18,H'00,H'5E,H'A8,H'00,H'50,H'40,H'00,H'20,H'00,
             1184811078 +                       H'00,H'00,H'00,H'00,H'00,H'00,H'00,H'00,H'00,H'00,H'00,H'00,H'00,H'00,H'00,H'00
             A318004EA8   
             0050400020   
             0000000000   
             0000000000   




SH SERIES C/C++ Compiler (Ver. 6.0C)                                                                 30-Jan-2015 21:53:33  PAGE   80


SCT OFFSET   CODE       C LABEL     INSTRUCTION OPERAND    COMMENT

             0000000000   
             0000001800   
             01FF0003FF   
             E001FFF000   
             7F1001FF08   
             03EF8803C7   
             845B8FC4BF   
             17E49FA3FC   
             BF57FC7F1F   
             FCBF11FC9F   
             1078BF1800   
             5EA8005040   
             0020000000   
             0000000000   
             0000000000   
             00000000     
    00003052              __$tank4:                        ; static: tank4
    00003052 00180001E7             .DATA.B     H'00,H'18,H'00,H'01,H'E7,H'00,H'02,H'18,H'E0,H'01,H'85,H'F0,H'00,H'63,H'10,H'01,
             000218E001 +                       H'D1,H'08,H'02,H'2A,H'88,H'02,H'46,H'84,H'5A,H'8C,H'44,H'A5,H'16,H'24,H'80,H'A2,
             85F0006310 +                       H'1C,H'BB,H'54,H'04,H'65,H'1E,H'04,H'A1,H'11,H'84,H'81,H'10,H'78,H'A3,H'18,H'00,
             01D108022A +                       H'4E,H'A8,H'00,H'51,H'50,H'00,H'21,H'50,H'00,H'01,H'10,H'00,H'00,H'A0,H'00,H'00,
             880246845A +                       H'A0,H'00,H'00,H'40,H'00,H'00,H'00,H'00,H'00,H'18,H'00,H'01,H'FF,H'00,H'03,H'FF,
             8C44A51624 +                       H'E0,H'01,H'FF,H'F0,H'00,H'7F,H'10,H'01,H'FF,H'08,H'03,H'EF,H'88,H'03,H'C7,H'84,
             80A21CBB54 +                       H'5B,H'8F,H'C4,H'BF,H'17,H'E4,H'9F,H'A3,H'FC,H'BF,H'57,H'FC,H'7F,H'1F,H'FC,H'BF,
             04651E04A1 +                       H'11,H'FC,H'9F,H'10,H'78,H'BF,H'18,H'00,H'5E,H'A8,H'00,H'51,H'50,H'00,H'21,H'50,
             1184811078 +                       H'00,H'01,H'10,H'00,H'00,H'A0,H'00,H'00,H'A0,H'00,H'00,H'40,H'00,H'00,H'00,H'00
             A318004EA8   
             0051500021   
             5000011000   
             00A00000A0   
             0000400000   
             0000001800   
             01FF0003FF   
             E001FFF000   
             7F1001FF08   
             03EF8803C7   
             845B8FC4BF   
             17E49FA3FC   
             BF57FC7F1F   
             FCBF11FC9F   
             1078BF1800   
             5EA8005150   
             0021500001   
             100000A000   
             00A0000040   
             00000000     
    000030E2              __$tank5:                        ; static: tank5
    000030E2 00180001E7             .DATA.B     H'00,H'18,H'00,H'01,H'E7,H'00,H'02,H'18,H'E0,H'01,H'85,H'F0,H'00,H'63,H'10,H'01,
             000218E001 +                       H'D1,H'08,H'02,H'2A,H'88,H'02,H'46,H'84,H'5A,H'8C,H'44,H'A5,H'16,H'24,H'80,H'A2,
             85F0006310 +                       H'1C,H'BB,H'54,H'04,H'65,H'1E,H'04,H'A1,H'11,H'84,H'81,H'10,H'78,H'A3,H'18,H'00,
             01D108022A +                       H'4E,H'A8,H'00,H'52,H'E8,H'00,H'22,H'48,H'00,H'01,H'10,H'00,H'01,H'10,H'00,H'00,
             880246845A +                       H'A0,H'00,H'00,H'40,H'00,H'00,H'00,H'00,H'00,H'18,H'00,H'01,H'FF,H'00,H'03,H'FF,
             8C44A51624 +                       H'E0,H'01,H'FF,H'F0,H'00,H'7F,H'10,H'01,H'FF,H'08,H'03,H'EF,H'88,H'03,H'C7,H'84,
             80A21CBB54 +                       H'5B,H'8F,H'C4,H'BF,H'17,H'E4,H'9F,H'A3,H'FC,H'BF,H'57,H'FC,H'7F,H'1F,H'FC,H'BF,
             04651E04A1 +                       H'11,H'FC,H'9F,H'10,H'78,H'BF,H'18,H'00,H'5E,H'A8,H'00,H'52,H'E8,H'00,H'22,H'48,
             1184811078 +                       H'00,H'01,H'10,H'00,H'01,H'10,H'00,H'00,H'A0,H'00,H'00,H'40,H'00,H'00,H'00,H'00
             A318004EA8   




SH SERIES C/C++ Compiler (Ver. 6.0C)                                                                 30-Jan-2015 21:53:33  PAGE   81


SCT OFFSET   CODE       C LABEL     INSTRUCTION OPERAND    COMMENT

             0052E80022   
             4800011000   
             01100000A0   
             0000400000   
             0000001800   
             01FF0003FF   
             E001FFF000   
             7F1001FF08   
             03EF8803C7   
             845B8FC4BF   
             17E49FA3FC   
             BF57FC7F1F   
             FCBF11FC9F   
             1078BF1800   
             5EA80052E8   
             0022480001   
             1000011000   
             00A0000040   
             00000000     
    00003172              __$tank1Alpha:                   ; static: tank1Alpha
    00003172 FFE7FFFE00             .DATA.B     H'FF,H'E7,H'FF,H'FE,H'00,H'FF,H'FC,H'00,H'1F,H'FE,H'00,H'0F,H'FF,H'80,H'0F,H'FE,
             FFFC001FFE +                       H'00,H'07,H'FC,H'00,H'07,H'FC,H'00,H'03,H'FC,H'00,H'03,H'FE,H'00,H'03,H'FC,H'00,
             000FFF800F +                       H'03,H'F8,H'00,H'03,H'F8,H'00,H'03,H'F0,H'00,H'03,H'F8,H'00,H'07,H'FF,H'80,H'1F,
             FE0007FC00 +                       H'FF,H'00,H'3F,H'FE,H'00,H'1F,H'FC,H'00,H'0F,H'FE,H'00,H'07,H'FF,H'88,H'8F,H'FF,
             07FC0003FC +                       H'FF,H'FF,H'FF,H'FF,H'FF,H'FF,H'FF,H'FF
             0003FE0003   
             FC0003F800   
             03F80003F0   
             0003F80007   
             FF801FFF00   
             3FFE001FFC   
             000FFE0007   
             FF888FFFFF   
             FFFFFFFFFF   
             FFFF         
    000031BA              __$tank2Alpha:                   ; static: tank2Alpha
    000031BA FFE7FFFE00             .DATA.B     H'FF,H'E7,H'FF,H'FE,H'00,H'FF,H'FC,H'00,H'1F,H'FE,H'00,H'0F,H'FF,H'80,H'0F,H'FE,
             FFFC001FFE +                       H'00,H'07,H'FC,H'00,H'07,H'FC,H'00,H'03,H'FC,H'00,H'03,H'FE,H'00,H'03,H'FC,H'00,
             000FFF800F +                       H'03,H'F8,H'00,H'03,H'F8,H'00,H'03,H'F0,H'00,H'03,H'F8,H'00,H'27,H'FF,H'80,H'3F,
             FE0007FC00 +                       H'FF,H'80,H'1F,H'FF,H'00,H'0F,H'FE,H'00,H'07,H'FC,H'00,H'0F,H'FE,H'22,H'3F,H'FF,
             07FC0003FC +                       H'FF,H'FF,H'FF,H'FF,H'FF,H'FF,H'FF,H'FF
             0003FE0003   
             FC0003F800   
             03F80003F0   
             0003F80027   
             FF803FFF80   
             1FFF000FFE   
             0007FC000F   
             FE223FFFFF   
             FFFFFFFFFF   
             FFFF         
    00003202              __$tank3Alpha:                   ; static: tank3Alpha
    00003202 FFE7FFFE00             .DATA.B     H'FF,H'E7,H'FF,H'FE,H'00,H'FF,H'FC,H'00,H'1F,H'FE,H'00,H'0F,H'FF,H'80,H'0F,H'FE,
             FFFC001FFE +                       H'00,H'07,H'FC,H'00,H'07,H'FC,H'00,H'03,H'A4,H'00,H'03,H'00,H'00,H'03,H'00,H'00,
             000FFF800F +                       H'03,H'00,H'00,H'03,H'80,H'00,H'03,H'00,H'0E,H'03,H'00,H'0F,H'87,H'00,H'07,H'FF,
             FE0007FC00 +                       H'81,H'17,H'FF,H'8F,H'BF,H'FF,H'DF,H'FF,H'FF,H'FF,H'FF,H'FF,H'FF,H'FF,H'FF,H'FF,
             07FC0003A4 +                       H'FF,H'FF,H'FF,H'FF,H'FF,H'FF,H'FF,H'FF




SH SERIES C/C++ Compiler (Ver. 6.0C)                                                                 30-Jan-2015 21:53:33  PAGE   82


SCT OFFSET   CODE       C LABEL     INSTRUCTION OPERAND    COMMENT

             0003000003   
             0000030000   
             0380000300   
             0E03000F87   
             0007FF8117   
             FF8FBFFFDF   
             FFFFFFFFFF   
             FFFFFFFFFF   
             FFFFFFFFFF   
             FFFF         
    0000324A              __$tank4Alpha:                   ; static: tank4Alpha
    0000324A FFE7FFFE00             .DATA.B     H'FF,H'E7,H'FF,H'FE,H'00,H'FF,H'FC,H'00,H'1F,H'FE,H'00,H'0F,H'FF,H'80,H'0F,H'FE,
             FFFC001FFE +                       H'00,H'07,H'FC,H'00,H'07,H'FC,H'00,H'03,H'A4,H'00,H'03,H'00,H'00,H'03,H'00,H'00,
             000FFF800F +                       H'03,H'00,H'00,H'03,H'80,H'00,H'03,H'00,H'0E,H'03,H'00,H'0F,H'87,H'00,H'07,H'FF,
             FE0007FC00 +                       H'80,H'07,H'FF,H'8E,H'0F,H'FF,H'DE,H'0F,H'FF,H'FE,H'0F,H'FF,H'FF,H'1F,H'FF,H'FF,
             07FC0003A4 +                       H'1F,H'FF,H'FF,H'BF,H'FF,H'FF,H'FF,H'FF
             0003000003   
             0000030000   
             0380000300   
             0E03000F87   
             0007FF8007   
             FF8E0FFFDE   
             0FFFFE0FFF   
             FF1FFFFF1F   
             FFFFBFFFFF   
             FFFF         
    00003292              __$tank5Alpha:                   ; static: tank5Alpha
    00003292 FFE7FFFE00             .DATA.B     H'FF,H'E7,H'FF,H'FE,H'00,H'FF,H'FC,H'00,H'1F,H'FE,H'00,H'0F,H'FF,H'80,H'0F,H'FE,
             FFFC001FFE +                       H'00,H'07,H'FC,H'00,H'07,H'FC,H'00,H'03,H'A4,H'00,H'03,H'00,H'00,H'03,H'00,H'00,
             000FFF800F +                       H'03,H'00,H'00,H'03,H'80,H'00,H'03,H'00,H'0E,H'03,H'00,H'0F,H'87,H'00,H'07,H'FF,
             FE0007FC00 +                       H'80,H'07,H'FF,H'8C,H'07,H'FF,H'DC,H'07,H'FF,H'FE,H'0F,H'FF,H'FE,H'0F,H'FF,H'FF,
             07FC0003A4 +                       H'1F,H'FF,H'FF,H'BF,H'FF,H'FF,H'FF,H'FF
             0003000003   
             0000030000   
             0380000300   
             0E03000F87   
             0007FF8007   
             FF8C07FFDC   
             07FFFE0FFF   
             FE0FFFFF1F   
             FFFFBFFFFF   
             FFFF         
    000032DA              __$dragonMilieu:                 ; static: dragonMilieu
    000032DA FFE0000040             .DATA.B     H'FF,H'E0,H'00,H'00,H'40,H'97,H'80,H'00,H'30,H'88,H'40,H'00,H'0F,H'08,H'20,H'00,
             9780003088 +                       H'10,H'90,H'18,H'40,H'0F,H'20,H'67,H'A0,H'C4,H'93,H'80,H'10,H'3A,H'54,H'40,H'10,
             40000F0820 +                       H'04,H'49,H'A4,H'10,H'8F,H'89,H'9B,H'A0,H'82,H'48,H'00,H'40,H'02,H'48,H'06,H'80,
             0010901840 +                       H'3A,H'A4,H'19,H'00,H'C5,H'53,H'E0,H'00,H'00,H'8C,H'00,H'00,H'01,H'F0,H'00,H'00,
             0F2067A0C4 +                       H'FF,H'E0,H'00,H'00,H'7F,H'97,H'80,H'00,H'3F,H'88,H'40,H'00,H'0F,H'08,H'20,H'00,
             9380103A54 +                       H'1F,H'90,H'18,H'40,H'0F,H'20,H'67,H'A0,H'C7,H'93,H'80,H'10,H'FF,H'D7,H'C0,H'10,
             40100449A4 +                       H'FF,H'CF,H'E4,H'10,H'FF,H'8F,H'FF,H'A0,H'FF,H'CF,H'FF,H'C0,H'FF,H'CF,H'FF,H'80,
             108F899BA0 +                       H'FF,H'E7,H'F9,H'00,H'C5,H'F3,H'E0,H'00,H'00,H'FC,H'00,H'00,H'01,H'F0,H'00,H'00
             8248004002   
             4806803AA4   
             1900C553E0   
             00008C0000   
             01F00000FF   
             E000007F97   




SH SERIES C/C++ Compiler (Ver. 6.0C)                                                                 30-Jan-2015 21:53:33  PAGE   83


SCT OFFSET   CODE       C LABEL     INSTRUCTION OPERAND    COMMENT

             80003F8840   
             000F082000   
             1F9018400F   
             2067A0C793   
             8010FFD7C0   
             10FFCFE410   
             FF8FFFA0FF   
             CFFFC0FFCF   
             FF80FFE7F9   
             00C5F3E000   
             00FC000001   
             F00000       
    0000335A              __$dragonBas:                    ; static: dragonBas
    0000335A FFE0000040             .DATA.B     H'FF,H'E0,H'00,H'00,H'40,H'90,H'00,H'00,H'30,H'8F,H'80,H'00,H'0F,H'08,H'40,H'00,
             900000308F +                       H'10,H'88,H'20,H'00,H'0F,H'10,H'18,H'40,H'C4,H'A0,H'67,H'A0,H'3A,H'53,H'80,H'10,
             80000F0840 +                       H'04,H'54,H'40,H'10,H'8F,H'88,H'24,H'10,H'82,H'4B,H'5B,H'A0,H'02,H'4B,H'40,H'40,
             0010882000 +                       H'3A,H'A8,H'40,H'00,H'C5,H'54,H'92,H'00,H'00,H'8A,H'6D,H'00,H'01,H'F1,H'01,H'00,
             0F101840C4 +                       H'00,H'00,H'FE,H'00,H'FF,H'E0,H'00,H'00,H'7F,H'90,H'00,H'00,H'3F,H'8F,H'80,H'00,
             A067A03A53 +                       H'0F,H'08,H'40,H'00,H'1F,H'88,H'20,H'00,H'0F,H'10,H'18,H'40,H'C7,H'A0,H'67,H'A0,
             8010045440 +                       H'FB,H'D3,H'80,H'10,H'FF,H'D7,H'C0,H'10,H'FF,H'8F,H'E4,H'10,H'FF,H'CF,H'DB,H'A0,
             108F882410 +                       H'FF,H'CF,H'C0,H'40,H'FF,H'EF,H'C0,H'00,H'C5,H'F7,H'92,H'00,H'00,H'FB,H'FF,H'00,
             824B5BA002 +                       H'01,H'F1,H'FF,H'00,H'00,H'00,H'FE,H'00
             4B40403AA8   
             4000C55492   
             00008A6D00   
             01F1010000   
             00FE00FFE0   
             00007F9000   
             003F8F8000   
             0F0840001F   
             8820000F10   
             1840C7A067   
             A0FBD38010   
             FFD7C010FF   
             8FE410FFCF   
             DBA0FFCFC0   
             40FFEFC000   
             C5F7920000   
             FBFF0001F1   
             FF000000FE   
             00           
    000033E2              __$dragonHaut:                   ; static: dragonHaut
    000033E2 FFE7800040             .DATA.B     H'FF,H'E7,H'80,H'00,H'40,H'98,H'40,H'00,H'30,H'88,H'20,H'00,H'0F,H'10,H'18,H'40,
             9840003088 +                       H'10,H'A0,H'67,H'A0,H'0F,H'13,H'80,H'10,H'C4,H'94,H'40,H'10,H'3A,H'48,H'24,H'10,
             20000F1018 +                       H'04,H'4B,H'1B,H'A0,H'8F,H'8B,H'00,H'40,H'82,H'48,H'06,H'80,H'02,H'44,H'19,H'00,
             4010A067A0 +                       H'3A,H'A3,H'E0,H'00,H'C5,H'52,H'00,H'00,H'00,H'8C,H'00,H'00,H'01,H'F0,H'00,H'00,
             0F138010C4 +                       H'FF,H'E7,H'80,H'00,H'7F,H'98,H'40,H'00,H'3F,H'88,H'20,H'00,H'0F,H'10,H'18,H'40,
             9440103A48 +                       H'1F,H'A0,H'67,H'A0,H'0F,H'13,H'80,H'10,H'C7,H'97,H'C0,H'10,H'FF,H'CF,H'E4,H'10,
             2410044B1B +                       H'FF,H'CF,H'FF,H'A0,H'FF,H'8F,H'FF,H'C0,H'FF,H'CF,H'FF,H'80,H'FF,H'C7,H'F9,H'00,
             A08F8B0040 +                       H'FF,H'E3,H'E0,H'00,H'C5,H'F2,H'00,H'00,H'00,H'FC,H'00,H'00,H'01,H'F0,H'00,H'00
             8248068002   
             4419003AA3   
             E000C55200   
             00008C0000   
             01F00000FF   
             E780007F98   
             40003F8820   




SH SERIES C/C++ Compiler (Ver. 6.0C)                                                                 30-Jan-2015 21:53:33  PAGE   84


SCT OFFSET   CODE       C LABEL     INSTRUCTION OPERAND    COMMENT

             000F101840   
             1FA067A00F   
             138010C797   
             C010FFCFE4   
             10FFCFFFA0   
             FF8FFFC0FF   
             CFFF80FFC7   
             F900FFE3E0   
             00C5F20000   
             00FC000001   
             F00000       
    00003462              __$dragonMilieuAlpha:            ; static: dragonMilieuAlpha
    00003462 001FFFF080             .DATA.B     H'00,H'1F,H'FF,H'F0,H'80,H'08,H'7F,H'F0,H'C0,H'00,H'3F,H'F0,H'F0,H'00,H'1F,H'F0,
             087FF0C000 +                       H'E0,H'00,H'07,H'B0,H'F0,H'00,H'00,H'10,H'38,H'00,H'00,H'00,H'00,H'00,H'00,H'00,
             3FF0F0001F +                       H'00,H'00,H'00,H'00,H'00,H'00,H'00,H'10,H'00,H'00,H'00,H'30,H'00,H'00,H'00,H'70,
             F0E00007B0 +                       H'00,H'00,H'06,H'F0,H'3A,H'00,H'1F,H'F0,H'FF,H'03,H'FF,H'F0,H'FE,H'0F,H'FF,H'F0
             F000001038   
             0000000000   
             0000000000   
             0000000010   
             0000003000   
             0000700000   
             06F03A001F   
             F0FF03FFF0   
             FE0FFFF0     
    000034A2              __$dragonBasAlpha:               ; static: dragonBasAlpha
    000034A2 001FFFF080             .DATA.B     H'00,H'1F,H'FF,H'F0,H'80,H'0F,H'FF,H'F0,H'C0,H'00,H'7F,H'F0,H'F0,H'00,H'3F,H'F0,
             0FFFF0C000 +                       H'E0,H'00,H'1F,H'F0,H'F0,H'00,H'07,H'B0,H'38,H'00,H'00,H'10,H'00,H'00,H'00,H'00,
             7FF0F0003F +                       H'00,H'00,H'00,H'00,H'00,H'00,H'00,H'00,H'00,H'00,H'24,H'10,H'00,H'00,H'3F,H'B0,
             F0E0001FF0 +                       H'00,H'00,H'3F,H'F0,H'3A,H'08,H'6D,H'F0,H'FF,H'04,H'00,H'F0,H'FE,H'0E,H'00,H'F0,
             F00007B038 +                       H'FF,H'FF,H'01,H'F0
             0000100000   
             0000000000   
             0000000000   
             0000241000   
             003FB00000   
             3FF03A086D   
             F0FF0400F0   
             FE0E00F0FF   
             FF01F0       
    000034E6              __$dragonHautAlpha:              ; static: dragonHautAlpha
    000034E6 00187FF080             .DATA.B     H'00,H'18,H'7F,H'F0,H'80,H'00,H'3F,H'F0,H'C0,H'00,H'1F,H'F0,H'F0,H'00,H'07,H'B0,
             003FF0C000 +                       H'E0,H'00,H'00,H'10,H'F0,H'00,H'00,H'00,H'38,H'00,H'00,H'00,H'00,H'00,H'00,H'00,
             1FF0F00007 +                       H'00,H'00,H'00,H'10,H'00,H'00,H'00,H'30,H'00,H'00,H'00,H'70,H'00,H'00,H'06,H'F0,
             B0E0000010 +                       H'00,H'00,H'1F,H'F0,H'3A,H'01,H'FF,H'F0,H'FF,H'03,H'FF,H'F0,H'FE,H'0F,H'FF,H'F0
             F000000038   
             0000000000   
             0000000000   
             1000000030   
             0000007000   
             0006F00000   
             1FF03A01FF   
             F0FF03FFF0   
             FE0FFFF0     
    00003526              __$glace:                        ; static: glace
    00003526 0000000000             .DATA.B     H'00,H'00,H'00,H'00,H'00,H'00,H'03,H'C0,H'0C,H'30,H'10,H'08,H'20,H'78,H'39,H'84,
             0003C00C30 +                       H'46,H'04,H'41,H'04,H'41,H'12,H'92,H'82,H'84,H'41,H'84,H'41,H'78,H'3E,H'07,H'C0,




SH SERIES C/C++ Compiler (Ver. 6.0C)                                                                 30-Jan-2015 21:53:33  PAGE   85


SCT OFFSET   CODE       C LABEL     INSTRUCTION OPERAND    COMMENT

             1008207839 +                       H'00,H'00,H'00,H'00,H'00,H'00,H'00,H'00,H'0F,H'F0,H'10,H'08,H'22,H'78,H'39,H'84,
             8446044104 +                       H'46,H'04,H'41,H'04,H'49,H'12,H'92,H'92,H'84,H'41,H'84,H'41,H'78,H'3E,H'07,H'C0,
             4112928284 +                       H'00,H'00,H'00,H'00,H'00,H'00,H'00,H'00,H'00,H'00,H'1F,H'F0,H'22,H'08,H'39,H'F4,
             418441783E +                       H'46,H'04,H'41,H'04,H'49,H'12,H'92,H'92,H'E4,H'49,H'84,H'45,H'79,H'3E,H'07,H'C0,
             07C0000000 +                       H'00,H'00,H'00,H'00,H'00,H'00,H'00,H'00,H'00,H'00,H'00,H'00,H'00,H'38,H'3F,H'C4,
             0000000000 +                       H'66,H'AC,H'51,H'24,H'49,H'12,H'92,H'92,H'E4,H'49,H'86,H'45,H'79,H'3E,H'07,H'C0
             0FF0100822   
             7839844604   
             4104491292   
             9284418441   
             783E07C000   
             0000000000   
             000000001F   
             F0220839F4   
             4604410449   
             129292E449   
             8445793E07   
             C000000000   
             0000000000   
             0000000038   
             3FC466AC51   
             2449129292   
             E449864579   
             3E07C0       
    000035A6              __$glaceAlpha:                   ; static: glaceAlpha
    000035A6 FFFFFFFFFF             .DATA.B     H'FF,H'FF,H'FF,H'FF,H'FF,H'FF,H'FC,H'1F,H'F0,H'0F,H'E0,H'07,H'C0,H'07,H'C0,H'03,
             FFFC1FF00F +                       H'80,H'03,H'80,H'03,H'80,H'01,H'00,H'01,H'00,H'00,H'00,H'00,H'80,H'01,H'F8,H'3F,
             E007C007C0 +                       H'FF,H'FF,H'FF,H'FF,H'FF,H'FF,H'FF,H'FF,H'F0,H'0F,H'E0,H'07,H'C0,H'07,H'C0,H'03,
             0380038003 +                       H'80,H'03,H'80,H'03,H'80,H'01,H'00,H'01,H'00,H'00,H'00,H'00,H'80,H'01,H'F8,H'3F,
             8001000100 +                       H'FF,H'FF,H'FF,H'FF,H'FF,H'FF,H'FF,H'FF,H'FF,H'FF,H'E0,H'0F,H'C0,H'07,H'C0,H'03,
             0000008001 +                       H'80,H'03,H'80,H'03,H'80,H'01,H'00,H'01,H'00,H'00,H'00,H'00,H'80,H'01,H'F8,H'3F,
             F83FFFFFFF +                       H'FF,H'FF,H'FF,H'FF,H'FF,H'FF,H'FF,H'FF,H'FF,H'FF,H'FF,H'FF,H'FF,H'C7,H'C0,H'03,
             FFFFFFFFFF +                       H'80,H'03,H'80,H'03,H'80,H'01,H'00,H'01,H'00,H'00,H'00,H'00,H'80,H'01,H'F8,H'3F
             F00FE007C0   
             07C0038003   
             8003800100   
             0100000000   
             8001F83FFF   
             FFFFFFFFFF   
             FFFFFFFFE0   
             0FC007C003   
             8003800380   
             0100010000   
             00008001F8   
             3FFFFFFFFF   
             FFFFFFFFFF   
             FFFFFFFFC7   
             C003800380   
             0380010001   
             0000000080   
             01F83F       
    00003626              __$gadgets:                      ; static: gadgets
    00003626 7FFE800180             .DATA.B     H'7F,H'FE,H'80,H'01,H'80,H'01,H'8E,H'01,H'9A,H'01,H'9F,H'81,H'91,H'41,H'9E,H'A1,
             018E019A01 +                       H'90,H'51,H'90,H'29,H'90,H'09,H'8F,H'F1,H'80,H'01,H'80,H'01,H'80,H'01,H'7F,H'FE,
             9F8191419E +                       H'7F,H'FE,H'80,H'01,H'87,H'E1,H'88,H'11,H'92,H'09,H'A6,H'05,H'A0,H'05,H'A0,H'FD,
             A190519029 +                       H'BF,H'05,H'A0,H'05,H'A0,H'05,H'90,H'09,H'88,H'11,H'87,H'E1,H'80,H'01,H'7F,H'FE,
             90098FF180 +                       H'7F,H'FE,H'80,H'01,H'87,H'E1,H'88,H'11,H'97,H'E9,H'90,H'09,H'B2,H'2D,H'B1,H'4D,




SH SERIES C/C++ Compiler (Ver. 6.0C)                                                                 30-Jan-2015 21:53:33  PAGE   86


SCT OFFSET   CODE       C LABEL     INSTRUCTION OPERAND    COMMENT

             0180018001 +                       H'B0,H'8D,H'B2,H'2D,H'91,H'49,H'90,H'89,H'88,H'11,H'87,H'E1,H'80,H'01,H'7F,H'FE,
             7FFE7FFE80 +                       H'7F,H'FE,H'80,H'01,H'80,H'01,H'80,H'C1,H'8F,H'E1,H'9C,H'11,H'B4,H'19,H'A4,H'DD,
             0187E18811 +                       H'B4,H'19,H'9C,H'11,H'8F,H'E1,H'80,H'C1,H'80,H'01,H'80,H'01,H'80,H'01,H'7F,H'FE,
             9209A605A0 +                       H'7F,H'FE,H'80,H'01,H'80,H'01,H'87,H'E1,H'8C,H'31,H'9E,H'79,H'97,H'E9,H'93,H'C9,
             05A0FDBF05 +                       H'93,H'C9,H'97,H'E9,H'9E,H'79,H'8C,H'31,H'87,H'E1,H'80,H'01,H'80,H'01,H'7F,H'FE,
             A005A00590 +                       H'7F,H'FE,H'80,H'01,H'83,H'01,H'8C,H'81,H'91,H'41,H'AD,H'21,H'A2,H'21,H'A1,H'D1,
             09881187E1 +                       H'A2,H'11,H'A5,H'11,H'A4,H'89,H'A4,H'89,H'9C,H'79,H'83,H'81,H'80,H'01,H'7F,H'FE,
             80017FFE7F +                       H'7F,H'FE,H'80,H'01,H'80,H'01,H'87,H'E1,H'8A,H'51,H'94,H'29,H'9B,H'D9,H'93,H'49,
             FE800187E1 +                       H'93,H'C9,H'9B,H'D9
             881197E990   
             09B22DB14D   
             B08DB22D91   
             4990898811   
             87E180017F   
             FE7FFE8001   
             800180C18F   
             E19C11B419   
             A4DDB4199C   
             118FE180C1   
             8001800180   
             017FFE7FFE   
             8001800187   
             E18C319E79   
             97E993C993   
             C997E99E79   
             8C3187E180   
             0180017FFE   
             7FFE800183   
             018C819141   
             AD21A221A1   
             D1A211A511   
             A489A4899C   
             7983818001   
             7FFE7FFE80   
             01800187E1   
             8A5194299B   
             D9934993C9   
             9BD9         
    000036FA 94298A5187             .DATA.B     H'94,H'29,H'8A,H'51,H'87,H'E1,H'80,H'01,H'80,H'01,H'7F,H'FE,H'7F,H'FE,H'80,H'01,
             E180018001 +                       H'80,H'01,H'87,H'E1,H'88,H'11,H'92,H'49,H'96,H'69,H'96,H'69,H'96,H'69,H'97,H'E9,
             7FFE7FFE80 +                       H'93,H'C9,H'88,H'11,H'87,H'E1,H'80,H'01,H'80,H'01,H'7F,H'FE,H'7F,H'FE,H'80,H'01,
             01800187E1 +                       H'8F,H'F1,H'90,H'49,H'AE,H'05,H'BB,H'75,H'B1,H'DD,H'BB,H'AD,H'AE,H'DD,H'A7,H'75,
             8811924996 +                       H'AD,H'85,H'A8,H'B5,H'9D,H'89,H'8F,H'F1,H'80,H'01,H'7F,H'FE,H'7F,H'FE,H'80,H'01,
             6996699669 +                       H'80,H'01,H'8E,H'71,H'92,H'49,H'92,H'49,H'A4,H'25,H'BC,H'3D,H'BC,H'3D,H'BC,H'3D,
             97E993C988 +                       H'BE,H'7D,H'9F,H'F9,H'8F,H'F1,H'87,H'E1,H'80,H'01,H'7F,H'FE,H'7F,H'FE,H'80,H'01,
             1187E18001 +                       H'80,H'01,H'87,H'E1,H'88,H'91,H'91,H'C9,H'92,H'09,H'93,H'09,H'90,H'C9,H'90,H'49,
             80017FFE7F +                       H'93,H'89,H'89,H'11,H'87,H'E1,H'80,H'01,H'80,H'01,H'7F,H'FE,H'7F,H'FE,H'80,H'01,
             FE80018FF1 +                       H'80,H'01,H'80,H'01,H'80,H'79,H'80,H'C5,H'95,H'55,H'83,H'55,H'A5,H'55,H'80,H'C5,
             9049AE05BB +                       H'80,H'79,H'80,H'01,H'80,H'01,H'80,H'01,H'80,H'01,H'7F,H'FE
             75B1DDBBAD   
             AEDDA775AD   
             85A8B59D89   
             8FF180017F   
             FE7FFE8001   
             80018E7192   
             499249A425   
             BC3DBC3DBC   




SH SERIES C/C++ Compiler (Ver. 6.0C)                                                                 30-Jan-2015 21:53:33  PAGE   87


SCT OFFSET   CODE       C LABEL     INSTRUCTION OPERAND    COMMENT

             3DBE7D9FF9   
             8FF187E180   
             017FFE7FFE   
             8001800187   
             E1889191C9   
             9209930990   
             C990499389   
             891187E180   
             0180017FFE   
             7FFE800180   
             0180018079   
             80C5955583   
             55A55580C5   
             8079800180   
             0180018001   
             7FFE         
    000037A6              __$levier:                       ; static: levier
    000037A6 07E01C3830             .DATA.B     H'07,H'E0,H'1C,H'38,H'30,H'0C,H'20,H'04,H'66,H'06,H'44,H'02,H'40,H'02,H'40,H'02,
             0C20046606 +                       H'C0,H'03,H'E0,H'07,H'E0,H'07,H'F0,H'0F,H'FC,H'3F,H'E7,H'E7,H'E3,H'C7,H'FF,H'FF,
             4402400240 +                       H'F3,H'CF,H'F3,H'CF,H'F0,H'0F,H'F0,H'0F,H'F0,H'0F,H'F0,H'0F,H'F0,H'0F,H'F0,H'0F,
             02C003E007 +                       H'F0,H'0F,H'F0,H'0F,H'FF,H'FF,H'E0,H'07,H'E0,H'07,H'E0,H'07,H'E0,H'07,H'C0,H'03,
             E007F00FFC +                       H'C0,H'03,H'C0,H'03,H'FF,H'FF,H'FF,H'FF,H'FF,H'FF,H'FC,H'3F,H'F0,H'0F,H'E0,H'07,
             3FE7E7E3C7 +                       H'E6,H'07,H'C4,H'03,H'C0,H'03,H'C0,H'03,H'C0,H'03,H'E0,H'07,H'E0,H'07,H'F0,H'0F,
             FFFFF3CFF3 +                       H'FC,H'3F,H'F7,H'EF,H'F0,H'0F,H'F0,H'0F,H'F0,H'0F,H'F0,H'0F,H'F0,H'0F,H'FF,H'FF,
             CFF00FF00F +                       H'E0,H'07,H'E0,H'07,H'E0,H'07,H'C0,H'03,H'C0,H'03,H'C0,H'03,H'FF,H'FF,H'FF,H'FF
             F00FF00FF0   
             0FF00FF00F   
             F00FFFFFE0   
             07E007E007   
             E007C003C0   
             03C003FFFF   
             FFFFFFFFFC   
             3FF00FE007   
             E607C403C0   
             03C003C003   
             E007E007F0   
             0FFC3FF7EF   
             F00FF00FF0   
             0FF00FF00F   
             FFFFE007E0   
             07E007C003   
             C003C003FF   
             FFFFFF       
    00003826 0000001001             .DATAB.B    16,0
             00           
    00003836 FFFFFFFFC0             .DATA.B     H'FF,H'FF,H'FF,H'FF,H'C0,H'03,H'C0,H'03,H'C0,H'03,H'E0,H'07,H'E0,H'07,H'E7,H'E7,
             03C003C003 +                       H'FC,H'3F,H'F0,H'0F,H'E0,H'07,H'E6,H'07,H'C4,H'03,H'C0,H'03,H'C0,H'03,H'C0,H'03,
             E007E007E7 +                       H'E0,H'07,H'E0,H'07,H'F0,H'0F,H'FC,H'3F,H'E7,H'E7,H'E0,H'07,H'E0,H'07,H'C0,H'03,
             E7FC3FF00F +                       H'C0,H'03,H'C0,H'03,H'FF,H'FF,H'FF,H'FF
             E007E607C4   
             03C003C003   
             C003E007E0   
             07F00FFC3F   
             E7E7E007E0   
             07C003C003   
             C003FFFFFF   
             FF           




SH SERIES C/C++ Compiler (Ver. 6.0C)                                                                 30-Jan-2015 21:53:33  PAGE   88


SCT OFFSET   CODE       C LABEL     INSTRUCTION OPERAND    COMMENT

    0000386E 0000001001             .DATAB.B    16,0
             00           
    0000387E FFFFFFFFC0             .DATA.B     H'FF,H'FF,H'FF,H'FF,H'C0,H'03,H'C0,H'03,H'C0,H'03,H'E0,H'07,H'E0,H'07,H'E0,H'07,
             03C003C003 +                       H'FF,H'FF,H'F0,H'0F,H'F0,H'0F,H'F0,H'0F,H'F0,H'0F,H'F0,H'0F,H'F7,H'EF,H'FC,H'3F,
             E007E007E0 +                       H'F0,H'0F,H'E0,H'07,H'E6,H'07,H'C4,H'03,H'C0,H'03,H'C0,H'03,H'C0,H'03,H'E0,H'07,
             07FFFFF00F +                       H'E0,H'07,H'F0,H'0F,H'FC,H'3F,H'FF,H'FF
             F00FF00FF0   
             0FF00FF7EF   
             FC3FF00FE0   
             07E607C403   
             C003C003C0   
             03E007E007   
             F00FFC3FFF   
             FF           
    000038B6 0000001001             .DATAB.B    16,0
             00           
    000038C6 FFFFFFFFC0             .DATA.B     H'FF,H'FF,H'FF,H'FF,H'C0,H'03,H'C0,H'03,H'C0,H'03,H'E0,H'07,H'E0,H'07,H'E0,H'07,
             03C003C003 +                       H'E0,H'07,H'FF,H'FF,H'F0,H'0F,H'F0,H'0F,H'F0,H'0F,H'F0,H'0F,H'F0,H'0F,H'F0,H'0F,
             E007E007E0 +                       H'F0,H'0F,H'F0,H'0F,H'F3,H'CF,H'F3,H'CF,H'FF,H'FF,H'E3,H'C7,H'E7,H'E7,H'FC,H'3F,
             07E007FFFF +                       H'F0,H'0F,H'E0,H'07,H'E6,H'07,H'C4,H'03,H'40,H'02,H'40,H'02,H'40,H'02,H'60,H'06,
             F00FF00FF0 +                       H'20,H'04,H'30,H'0C,H'1C,H'38,H'07,H'E0
             0FF00FF00F   
             F00FF00FF0   
             0FF3CFF3CF   
             FFFFE3C7E7   
             E7FC3FF00F   
             E007E607C4   
             0340024002   
             4002600620   
             04300C1C38   
             07E0         
    0000390E              __$lotsTirage:                   ; static: lotsTirage
    0000390E 0000000000             .DATA.B     H'00,H'00,H'00,H'00,H'00,H'00,H'00,H'00,H'00,H'00,H'00,H'00,H'00,H'00,H'00,H'03,
             0000000000 +                       H'C0,H'00,H'04,H'20,H'00,H'05,H'20,H'00,H'04,H'20,H'00,H'04,H'20,H'00,H'03,H'C0,
             0000000000 +                       H'00,H'00,H'00,H'00,H'00,H'00,H'00,H'00,H'00,H'00,H'00,H'00,H'00,H'00,H'00,H'00,
             03C0000420 +                       H'00,H'00,H'00,H'00,H'00,H'00,H'00,H'00,H'00,H'03,H'C0,H'00,H'04,H'20,H'00,H'05,
             0005200004 +                       H'20,H'00,H'04,H'20,H'00,H'04,H'20,H'00,H'03,H'C0,H'00,H'00,H'00,H'00,H'1E,H'3C,
             2000042000 +                       H'00,H'21,H'42,H'00,H'29,H'52,H'00,H'21,H'42,H'00,H'21,H'42,H'00,H'1E,H'3C,H'00,
             03C0000000 +                       H'00,H'00,H'00,H'00,H'00,H'00,H'00,H'00,H'00,H'00,H'00,H'00,H'0F,H'3C,H'00,H'1E,
             0000000000 +                       H'C2,H'00,H'21,H'D2,H'00,H'29,H'7A,H'00,H'21,H'86,H'00,H'2F,H'A4,H'00,H'10,H'84,
             0000000000 +                       H'00,H'34,H'86,H'00,H'50,H'FE,H'00,H'50,H'A1,H'00,H'4F,H'29,H'00,H'42,H'21,H'00,
             0000000000 +                       H'3D,H'E1,H'00,H'00,H'1E,H'00,H'00,H'00,H'00,H'00,H'00,H'00,H'00,H'00,H'00,H'00,
             0000000000 +                       H'00,H'00,H'00,H'07,H'00,H'00,H'28,H'00,H'00,H'70,H'00,H'00,H'B8,H'00,H'01,H'70,
             000003C000 +                       H'00,H'03,H'E0,H'00,H'07,H'C0,H'00,H'0F,H'80,H'00,H'1F,H'00,H'00,H'3E,H'00,H'00,
             0420000520 +                       H'7C,H'00,H'00,H'38,H'00,H'00,H'10,H'00,H'00,H'00,H'00,H'00,H'00,H'00,H'00,H'00,
             0004200004 +                       H'60,H'00,H'00,H'80
             200003C000   
             0000001E3C   
             0021420029   
             5200214200   
             2142001E3C   
             0000000000   
             0000000000   
             0000000F3C   
             001EC20021   
             D200297A00   
             2186002FA4   




SH SERIES C/C++ Compiler (Ver. 6.0C)                                                                 30-Jan-2015 21:53:33  PAGE   89


SCT OFFSET   CODE       C LABEL     INSTRUCTION OPERAND    COMMENT

             0010840034   
             860050FE00   
             50A1004F29   
             004221003D   
             E100001E00   
             0000000000   
             0000000000   
             0000000700   
             0028000070   
             0000B80001   
             700003E000   
             07C0000F80   
             001F00003E   
             00007C0000   
             3800001000   
             0000000000   
             0000006000   
             0080         
    000039E2 0000800001             .DATA.B     H'00,H'00,H'80,H'00,H'01,H'C0,H'00,H'07,H'F0,H'00,H'0F,H'F8,H'00,H'19,H'FC,H'00,
             C00007F000 +                       H'1B,H'FC,H'00,H'3F,H'FE,H'00,H'3F,H'FE,H'00,H'3F,H'FE,H'00,H'1F,H'FC,H'00,H'1F,
             0FF80019FC +                       H'FC,H'00,H'0F,H'F8,H'00,H'07,H'F0,H'00,H'01,H'C0,H'00,H'01,H'C0,H'00,H'0E,H'38,
             001BFC003F +                       H'00,H'30,H'06,H'00,H'41,H'09,H'00,H'55,H'29,H'00,H'3F,H'FE,H'00,H'01,H'40,H'00,
             FE003FFE00 +                       H'1F,H'7C,H'00,H'61,H'43,H'00,H'3F,H'FE,H'00,H'01,H'40,H'00,H'02,H'20,H'00,H'02,
             3FFE001FFC +                       H'A0,H'00,H'04,H'90,H'00,H'39,H'6E,H'00,H'46,H'11,H'00,H'FF,H'FF,H'80,H'00,H'00,
             001FFC000F +                       H'00,H'00,H'00,H'00,H'1E,H'3C,H'00,H'3F,H'7E,H'00,H'67,H'FF,H'00,H'6F,H'FF,H'00,
             F80007F000 +                       H'7F,H'FF,H'00,H'7F,H'FF,H'00,H'7F,H'FF,H'00,H'3F,H'FE,H'00,H'1F,H'FC,H'00,H'0F,
             01C00001C0 +                       H'F8,H'00,H'07,H'F0,H'00,H'03,H'E0,H'00,H'01,H'C0,H'00,H'00,H'80,H'00,H'00,H'00,
             000E380030 +                       H'00,H'00,H'00,H'00,H'01,H'C0,H'00,H'02,H'20,H'00,H'05,H'50,H'00,H'04,H'90,H'00,
             0600410900 +                       H'05,H'50,H'00,H'02,H'20,H'00,H'01,H'C0,H'00,H'38,H'0E,H'00,H'44,H'11,H'00,H'AA,
             5529003FFE +                       H'2A,H'80,H'92,H'24,H'80,H'AA,H'2A,H'80,H'44,H'11,H'00,H'38,H'0E,H'00,H'00,H'00,
             000140001F +                       H'00,H'00,H'00,H'00,H'00,H'00,H'00,H'00,H'00,H'00,H'00,H'00,H'00,H'00,H'00,H'00,
             7C00614300 +                       H'78,H'00,H'00,H'84
             3FFE000140   
             0002200002   
             A000049000   
             396E004611   
             00FFFF8000   
             0000000000   
             1E3C003F7E   
             0067FF006F   
             FF007FFF00   
             7FFF007FFF   
             003FFE001F   
             FC000FF800   
             07F00003E0   
             0001C00000   
             8000000000   
             00000001C0   
             0002200005   
             5000049000   
             0550000220   
             0001C00038   
             0E00441100   
             AA2A809224   
             80AA2A8044   
             1100380E00   
             0000000000   




SH SERIES C/C++ Compiler (Ver. 6.0C)                                                                 30-Jan-2015 21:53:33  PAGE   90


SCT OFFSET   CODE       C LABEL     INSTRUCTION OPERAND    COMMENT

             0000000000   
             0000000000   
             0000007800   
             0084         
    00003AB6 0E00A41100             .DATA.B     H'0E,H'00,H'A4,H'11,H'00,H'84,H'11,H'00,H'78,H'02,H'00,H'85,H'44,H'00,H'A4,H'88,
             8411007802 +                       H'00,H'85,H'5F,H'00,H'84,H'00,H'00,H'78,H'00,H'00,H'00,H'00,H'00,H'00,H'00,H'00,
             00854400A4 +                       H'00,H'00,H'00,H'00,H'00,H'00,H'00,H'00,H'00,H'00,H'00,H'00,H'00,H'00,H'00,H'3F,
             8800855F00 +                       H'F8,H'00,H'40,H'04,H'00,H'51,H'12,H'00,H'48,H'89,H'00,H'44,H'45,H'00,H'48,H'89,
             8400007800 +                       H'00,H'51,H'12,H'00,H'40,H'04,H'00,H'3F,H'F8,H'00,H'00,H'00,H'00,H'00,H'00,H'00,
             0000000000 +                       H'00,H'00,H'00,H'00,H'00,H'00
             0000000000   
             0000000000   
             0000000000   
             00003FF800   
             4004005112   
             0048890044   
             4500488900   
             5112004004   
             003FF80000   
             0000000000   
             0000000000   
             00           
    00003B0C              __$trefle:                       ; static: trefle
    00003B0C 03E0000C18             .DATA.B     H'03,H'E0,H'00,H'0C,H'18,H'00,H'10,H'04,H'00,H'27,H'72,H'00,H'4F,H'79,H'00,H'4F,
             0010040027 +                       H'F9,H'00,H'8F,H'F8,H'80,H'83,H'E0,H'80,H'8F,H'F8,H'80,H'8F,H'F8,H'80,H'8F,H'78,
             72004F7900 +                       H'80,H'47,H'71,H'00,H'40,H'81,H'00,H'20,H'82,H'00,H'11,H'04,H'00,H'0C,H'18,H'00,
             4FF9008FF8 +                       H'03,H'E0,H'00
             8083E0808F   
             F8808FF880   
             8F78804771   
             0040810020   
             8200110400   
             0C180003E0   
             00           
    00003B3F 00000001               .RES.B      1
    00003B40              L620:
    00003B40 0000000000             .DATA.L     H'00000000,H'00000000,H'00000000,H'00000000,H'00000000,H'00000000
             0000000000   
             0000000000   
             0000000000   
             00000000     
D   00000000              __$SysCallCode:                  ; static: SysCallCode
    00000000 D201422B60             .DATA.L     H'D201422B,H'60F20000,H'80010070
             F200008001   
             0070         
    0000000C              __$SysCall:                      ; static: SysCall
    0000000C <00000000>             .DATA.L     __$SysCallCode
    00000010              _sauvegarde:                     ; static: sauvegarde
    00000010 00000000               .DATA.L     H'00000000
    00000014              _nouveauSucces:                  ; static: nouveauSucces
    00000014 00                     .DATA.B     H'00
B   00000000              __$boxPos:                       ; static: boxPos
    00000000 00000004               .RES.L      1
B_B 00000000              _BR_Size:                        ; static: BR_Size
    00000000 00000004               .RES.L      1






SH SERIES C/C++ Compiler (Ver. 6.0C)                                                                 30-Jan-2015 21:53:33  PAGE    1


******** STATISTICS INFORMATION ********


********** ERROR INFORMATION ***********

NUMBER OF ERRORS:           0
NUMBER OF WARNINGS:         0




******* SOURCE LINE INFORMATION ********

COMPILED SOURCE LINE:      303



******* SECTION SIZE INFORMATION *******

PROGRAM  SECTION (P):                               00000CA4 Byte(s)
PROGRAM  SECTION (P_BR_Size):                       00000000 Byte(s)
PROGRAM  SECTION (P_TOP):                           0000000C Byte(s)
CONSTANT SECTION (C):                               00003B58 Byte(s)
CONSTANT SECTION (C_BR_Size):                       00000000 Byte(s)
CONSTANT SECTION (C_TOP):                           00000000 Byte(s)
DATA     SECTION (D):                               00000015 Byte(s)
DATA     SECTION (D_BR_Size):                       00000000 Byte(s)
DATA     SECTION (D_TOP):                           00000000 Byte(s)
BSS      SECTION (B):                               00000004 Byte(s)
BSS      SECTION (B_BR_Size):                       00000004 Byte(s)
BSS      SECTION (B_TOP):                           00000000 Byte(s)

 TOTAL PROGRAM SIZE: 00004825 Byte(s)



********** LABEL INFORMATION ***********

NUMBER OF EXTERNAL REFERENCE SYMBOLS:           76
NUMBER OF EXTERNAL DEFINITION SYMBOLS:           6
NUMBER OF INTERNAL/EXTERNAL SYMBOLS:           177






















*** COMMAND PARAMETER ***


  -subcommand=C:\Users\ALEX\AppData\Local\Temp\hmk6404.tmp 

