SH SERIES C/C++ Compiler (Ver. 6.0C)                                                                 30-Jan-2015 21:53:33  PAGE    1

************ OBJECT LISTING ************

FILE NAME: C:\Users\ALEX\Desktop\Jetpack Joyride Casio - LastIndev\Menu.c

SCT OFFSET   CODE       C LABEL     INSTRUCTION OPERAND    COMMENT

          Menu.c     1    #include "include.h"
          Menu.c     2    
          Menu.c     3    FONTCHARACTER PathName[]={'\\','\\','f','l','s','0','\\','J','E','T','P','A','C','K','.','s','a','v',0};
          Menu.c     4    int handle;
          Menu.c     5    
          Menu.c     6    int choix()
P   00000000              _choix:                          ; function: choix
                                                           ; frame size=4
    00000000 4F22                   STS.L       PR,@-R15
          Menu.c     7    {
          Menu.c     8        switch(mainMenu()) // menu principal
    00000002 B05D                   BSR         _mainMenu
    00000004 0009                   NOP
    00000006 8800                   CMP/EQ      #0,R0
    00000008 8912                   BT          L1278
    0000000A 881A                   CMP/EQ      #26,R0
    0000000C 8913                   BT          L1279
    0000000E 8832                   CMP/EQ      #50,R0
    00000010 8915                   BT          L1280
    00000012 8838                   CMP/EQ      #56,R0
    00000014 8918                   BT          L1281
    00000016 8850                   CMP/EQ      #80,R0
    00000018 891A                   BT          L1282
    0000001A 8856                   CMP/EQ      #86,R0
    0000001C 891D                   BT          L1283
    0000001E 886E                   CMP/EQ      #110,R0
    00000020 891F                   BT          L1284
    00000022 8874                   CMP/EQ      #116,R0
    00000024 8922                   BT          L1285
    00000026 913D                   MOV.W       L2238,R1   ; H'008C
    00000028 3010                   CMP/EQ      R1,R0
    0000002A 8924                   BT          L1286
    0000002C A025                   BRA         L1595
    0000002E 0009                   NOP
    00000030              L1278:                           ; case label 
          Menu.c     9        {
          Menu.c    10            case 0: return 1; break;
    00000030 4F26                   LDS.L       @R15+,PR
    00000032 000B                   RTS
    00000034 E001                   MOV         #1,R0
    00000036              L1279:                           ; case label 
          Menu.c    11            case 26: barryMenu(); break;
    00000036 B301                   BSR         _barryMenu
    00000038 0009                   NOP
    0000003A A01E                   BRA         L1595
    0000003C 0009                   NOP
    0000003E              L1280:                           ; case label 
          Menu.c    12            case 50: gadgetMenu(); break;
    0000003E D31A                   MOV.L       L2238+4,R3 ; _gadgetMenu
    00000040 430B                   JSR         @R3
    00000042 0009                   NOP
    00000044 A019                   BRA         L1595
    00000046 0009                   NOP
    00000048              L1281:                           ; case label 




SH SERIES C/C++ Compiler (Ver. 6.0C)                                                                 30-Jan-2015 21:53:33  PAGE    2


SCT OFFSET   CODE       C LABEL     INSTRUCTION OPERAND    COMMENT

          Menu.c    13            case 56: jetpackMenu(); break;
    00000048 B509                   BSR         _jetpackMenu
    0000004A 0009                   NOP
    0000004C A015                   BRA         L1595
    0000004E 0009                   NOP
    00000050              L1282:                           ; case label 
          Menu.c    14            case 80: statMenu(); break;
    00000050 D316                   MOV.L       L2238+8,R3 ; _statMenu
    00000052 430B                   JSR         @R3
    00000054 0009                   NOP
    00000056 A010                   BRA         L1595
    00000058 0009                   NOP
    0000005A              L1283:                           ; case label 
          Menu.c    15            case 86: ameliorationMenu(); break;
    0000005A B799                   BSR         _ameliorationMenu
    0000005C 0009                   NOP
    0000005E A00C                   BRA         L1595
    00000060 0009                   NOP
    00000062              L1284:                           ; case label 
          Menu.c    16            case 110: succesMenu(); break;
    00000062 D313                   MOV.L       L2238+12,R3; _succesMenu
    00000064 430B                   JSR         @R3
    00000066 0009                   NOP
    00000068 A007                   BRA         L1595
    0000006A 0009                   NOP
    0000006C              L1285:                           ; case label 
          Menu.c    17            case 116: optionMenu(); break;
    0000006C D311                   MOV.L       L2238+16,R3; _optionMenu
    0000006E 430B                   JSR         @R3
    00000070 0009                   NOP
    00000072 A002                   BRA         L1595
    00000074 0009                   NOP
    00000076              L1286:                           ; case label 
          Menu.c    18            case 140: return runGameUntilExit(); break;
    00000076 A007                   BRA         _runGameUntilExit
    00000078 4F26                   LDS.L       @R15+,PR
    0000007A              L1595:                            
          Menu.c    19        }
          Menu.c    20        saveFile();
    0000007A D30F                   MOV.L       L2238+20,R3; _saveFile
    0000007C 430B                   JSR         @R3
    0000007E 0009                   NOP
          Menu.c    21        return 0;
    00000080 E000                   MOV         #0,R0
          Menu.c    22    }
    00000082              L1596:                            
    00000082 4F26                   LDS.L       @R15+,PR
    00000084 000B                   RTS
    00000086 0009                   NOP
          Menu.c    23    
          Menu.c    24    int runGameUntilExit()
    00000088              _runGameUntilExit:               ; function: runGameUntilExit
                                                           ; frame size=8
    00000088 2FE6                   MOV.L       R14,@-R15
    0000008A 4F22                   STS.L       PR,@-R15
    0000008C DE0B                   MOV.L       L2238+24,R14; _jetpackMainGame
          Menu.c    25    {




SH SERIES C/C++ Compiler (Ver. 6.0C)                                                                 30-Jan-2015 21:53:33  PAGE    3


SCT OFFSET   CODE       C LABEL     INSTRUCTION OPERAND    COMMENT

          Menu.c    26        char value;
          Menu.c    27    
          Menu.c    28        do
    0000008E              L1597:                            
          Menu.c    29        {
          Menu.c    30            value = jetpackMainGame();
    0000008E 4E0B                   JSR         @R14
    00000090 0009                   NOP
    00000092 6503                   MOV         R0,R5
    00000094 645E                   EXTS.B      R5,R4
    00000096 6043                   MOV         R4,R0
    00000098 8802                   CMP/EQ      #2,R0
    0000009A 89F8                   BT          L1597
          Menu.c    31        }while (value == 2);
          Menu.c    32    
          Menu.c    33        return value;
          Menu.c    34    }
    0000009C 4F26                   LDS.L       @R15+,PR
    0000009E 6043                   MOV         R4,R0
    000000A0 000B                   RTS
    000000A2 6EF6                   MOV.L       @R15+,R14
    000000A4              L2238:                            
    000000A4 008C                   .DATA.W     H'008C
    000000A6 0000                   .DATA.W     0
    000000A8 <00000000>             .DATA.L     _gadgetMenu
    000000AC <00000000>             .DATA.L     _statMenu
    000000B0 <00000000>             .DATA.L     _succesMenu
    000000B4 <00000000>             .DATA.L     _optionMenu
    000000B8 <00000000>             .DATA.L     _saveFile
    000000BC <00000000>             .DATA.L     _jetpackMainGame
          Menu.c    35    
          Menu.c    36    int mainMenu()
    000000C0              _mainMenu:                       ; function: mainMenu
                                                           ; frame size=68
    000000C0 2FE6                   MOV.L       R14,@-R15
    000000C2 EE02                   MOV         #2,R14
    000000C4 2FD6                   MOV.L       R13,@-R15
    000000C6 2FC6                   MOV.L       R12,@-R15
    000000C8 2FB6                   MOV.L       R11,@-R15
          Menu.c    37    {
          Menu.c    38        int u = 9, v = 17, exeDown = 1, exitDown = 1, timer = 0, animation = 0, sixTouch = 0, waitTime = 0;
    000000CA EB00                   MOV         #0,R11
    000000CC DC1B                   MOV.L       L2239+4,R12; _IsKeyDown
    000000CE 6DB3                   MOV         R11,R13
    000000D0 2FA6                   MOV.L       R10,@-R15
    000000D2 EA11                   MOV         #17,R10
    000000D4 2F96                   MOV.L       R9,@-R15
    000000D6 E901                   MOV         #1,R9
    000000D8 2F86                   MOV.L       R8,@-R15
    000000DA E809                   MOV         #9,R8
    000000DC 4F22                   STS.L       PR,@-R15
    000000DE 7FEC                   ADD         #-20,R15
    000000E0 1F94                   MOV.L       R9,@(16,R15)
    000000E2 1F93                   MOV.L       R9,@(12,R15)
    000000E4 1FB1                   MOV.L       R11,@(4,R15)
    000000E6 1FB2                   MOV.L       R11,@(8,R15)
    000000E8 2FB2                   MOV.L       R11,@R15




SH SERIES C/C++ Compiler (Ver. 6.0C)                                                                 30-Jan-2015 21:53:33  PAGE    4


SCT OFFSET   CODE       C LABEL     INSTRUCTION OPERAND    COMMENT

          Menu.c    39    
          Menu.c    40        do
    000000EA              L1599:                            
          Menu.c    41        {
          Menu.c    42            ML_clear_vram();
    000000EA D315                   MOV.L       L2239+8,R3 ; _ML_clear_vram
    000000EC 430B                   JSR         @R3
    000000EE 0009                   NOP
          Menu.c    43    
          Menu.c    44            ML_bmp_or(menu,0,0,128,64); // on dessine le menu
    000000F0 9722                   MOV.W       L2239,R7   ; H'0080
    000000F2 E600                   MOV         #0,R6
    000000F4 D413                   MOV.L       L2239+12,R4; __$menu
    000000F6 E240                   MOV         #64,R2
    000000F8 D313                   MOV.L       L2239+16,R3; _ML_bmp_or
    000000FA 2F26                   MOV.L       R2,@-R15
    000000FC 430B                   JSR         @R3
    000000FE 6563                   MOV         R6,R5
          Menu.c    45            ML_rectangle(u,v,u+19,v+19,1,ML_BLACK,ML_XOR); // on affiche le curseur
    00000100 2FE6                   MOV.L       R14,@-R15
    00000102 67A3                   MOV         R10,R7
    00000104 D211                   MOV.L       L2239+20,R2; _ML_rectangle
    00000106 6683                   MOV         R8,R6
    00000108 2F96                   MOV.L       R9,@-R15
    0000010A 65A3                   MOV         R10,R5
    0000010C 2F96                   MOV.L       R9,@-R15
    0000010E 7713                   ADD         #19,R7
    00000110 7613                   ADD         #19,R6
    00000112 420B                   JSR         @R2
    00000114 6483                   MOV         R8,R4
    00000116 7F10                   ADD         #16,R15
          Menu.c    46    
          Menu.c    47            if (animation != 0)
    00000118 53F2                   MOV.L       @(8,R15),R3
    0000011A 2338                   TST         R3,R3
    0000011C 891B                   BT          L1600
          Menu.c    48            {
          Menu.c    49                if (animationSucces(animation == 2?-1:9) == 1) animation = 0;
    0000011E 50F2                   MOV.L       @(8,R15),R0
    00000120 8802                   CMP/EQ      #2,R0
    00000122 8B01                   BF          L1602
    00000124 A001                   BRA         L1603
    00000126 E4FF                   MOV         #-1,R4
    00000128              L1602:                            
    00000128 E409                   MOV         #9,R4
    0000012A              L1603:                            
    0000012A D209                   MOV.L       L2239+24,R2; _animationSucces
    0000012C 420B                   JSR         @R2
    0000012E 0009                   NOP
    00000130 8801                   CMP/EQ      #1,R0
    00000132 8B0F                   BF          L1601
    00000134 A00F                   BRA         L1600
    00000136 1FB2                   MOV.L       R11,@(8,R15)
    00000138              L2239:                            
    00000138 0080                   .DATA.W     H'0080
    0000013A 0000                   .DATA.W     0
    0000013C <00000000>             .DATA.L     _IsKeyDown




SH SERIES C/C++ Compiler (Ver. 6.0C)                                                                 30-Jan-2015 21:53:33  PAGE    5


SCT OFFSET   CODE       C LABEL     INSTRUCTION OPERAND    COMMENT

    00000140 <00000000>             .DATA.L     _ML_clear_vram
    00000144 <00000000>             .DATA.L     __$menu
    00000148 <00000000>             .DATA.L     _ML_bmp_or
    0000014C <00000000>             .DATA.L     _ML_rectangle
    00000150 <00000000>             .DATA.L     _animationSucces
    00000154              L1601:                            
          Menu.c    50                else animation = 1;
    00000154 1F92                   MOV.L       R9,@(8,R15)
    00000156              L1600:                            
          Menu.c    51            }
          Menu.c    52    
          Menu.c    53            ML_display_vram();
    00000156 D336                   MOV.L       L2240+12,R3; _ML_display_vram
    00000158 430B                   JSR         @R3
    0000015A 0009                   NOP
          Menu.c    54    
          Menu.c    55            if (timer>1200 && sauvegarde->succes[0] != -1) sauvegarde->succes[0] = -1, animation = 2;
    0000015C 9262                   MOV.W       L2240,R2   ; H'04B0
    0000015E 53F1                   MOV.L       @(4,R15),R3
    00000160 3327                   CMP/GT      R2,R3
    00000162 8B0B                   BF          L1605
    00000164 D133                   MOV.L       L2240+16,R1; _sauvegarde
    00000166 6012                   MOV.L       @R1,R0
    00000168 7060                   ADD         #96,R0
    0000016A 6000                   MOV.B       @R0,R0
    0000016C 88FF                   CMP/EQ      #-1,R0
    0000016E 8905                   BT          L1605
    00000170 D330                   MOV.L       L2240+16,R3; _sauvegarde
    00000172 E2FF                   MOV         #-1,R2
    00000174 6132                   MOV.L       @R3,R1
    00000176 7160                   ADD         #96,R1
    00000178 2120                   MOV.B       R2,@R1
    0000017A 1FE2                   MOV.L       R14,@(8,R15)
    0000017C              L1605:                            
          Menu.c    56    
          Menu.c    57            if (IsKeyDown(KEY_CTRL_RIGHT) && u < 99 && waitTime == 0) u += 30, waitTime = 2; // on gere les en
                         +trees utilisateur
    0000017C 9453                   MOV.W       L2240+2,R4 ; H'7545
    0000017E 4C0B                   JSR         @R12
    00000180 0009                   NOP
    00000182 2008                   TST         R0,R0
    00000184 8906                   BT          L1606
    00000186 E263                   MOV         #99,R2
    00000188 3823                   CMP/GE      R2,R8
    0000018A 8903                   BT          L1606
    0000018C 2DD8                   TST         R13,R13
    0000018E 8B01                   BF          L1606
    00000190 781E                   ADD         #30,R8
    00000192 6DE3                   MOV         R14,R13
    00000194              L1606:                            
          Menu.c    58            if (IsKeyDown(KEY_CTRL_LEFT) && u > 9 && waitTime == 0) u -= 30, waitTime = 2;
    00000194 9448                   MOV.W       L2240+4,R4 ; H'7544
    00000196 4C0B                   JSR         @R12
    00000198 0009                   NOP
    0000019A 2008                   TST         R0,R0
    0000019C 8906                   BT          L1607
    0000019E E209                   MOV         #9,R2




SH SERIES C/C++ Compiler (Ver. 6.0C)                                                                 30-Jan-2015 21:53:33  PAGE    6


SCT OFFSET   CODE       C LABEL     INSTRUCTION OPERAND    COMMENT

    000001A0 3827                   CMP/GT      R2,R8
    000001A2 8B03                   BF          L1607
    000001A4 2DD8                   TST         R13,R13
    000001A6 8B01                   BF          L1607
    000001A8 78E2                   ADD         #-30,R8
    000001AA 6DE3                   MOV         R14,R13
    000001AC              L1607:                            
          Menu.c    59            if (IsKeyDown(KEY_CTRL_DOWN) && v < 37 && waitTime == 0) v += 24, waitTime = 2;
    000001AC 943D                   MOV.W       L2240+6,R4 ; H'7547
    000001AE 4C0B                   JSR         @R12
    000001B0 0009                   NOP
    000001B2 2008                   TST         R0,R0
    000001B4 8906                   BT          L1608
    000001B6 E225                   MOV         #37,R2
    000001B8 3A23                   CMP/GE      R2,R10
    000001BA 8903                   BT          L1608
    000001BC 2DD8                   TST         R13,R13
    000001BE 8B01                   BF          L1608
    000001C0 7A18                   ADD         #24,R10
    000001C2 6DE3                   MOV         R14,R13
    000001C4              L1608:                            
          Menu.c    60            if (IsKeyDown(KEY_CTRL_UP) && v > 17 && waitTime == 0) v -= 24, waitTime = 2;
    000001C4 9432                   MOV.W       L2240+8,R4 ; H'7542
    000001C6 4C0B                   JSR         @R12
    000001C8 0009                   NOP
    000001CA 2008                   TST         R0,R0
    000001CC 8906                   BT          L1609
    000001CE E211                   MOV         #17,R2
    000001D0 3A27                   CMP/GT      R2,R10
    000001D2 8B03                   BF          L1609
    000001D4 2DD8                   TST         R13,R13
    000001D6 8B01                   BF          L1609
    000001D8 7AE8                   ADD         #-24,R10
    000001DA 6DE3                   MOV         R14,R13
    000001DC              L1609:                            
          Menu.c    61            if (IsKeyDown(KEY_CHAR_6)) sixTouch = 10;
    000001DC 4C0B                   JSR         @R12
    000001DE E436                   MOV         #54,R4
    000001E0 2008                   TST         R0,R0
    000001E2 8D02                   BT/S        L1610
          Menu.c    62            if (IsKeyDown(KEY_CHAR_9) && sixTouch > 0 && sauvegarde->succes[18] != -1) sauvegarde->succes[18] 
                         += -1, animation = 2;
    000001E4 E439                   MOV         #57,R4
    000001E6 E20A                   MOV         #10,R2
    000001E8 2F22                   MOV.L       R2,@R15
    000001EA              L1610:                            
    000001EA 4C0B                   JSR         @R12
    000001EC 0009                   NOP
    000001EE 2008                   TST         R0,R0
    000001F0 890E                   BT          L1611
    000001F2 62F2                   MOV.L       @R15,R2
    000001F4 4215                   CMP/PL      R2
    000001F6 8B0B                   BF          L1611
    000001F8 D30E                   MOV.L       L2240+16,R3; _sauvegarde
    000001FA E172                   MOV         #114,R1
    000001FC 6032                   MOV.L       @R3,R0
    000001FE 001C                   MOV.B       @(R0,R1),R0




SH SERIES C/C++ Compiler (Ver. 6.0C)                                                                 30-Jan-2015 21:53:33  PAGE    7


SCT OFFSET   CODE       C LABEL     INSTRUCTION OPERAND    COMMENT

    00000200 88FF                   CMP/EQ      #-1,R0
    00000202 8905                   BT          L1611
    00000204 D20B                   MOV.L       L2240+16,R2; _sauvegarde
    00000206 E1FF                   MOV         #-1,R1
    00000208 6322                   MOV.L       @R2,R3
    0000020A E072                   MOV         #114,R0
    0000020C 0314                   MOV.B       R1,@(R0,R3)
    0000020E 1FE2                   MOV.L       R14,@(8,R15)
    00000210              L1611:                            
          Menu.c    63    
          Menu.c    64            if (IsKeyDown(KEY_CTRL_EXIT) && exitDown == 0) return 0;
    00000210 940D                   MOV.W       L2240+10,R4; H'7532
    00000212 4C0B                   JSR         @R12
    00000214 0009                   NOP
    00000216 2008                   TST         R0,R0
    00000218 890E                   BT          L1612
    0000021A 52F3                   MOV.L       @(12,R15),R2
    0000021C 2228                   TST         R2,R2
    0000021E 8B0B                   BF          L1612
    00000220 A037                   BRA         L1613
    00000222 E000                   MOV         #0,R0
    00000224              L2240:                            
    00000224 04B0                   .DATA.W     H'04B0
    00000226 7545                   .DATA.W     H'7545
    00000228 7544                   .DATA.W     H'7544
    0000022A 7547                   .DATA.W     H'7547
    0000022C 7542                   .DATA.W     H'7542
    0000022E 7532                   .DATA.W     H'7532
    00000230 <00000000>             .DATA.L     _ML_display_vram
    00000234 <00000000>             .DATA.L     _sauvegarde
    00000238              L1612:                            
          Menu.c    65    
          Menu.c    66            if (IsKeyUp(KEY_CTRL_EXE)) exeDown = 0;
    00000238 9435                   MOV.W       L2241,R4   ; H'7534
    0000023A D31C                   MOV.L       L2241+6,R3 ; _IsKeyUp
    0000023C 430B                   JSR         @R3
    0000023E 0009                   NOP
    00000240 2008                   TST         R0,R0
    00000242 8900                   BT          L1614
    00000244 1FB4                   MOV.L       R11,@(16,R15)
    00000246              L1614:                            
          Menu.c    67            if (IsKeyUp(KEY_CTRL_EXIT)) exitDown = 0;
    00000246 942F                   MOV.W       L2241+2,R4 ; H'7532
    00000248 D318                   MOV.L       L2241+6,R3 ; _IsKeyUp
    0000024A 430B                   JSR         @R3
    0000024C 0009                   NOP
    0000024E 2008                   TST         R0,R0
    00000250 8900                   BT          L1615
    00000252 1FB3                   MOV.L       R11,@(12,R15)
    00000254              L1615:                            
          Menu.c    68            if (waitTime != 0) waitTime--;
    00000254 2DD8                   TST         R13,R13
    00000256 8900                   BT          L1616
    00000258 7DFF                   ADD         #-1,R13
    0000025A              L1616:                            
          Menu.c    69    
          Menu.c    70            timer++;




SH SERIES C/C++ Compiler (Ver. 6.0C)                                                                 30-Jan-2015 21:53:33  PAGE    8


SCT OFFSET   CODE       C LABEL     INSTRUCTION OPERAND    COMMENT

    0000025A 52F1                   MOV.L       @(4,R15),R2
    0000025C 7201                   ADD         #1,R2
    0000025E 1F21                   MOV.L       R2,@(4,R15)
          Menu.c    71            if (sixTouch > 0)sixTouch--;
    00000260 63F2                   MOV.L       @R15,R3
    00000262 4315                   CMP/PL      R3
    00000264 8F03                   BF/S        L1617
          Menu.c    72    
          Menu.c    73            Sleep(60);
    00000266 E43C                   MOV         #60,R4
    00000268 63F2                   MOV.L       @R15,R3
    0000026A 73FF                   ADD         #-1,R3
    0000026C 2F32                   MOV.L       R3,@R15
    0000026E              L1617:                            
    0000026E D310                   MOV.L       L2241+10,R3; _Sleep
    00000270 430B                   JSR         @R3
    00000272 0009                   NOP
          Menu.c    74        }while (IsKeyUp(KEY_CTRL_EXE) || exeDown == 1);
    00000274 9417                   MOV.W       L2241,R4   ; H'7534
    00000276 D20D                   MOV.L       L2241+6,R2 ; _IsKeyUp
    00000278 420B                   JSR         @R2
    0000027A 0009                   NOP
    0000027C 2008                   TST         R0,R0
    0000027E 8901                   BT          L2242
    00000280 AF33                   BRA         L1599
    00000282 0009                   NOP
    00000284              L2242:                            
    00000284 50F4                   MOV.L       @(16,R15),R0
    00000286 8801                   CMP/EQ      #1,R0
    00000288 8B01                   BF          L2243
    0000028A AF2E                   BRA         L1599
    0000028C 0009                   NOP
    0000028E              L2243:                            
          Menu.c    75    
          Menu.c    76        return u+v;
    0000028E 6083                   MOV         R8,R0
    00000290 30AC                   ADD         R10,R0
          Menu.c    77    }
    00000292              L1613:                            
    00000292 7F14                   ADD         #20,R15
    00000294 4F26                   LDS.L       @R15+,PR
    00000296 68F6                   MOV.L       @R15+,R8
    00000298 69F6                   MOV.L       @R15+,R9
    0000029A 6AF6                   MOV.L       @R15+,R10
    0000029C 6BF6                   MOV.L       @R15+,R11
    0000029E 6CF6                   MOV.L       @R15+,R12
    000002A0 6DF6                   MOV.L       @R15+,R13
    000002A2 000B                   RTS
    000002A4 6EF6                   MOV.L       @R15+,R14
    000002A6              L2241:                            
    000002A6 7534                   .DATA.W     H'7534
    000002A8 7532                   .DATA.W     H'7532
    000002AA 0000                   .DATA.W     0
    000002AC <00000000>             .DATA.L     _IsKeyUp
    000002B0 <00000000>             .DATA.L     _Sleep
          Menu.c    78    
          Menu.c    79    int deadMenu(int score, int nbPiece)




SH SERIES C/C++ Compiler (Ver. 6.0C)                                                                 30-Jan-2015 21:53:33  PAGE    9


SCT OFFSET   CODE       C LABEL     INSTRUCTION OPERAND    COMMENT

    000002B4              _deadMenu:                       ; function: deadMenu
                                                           ; frame size=76
    000002B4 2FE6                   MOV.L       R14,@-R15
    000002B6 2FD6                   MOV.L       R13,@-R15
    000002B8 2FC6                   MOV.L       R12,@-R15
          Menu.c    80    {
          Menu.c    81        int u = 30;
          Menu.c    82        char scoreText[8], pieceText[5], animation = 0, newRecord = 0, exeDown = 1;
    000002BA ED01                   MOV         #1,R13
          Menu.c    83    
          Menu.c    84        if (sauvegarde->succes[5] >= 3) sauvegarde->succes[5] = -1, nouveauSucces = 1;
    000002BC DE3B                   MOV.L       L2244+12,R14; _sauvegarde
    000002BE EC1E                   MOV         #30,R12
    000002C0 2FB6                   MOV.L       R11,@-R15
    000002C2 EB00                   MOV         #0,R11
    000002C4 2FA6                   MOV.L       R10,@-R15
    000002C6 60B3                   MOV         R11,R0
    000002C8 2F96                   MOV.L       R9,@-R15
    000002CA 69B3                   MOV         R11,R9
    000002CC DA36                   MOV.L       L2244+8,R10; _nouveauSucces
    000002CE 2F86                   MOV.L       R8,@-R15
    000002D0 4F22                   STS.L       PR,@-R15
    000002D2 6843                   MOV         R4,R8
    000002D4 7FE4                   ADD         #-28,R15
    000002D6 2F52                   MOV.L       R5,@R15
    000002D8 80F4                   MOV.B       R0,@(4,R15)
    000002DA 60D3                   MOV         R13,R0
    000002DC 80F8                   MOV.B       R0,@(8,R15)
    000002DE E065                   MOV         #101,R0
    000002E0 63E2                   MOV.L       @R14,R3
    000002E2 023C                   MOV.B       @(R0,R3),R2
    000002E4 E303                   MOV         #3,R3
    000002E6 3233                   CMP/GE      R3,R2
    000002E8 8F03                   BF/S        L1618
    000002EA E4FF                   MOV         #-1,R4
    000002EC 61E2                   MOV.L       @R14,R1
    000002EE 0144                   MOV.B       R4,@(R0,R1)
    000002F0 2AD0                   MOV.B       R13,@R10
    000002F2              L1618:                            
    000002F2 E263                   MOV         #99,R2
    000002F4 65E2                   MOV.L       @R14,R5
    000002F6 6653                   MOV         R5,R6
    000002F8 7654                   ADD         #84,R6
    000002FA 6361                   MOV.W       @R6,R3
    000002FC 8561                   MOV.W       @(2,R6),R0
    000002FE 633D                   EXTU.W      R3,R3
    00000300 600D                   EXTU.W      R0,R0
    00000302 330C                   ADD         R0,R3
    00000304 3323                   CMP/GE      R2,R3
    00000306 8B07                   BF          L1619
    00000308 E066                   MOV         #102,R0
    0000030A 005C                   MOV.B       @(R0,R5),R0
    0000030C 88FF                   CMP/EQ      #-1,R0
    0000030E 8903                   BT          L1619
          Menu.c    85        if (sauvegarde->statMort[0] + sauvegarde->statMort[1] >= 99 && sauvegarde->succes[6] != -1) sauvegarde
                         +->succes[6] = -1, nouveauSucces = 1;
    00000310 62E2                   MOV.L       @R14,R2




SH SERIES C/C++ Compiler (Ver. 6.0C)                                                                 30-Jan-2015 21:53:33  PAGE   10


SCT OFFSET   CODE       C LABEL     INSTRUCTION OPERAND    COMMENT

    00000312 E066                   MOV         #102,R0
    00000314 0244                   MOV.B       R4,@(R0,R2)
    00000316 2AD0                   MOV.B       R13,@R10
    00000318              L1619:                            
          Menu.c    86        if (score >= 2000 && sauvegarde->succes[7] != -1) sauvegarde->succes[7] = -1, nouveauSucces = 1;
    00000318 9342                   MOV.W       L2244,R3   ; H'07D0
    0000031A 3833                   CMP/GE      R3,R8
    0000031C 8B09                   BF          L1620
    0000031E E167                   MOV         #103,R1
    00000320 D222                   MOV.L       L2244+12,R2; _sauvegarde
    00000322 6022                   MOV.L       @R2,R0
    00000324 001C                   MOV.B       @(R0,R1),R0
    00000326 88FF                   CMP/EQ      #-1,R0
    00000328 8903                   BT          L1620
    0000032A E067                   MOV         #103,R0
    0000032C 62E2                   MOV.L       @R14,R2
    0000032E 0244                   MOV.B       R4,@(R0,R2)
    00000330 2AD0                   MOV.B       R13,@R10
    00000332              L1620:                            
          Menu.c    87        if (score >= 5000 && sauvegarde->succes[8] != -1) sauvegarde->succes[8] = -1, nouveauSucces = 1;
    00000332 9336                   MOV.W       L2244+2,R3 ; H'1388
    00000334 3833                   CMP/GE      R3,R8
    00000336 8B09                   BF          L1621
    00000338 D21C                   MOV.L       L2244+12,R2; _sauvegarde
    0000033A E168                   MOV         #104,R1
    0000033C 6022                   MOV.L       @R2,R0
    0000033E 001C                   MOV.B       @(R0,R1),R0
    00000340 88FF                   CMP/EQ      #-1,R0
    00000342 8903                   BT          L1621
    00000344 62E2                   MOV.L       @R14,R2
    00000346 E068                   MOV         #104,R0
    00000348 0244                   MOV.B       R4,@(R0,R2)
    0000034A 2AD0                   MOV.B       R13,@R10
    0000034C              L1621:                            
    0000034C 65E2                   MOV.L       @R14,R5
    0000034E E014                   MOV         #20,R0
    00000350 005C                   MOV.B       @(R0,R5),R0
    00000352 600C                   EXTU.B      R0,R0
    00000354 8801                   CMP/EQ      #1,R0
    00000356 8B0C                   BF          L1622
    00000358 E019                   MOV         #25,R0
    0000035A 005C                   MOV.B       @(R0,R5),R0
    0000035C 600C                   EXTU.B      R0,R0
    0000035E 8802                   CMP/EQ      #2,R0
    00000360 8B07                   BF          L1622
    00000362 E069                   MOV         #105,R0
    00000364 005C                   MOV.B       @(R0,R5),R0
    00000366 88FF                   CMP/EQ      #-1,R0
    00000368 8903                   BT          L1622
          Menu.c    88        if (sauvegarde->tenueEquipe == 1 && sauvegarde->jetpackEquipe == 2  && sauvegarde->succes[9] != -1) sa
                         +uvegarde->succes[9] = -1, nouveauSucces = 1;
    0000036A E069                   MOV         #105,R0
    0000036C 62E2                   MOV.L       @R14,R2
    0000036E 0244                   MOV.B       R4,@(R0,R2)
    00000370 2AD0                   MOV.B       R13,@R10
    00000372              L1622:                            
          Menu.c    89        if (score == 800 && sauvegarde->succes[12] != -1) sauvegarde->succes[12] = -1, nouveauSucces = 1;




SH SERIES C/C++ Compiler (Ver. 6.0C)                                                                 30-Jan-2015 21:53:33  PAGE   11


SCT OFFSET   CODE       C LABEL     INSTRUCTION OPERAND    COMMENT

    00000372 9317                   MOV.W       L2244+4,R3 ; H'0320
    00000374 3830                   CMP/EQ      R3,R8
    00000376 8B09                   BF          L1623
    00000378 D20C                   MOV.L       L2244+12,R2; _sauvegarde
    0000037A E16C                   MOV         #108,R1
    0000037C 6022                   MOV.L       @R2,R0
    0000037E 001C                   MOV.B       @(R0,R1),R0
    00000380 88FF                   CMP/EQ      #-1,R0
    00000382 8903                   BT          L1623
    00000384 62E2                   MOV.L       @R14,R2
    00000386 E06C                   MOV         #108,R0
    00000388 0244                   MOV.B       R4,@(R0,R2)
    0000038A 2AD0                   MOV.B       R13,@R10
    0000038C              L1623:                            
    0000038C 65E2                   MOV.L       @R14,R5
    0000038E E06F                   MOV         #111,R0
    00000390 035C                   MOV.B       @(R0,R5),R3
    00000392 E202                   MOV         #2,R2
    00000394 3323                   CMP/GE      R2,R3
    00000396 8B0B                   BF          L1624
          Menu.c    90        if (sauvegarde->succes[15] >= 2) sauvegarde->succes[15] = -1, nouveauSucces = 1;
    00000398 61E2                   MOV.L       @R14,R1
    0000039A 0144                   MOV.B       R4,@(R0,R1)
    0000039C A009                   BRA         L1625
    0000039E 2AD0                   MOV.B       R13,@R10
    000003A0              L2244:                            
    000003A0 07D0                   .DATA.W     H'07D0
    000003A2 1388                   .DATA.W     H'1388
    000003A4 0320                   .DATA.W     H'0320
    000003A6 0000                   .DATA.W     0
    000003A8 <00000000>             .DATA.L     _nouveauSucces
    000003AC <00000000>             .DATA.L     _sauvegarde
    000003B0              L1624:                            
          Menu.c    91        else sauvegarde->succes[15] = 0;
    000003B0 05B4                   MOV.B       R11,@(R0,R5)
    000003B2              L1625:                            
          Menu.c    92        if (nbPiece == 69 && sauvegarde->succes[17] != -1)sauvegarde->succes[17] = -1, nouveauSucces = 1;
    000003B2 60F2                   MOV.L       @R15,R0
    000003B4 8845                   CMP/EQ      #69,R0
    000003B6 8B09                   BF          L1626
    000003B8 D347                   MOV.L       L2245+8,R3 ; _sauvegarde
    000003BA E171                   MOV         #113,R1
    000003BC 6032                   MOV.L       @R3,R0
    000003BE 001C                   MOV.B       @(R0,R1),R0
    000003C0 88FF                   CMP/EQ      #-1,R0
    000003C2 8903                   BT          L1626
    000003C4 63E2                   MOV.L       @R14,R3
    000003C6 E071                   MOV         #113,R0
    000003C8 0344                   MOV.B       R4,@(R0,R3)
    000003CA 2AD0                   MOV.B       R13,@R10
    000003CC              L1626:                            
    000003CC D643                   MOV.L       L2245+12,R6; H'0000C350
    000003CE 65E2                   MOV.L       @R14,R5
    000003D0 535F                   MOV.L       @(60,R5),R3
    000003D2 338C                   ADD         R8,R3
    000003D4 3363                   CMP/GE      R6,R3
    000003D6 8B07                   BF          L1627




SH SERIES C/C++ Compiler (Ver. 6.0C)                                                                 30-Jan-2015 21:53:33  PAGE   12


SCT OFFSET   CODE       C LABEL     INSTRUCTION OPERAND    COMMENT

    000003D8 E073                   MOV         #115,R0
    000003DA 005C                   MOV.B       @(R0,R5),R0
    000003DC 88FF                   CMP/EQ      #-1,R0
    000003DE 8903                   BT          L1627
          Menu.c    93        if (sauvegarde->statTotal[1] + score >= 50000 && sauvegarde->succes[19] != -1) sauvegarde->succes[19] 
                         += -1, nouveauSucces = 1;
    000003E0 62E2                   MOV.L       @R14,R2
    000003E2 E073                   MOV         #115,R0
    000003E4 0244                   MOV.B       R4,@(R0,R2)
    000003E6 2AD0                   MOV.B       R13,@R10
    000003E8              L1627:                            
    000003E8 65E2                   MOV.L       @R14,R5
    000003EA 6353                   MOV         R5,R3
    000003EC 732C                   ADD         #44,R3
    000003EE 6231                   MOV.W       @R3,R2
    000003F0 936E                   MOV.W       L2245,R3   ; H'2710
    000003F2 622D                   EXTU.W      R2,R2
    000003F4 3237                   CMP/GT      R3,R2
    000003F6 8B07                   BF          L1628
    000003F8 E074                   MOV         #116,R0
    000003FA 005C                   MOV.B       @(R0,R5),R0
    000003FC 88FF                   CMP/EQ      #-1,R0
    000003FE 8903                   BT          L1628
          Menu.c    94        if (sauvegarde->statVehicule[0] > 10000 && sauvegarde->succes[20] != -1) sauvegarde->succes[20] = -1, 
                         +nouveauSucces = 1;
    00000400 63E2                   MOV.L       @R14,R3
    00000402 E074                   MOV         #116,R0
    00000404 0344                   MOV.B       R4,@(R0,R3)
    00000406 2AD0                   MOV.B       R13,@R10
    00000408              L1628:                            
    00000408 65E2                   MOV.L       @R14,R5
    0000040A E040                   MOV         #64,R0
    0000040C 035E                   MOV.L       @(R0,R5),R3
    0000040E 3363                   CMP/GE      R6,R3
    00000410 8B07                   BF          L1629
    00000412 E075                   MOV         #117,R0
    00000414 005C                   MOV.B       @(R0,R5),R0
    00000416 88FF                   CMP/EQ      #-1,R0
    00000418 8903                   BT          L1629
          Menu.c    95        if (sauvegarde->statTotal[2] >= 50000 && sauvegarde->succes[21] != -1) sauvegarde->succes[21] = -1, no
                         +uveauSucces = 1;
    0000041A E075                   MOV         #117,R0
    0000041C 62E2                   MOV.L       @R14,R2
    0000041E 0244                   MOV.B       R4,@(R0,R2)
    00000420 2AD0                   MOV.B       R13,@R10
    00000422              L1629:                            
          Menu.c    96    
          Menu.c    97        if (score > sauvegarde->statScore[0]) sauvegarde->statScore[0] = score, newRecord = 1;
    00000422 62E2                   MOV.L       @R14,R2
    00000424 7226                   ADD         #38,R2
    00000426 6321                   MOV.W       @R2,R3
    00000428 633D                   EXTU.W      R3,R3
    0000042A 3837                   CMP/GT      R3,R8
    0000042C 8B05                   BF          L1630
    0000042E 60D3                   MOV         R13,R0
    00000430 63E2                   MOV.L       @R14,R3
    00000432 6233                   MOV         R3,R2




SH SERIES C/C++ Compiler (Ver. 6.0C)                                                                 30-Jan-2015 21:53:33  PAGE   13


SCT OFFSET   CODE       C LABEL     INSTRUCTION OPERAND    COMMENT

    00000434 7226                   ADD         #38,R2
    00000436 2281                   MOV.W       R8,@R2
    00000438 80F4                   MOV.B       R0,@(4,R15)
    0000043A              L1630:                            
          Menu.c    98        sauvegarde->statTotal[1] += score;
          Menu.c    99        sauvegarde->argent += nbPiece;
    0000043A E078                   MOV         #120,R0
    0000043C 63E2                   MOV.L       @R14,R3
    0000043E 523F                   MOV.L       @(60,R3),R2
    00000440 328C                   ADD         R8,R2
    00000442 132F                   MOV.L       R2,@(60,R3)
    00000444 63E2                   MOV.L       @R14,R3
    00000446 62F2                   MOV.L       @R15,R2
    00000448 013E                   MOV.L       @(R0,R3),R1
    0000044A 312C                   ADD         R2,R1
    0000044C 0316                   MOV.L       R1,@(R0,R3)
          Menu.c   100        sauvegarde->doublePiece = 0;
    0000044E E076                   MOV         #118,R0
    00000450 63E2                   MOV.L       @R14,R3
    00000452 03B4                   MOV.B       R11,@(R0,R3)
          Menu.c   101    
          Menu.c   102        saveFile();
    00000454 D322                   MOV.L       L2245+16,R3; _saveFile
    00000456 430B                   JSR         @R3
    00000458 0009                   NOP
          Menu.c   103    
          Menu.c   104        sprintf(scoreText,"%d M",score);
    0000045A 2F86                   MOV.L       R8,@-R15
    0000045C D221                   MOV.L       L2245+20,R2; L615
    0000045E 2F26                   MOV.L       R2,@-R15
    00000460 D321                   MOV.L       L2245+24,R3; _sprintf
    00000462 64F3                   MOV         R15,R4
    00000464 430B                   JSR         @R3
    00000466 741C                   ADD         #28,R4
          Menu.c   105        sprintf(pieceText,"%d $",nbPiece);
    00000468 52F2                   MOV.L       @(8,R15),R2
    0000046A 2F26                   MOV.L       R2,@-R15
    0000046C D31F                   MOV.L       L2245+28,R3; L616
    0000046E 2F36                   MOV.L       R3,@-R15
    00000470 D21D                   MOV.L       L2245+24,R2; _sprintf
    00000472 64F3                   MOV         R15,R4
    00000474 420B                   JSR         @R2
    00000476 741C                   ADD         #28,R4
          Menu.c   106    
          Menu.c   107    
          Menu.c   108        if (nouveauSucces == 1) animation = 2;
    00000478 60A0                   MOV.B       @R10,R0
    0000047A 8801                   CMP/EQ      #1,R0
    0000047C 8F01                   BF/S        L1631
    0000047E 7F10                   ADD         #16,R15
    00000480 E902                   MOV         #2,R9
    00000482              L1631:                            
    00000482 D81B                   MOV.L       L2245+32,R8; _IsKeyDown
    00000484 9A25                   MOV.W       L2245+2,R10; H'7534
          Menu.c   109    
          Menu.c   110        do
    00000486              L1632:                            




SH SERIES C/C++ Compiler (Ver. 6.0C)                                                                 30-Jan-2015 21:53:33  PAGE   14


SCT OFFSET   CODE       C LABEL     INSTRUCTION OPERAND    COMMENT

          Menu.c   111        {
          Menu.c   112            ML_clear_vram();
    00000486 D21B                   MOV.L       L2245+36,R2; _ML_clear_vram
    00000488 420B                   JSR         @R2
    0000048A 0009                   NOP
          Menu.c   113    
          Menu.c   114            ML_bmp_or(menuMort,0,0,128,64);
    0000048C 9722                   MOV.W       L2245+4,R7 ; H'0080
    0000048E E600                   MOV         #0,R6
    00000490 D419                   MOV.L       L2245+40,R4; __$menuMort
    00000492 E340                   MOV         #64,R3
    00000494 D219                   MOV.L       L2245+44,R2; _ML_bmp_or
    00000496 2F36                   MOV.L       R3,@-R15
    00000498 420B                   JSR         @R2
    0000049A 6563                   MOV         R6,R5
          Menu.c   115            if (sauvegarde->gadgetEquipe[0] != 0) ML_bmp_16_or(gadgets[sauvegarde->gadgetEquipe[0]-1],72,4); /
                         +/ on affiche les sprites des objets equipes
    0000049C 63E2                   MOV.L       @R14,R3
    0000049E 843C                   MOV.B       @(12,R3),R0
    000004A0 2008                   TST         R0,R0
    000004A2 8D0D                   BT/S        L1633
    000004A4 7F04                   ADD         #4,R15
    000004A6 E604                   MOV         #4,R6
    000004A8 64E2                   MOV.L       @R14,R4
    000004AA E548                   MOV         #72,R5
    000004AC D314                   MOV.L       L2245+48,R3; __$gadgets
    000004AE 844C                   MOV.B       @(12,R4),R0
    000004B0 D214                   MOV.L       L2245+52,R2; _ML_bmp_16_or
    000004B2 640C                   EXTU.B      R0,R4
    000004B4 74FF                   ADD         #-1,R4
    000004B6 4408                   SHLL2       R4
    000004B8 4408                   SHLL2       R4
    000004BA 4400                   SHLL        R4
    000004BC 420B                   JSR         @R2
    000004BE 343C                   ADD         R3,R4
    000004C0              L1633:                            
    000004C0 61E2                   MOV.L       @R14,R1
    000004C2 2F12                   MOV.L       R1,@R15
    000004C4 6313                   MOV         R1,R3
    000004C6 843D                   MOV.B       @(13,R3),R0
    000004C8 2008                   TST         R0,R0
    000004CA 892A                   BT          L1634
          Menu.c   116            if (sauvegarde->gadgetEquipe[1] != 0) ML_bmp_16_or(gadgets[sauvegarde->gadgetEquipe[1]-1],92,4);
    000004CC A01C                   BRA         L2214
    000004CE 0009                   NOP
    000004D0              L2245:                            
    000004D0 2710                   .DATA.W     H'2710
    000004D2 7534                   .DATA.W     H'7534
    000004D4 0080                   .DATA.W     H'0080
    000004D6 0000                   .DATA.W     0
    000004D8 <00000000>             .DATA.L     _sauvegarde
    000004DC 0000C350               .DATA.L     H'0000C350
    000004E0 <00000000>             .DATA.L     _saveFile
    000004E4 <00000000>             .DATA.L     L615
    000004E8 <00000000>             .DATA.L     _sprintf
    000004EC <00000000>             .DATA.L     L616
    000004F0 <00000000>             .DATA.L     _IsKeyDown




SH SERIES C/C++ Compiler (Ver. 6.0C)                                                                 30-Jan-2015 21:53:33  PAGE   15


SCT OFFSET   CODE       C LABEL     INSTRUCTION OPERAND    COMMENT

    000004F4 <00000000>             .DATA.L     _ML_clear_vram
    000004F8 <00000000>             .DATA.L     __$menuMort
    000004FC <00000000>             .DATA.L     _ML_bmp_or
    00000500 <00000000>             .DATA.L     __$gadgets
    00000504 <00000000>             .DATA.L     _ML_bmp_16_or
    00000508              L2214:                            
    00000508 64F2                   MOV.L       @R15,R4
    0000050A E604                   MOV         #4,R6
    0000050C D340                   MOV.L       L2246+4,R3 ; __$gadgets
    0000050E E55C                   MOV         #92,R5
    00000510 D240                   MOV.L       L2246+8,R2 ; _ML_bmp_16_or
    00000512 844D                   MOV.B       @(13,R4),R0
    00000514 640C                   EXTU.B      R0,R4
    00000516 74FF                   ADD         #-1,R4
    00000518 4408                   SHLL2       R4
    0000051A 4408                   SHLL2       R4
    0000051C 4400                   SHLL        R4
    0000051E 420B                   JSR         @R2
    00000520 343C                   ADD         R3,R4
    00000522              L1634:                            
          Menu.c   117            PrintXY(8,22,scoreText,0);
    00000522 E700                   MOV         #0,R7
    00000524 D33C                   MOV.L       L2246+12,R3; _PrintXY
    00000526 66F3                   MOV         R15,R6
    00000528 7614                   ADD         #20,R6
    0000052A E516                   MOV         #22,R5
    0000052C 430B                   JSR         @R3
    0000052E E408                   MOV         #8,R4
          Menu.c   118            PrintXY(18,35,pieceText,0);
    00000530 D239                   MOV.L       L2246+12,R2; _PrintXY
    00000532 E700                   MOV         #0,R7
    00000534 66F3                   MOV         R15,R6
    00000536 760C                   ADD         #12,R6
    00000538 E523                   MOV         #35,R5
    0000053A 420B                   JSR         @R2
    0000053C E412                   MOV         #18,R4
          Menu.c   119            ML_bmp_8_or(money,8,36);
    0000053E E624                   MOV         #36,R6
    00000540 D436                   MOV.L       L2246+16,R4; __$money
    00000542 D337                   MOV.L       L2246+20,R3; _ML_bmp_8_or
    00000544 430B                   JSR         @R3
    00000546 E508                   MOV         #8,R5
          Menu.c   120            if (newRecord) ML_bmp_or(record,9,48,42,8);
    00000548 84F4                   MOV.B       @(4,R15),R0
    0000054A 2008                   TST         R0,R0
    0000054C 8908                   BT          L1635
    0000054E E308                   MOV         #8,R3
    00000550 D434                   MOV.L       L2246+24,R4; __$record
    00000552 E72A                   MOV         #42,R7
    00000554 D234                   MOV.L       L2246+28,R2; _ML_bmp_or
    00000556 E630                   MOV         #48,R6
    00000558 2F36                   MOV.L       R3,@-R15
    0000055A 420B                   JSR         @R2
    0000055C E509                   MOV         #9,R5
    0000055E 7F04                   ADD         #4,R15
    00000560              L1635:                            
          Menu.c   121            ML_rectangle(60,u,120,u+12,1,ML_BLACK,ML_XOR);




SH SERIES C/C++ Compiler (Ver. 6.0C)                                                                 30-Jan-2015 21:53:33  PAGE   16


SCT OFFSET   CODE       C LABEL     INSTRUCTION OPERAND    COMMENT

    00000560 D232                   MOV.L       L2246+32,R2; _ML_rectangle
    00000562 E302                   MOV         #2,R3
    00000564 2F36                   MOV.L       R3,@-R15
    00000566 67C3                   MOV         R12,R7
    00000568 2FD6                   MOV.L       R13,@-R15
    0000056A E678                   MOV         #120,R6
    0000056C 2FD6                   MOV.L       R13,@-R15
    0000056E 770C                   ADD         #12,R7
    00000570 65C3                   MOV         R12,R5
    00000572 420B                   JSR         @R2
    00000574 E43C                   MOV         #60,R4
          Menu.c   122    
          Menu.c   123            if (IsKeyDown(KEY_CTRL_DOWN) && u != 46) u += 16;
    00000576 9449                   MOV.W       L2246,R4   ; H'7547
    00000578 480B                   JSR         @R8
    0000057A 7F0C                   ADD         #12,R15
    0000057C 2008                   TST         R0,R0
    0000057E 8903                   BT          L1636
    00000580 60C3                   MOV         R12,R0
    00000582 882E                   CMP/EQ      #46,R0
    00000584 8900                   BT          L1636
    00000586 7C10                   ADD         #16,R12
    00000588              L1636:                            
          Menu.c   124            if (IsKeyDown(KEY_CTRL_UP) && u != 30) u -= 16;
    00000588 9441                   MOV.W       L2246+2,R4 ; H'7542
    0000058A 480B                   JSR         @R8
    0000058C 0009                   NOP
    0000058E 2008                   TST         R0,R0
    00000590 8903                   BT          L1637
    00000592 60C3                   MOV         R12,R0
    00000594 881E                   CMP/EQ      #30,R0
    00000596 8900                   BT          L1637
    00000598 7CF0                   ADD         #-16,R12
    0000059A              L1637:                            
    0000059A 639E                   EXTS.B      R9,R3
    0000059C 2338                   TST         R3,R3
    0000059E 8D0E                   BT/S        L1638
    000005A0 2F32                   MOV.L       R3,@R15
          Menu.c   125    
          Menu.c   126            if (animation != 0)
          Menu.c   127            {
          Menu.c   128                if (animationSucces(animation == 2?-1:2) == 1) animation = 0;
    000005A2 6033                   MOV         R3,R0
    000005A4 8802                   CMP/EQ      #2,R0
    000005A6 8B01                   BF          L1640
    000005A8 A001                   BRA         L1641
    000005AA E4FF                   MOV         #-1,R4
    000005AC              L1640:                            
    000005AC E402                   MOV         #2,R4
    000005AE              L1641:                            
    000005AE D220                   MOV.L       L2246+36,R2; _animationSucces
    000005B0 420B                   JSR         @R2
    000005B2 0009                   NOP
    000005B4 8801                   CMP/EQ      #1,R0
    000005B6 8B01                   BF          L1639
    000005B8 A001                   BRA         L1638
    000005BA 69B3                   MOV         R11,R9




SH SERIES C/C++ Compiler (Ver. 6.0C)                                                                 30-Jan-2015 21:53:33  PAGE   17


SCT OFFSET   CODE       C LABEL     INSTRUCTION OPERAND    COMMENT

    000005BC              L1639:                            
          Menu.c   129                else animation = 1;
    000005BC 69D3                   MOV         R13,R9
    000005BE              L1638:                            
          Menu.c   130            }
          Menu.c   131    
          Menu.c   132            ML_display_vram();
    000005BE D31D                   MOV.L       L2246+40,R3; _ML_display_vram
    000005C0 430B                   JSR         @R3
    000005C2 0009                   NOP
          Menu.c   133            if (IsKeyUp(KEY_CTRL_EXE)) exeDown = 0;
    000005C4 D21C                   MOV.L       L2246+44,R2; _IsKeyUp
    000005C6 420B                   JSR         @R2
    000005C8 64A3                   MOV         R10,R4
    000005CA 2008                   TST         R0,R0
    000005CC 8D02                   BT/S        L1643
          Menu.c   134        }while (IsKeyUp(KEY_CTRL_EXE) || exeDown == 1);
    000005CE 64A3                   MOV         R10,R4
    000005D0 60B3                   MOV         R11,R0
    000005D2 80F8                   MOV.B       R0,@(8,R15)
    000005D4              L1643:                            
    000005D4 D318                   MOV.L       L2246+44,R3; _IsKeyUp
    000005D6 430B                   JSR         @R3
    000005D8 0009                   NOP
    000005DA 2008                   TST         R0,R0
    000005DC 8901                   BT          L2247
    000005DE AF52                   BRA         L1632
    000005E0 0009                   NOP
    000005E2              L2247:                            
    000005E2 84F8                   MOV.B       @(8,R15),R0
    000005E4 8801                   CMP/EQ      #1,R0
    000005E6 8B01                   BF          L2248
    000005E8 AF4D                   BRA         L1632
    000005EA 0009                   NOP
    000005EC              L2248:                            
          Menu.c   135    
          Menu.c   136        return (u==30?0:2);
    000005EC 60C3                   MOV         R12,R0
    000005EE 881E                   CMP/EQ      #30,R0
    000005F0 8B01                   BF          L1644
    000005F2 A001                   BRA         L1646
    000005F4 E000                   MOV         #0,R0
    000005F6              L1644:                            
    000005F6 E002                   MOV         #2,R0
          Menu.c   137    }
    000005F8              L1646:                            
    000005F8 7F1C                   ADD         #28,R15
    000005FA 4F26                   LDS.L       @R15+,PR
    000005FC 68F6                   MOV.L       @R15+,R8
    000005FE 69F6                   MOV.L       @R15+,R9
    00000600 6AF6                   MOV.L       @R15+,R10
    00000602 6BF6                   MOV.L       @R15+,R11
    00000604 6CF6                   MOV.L       @R15+,R12
    00000606 6DF6                   MOV.L       @R15+,R13
    00000608 000B                   RTS
    0000060A 6EF6                   MOV.L       @R15+,R14
    0000060C              L2246:                            




SH SERIES C/C++ Compiler (Ver. 6.0C)                                                                 30-Jan-2015 21:53:33  PAGE   18


SCT OFFSET   CODE       C LABEL     INSTRUCTION OPERAND    COMMENT

    0000060C 7547                   .DATA.W     H'7547
    0000060E 7542                   .DATA.W     H'7542
    00000610 <00000000>             .DATA.L     __$gadgets
    00000614 <00000000>             .DATA.L     _ML_bmp_16_or
    00000618 <00000000>             .DATA.L     _PrintXY
    0000061C <00000000>             .DATA.L     __$money
    00000620 <00000000>             .DATA.L     _ML_bmp_8_or
    00000624 <00000000>             .DATA.L     __$record
    00000628 <00000000>             .DATA.L     _ML_bmp_or
    0000062C <00000000>             .DATA.L     _ML_rectangle
    00000630 <00000000>             .DATA.L     _animationSucces
    00000634 <00000000>             .DATA.L     _ML_display_vram
    00000638 <00000000>             .DATA.L     _IsKeyUp
          Menu.c   138    
          Menu.c   139    void barryMenu()
    0000063C              _barryMenu:                      ; function: barryMenu
                                                           ; frame size=184
                                                           ; used runtime library name:
                                                           ; __quick_evn_mvn
    0000063C 2FE6                   MOV.L       R14,@-R15
          Menu.c   140    {
          Menu.c   141        int x, u = 13, v = 13, vNext = 13, selection = 0, exeDown = 1, keyDown = 0, animation = 0;
    0000063E E40D                   MOV         #13,R4
    00000640 2FD6                   MOV.L       R13,@-R15
    00000642 ED01                   MOV         #1,R13
    00000644 2FC6                   MOV.L       R12,@-R15
    00000646 2FB6                   MOV.L       R11,@-R15
    00000648 2FA6                   MOV.L       R10,@-R15
    0000064A 6A43                   MOV         R4,R10
    0000064C 2F96                   MOV.L       R9,@-R15
    0000064E 2F86                   MOV.L       R8,@-R15
    00000650 4F22                   STS.L       PR,@-R15
    00000652 E800                   MOV         #0,R8
    00000654 4F12                   STS.L       MACL,@-R15
    00000656 6383                   MOV         R8,R3
    00000658 7F98                   ADD         #-104,R15
    0000065A 6233                   MOV         R3,R2
    0000065C 2F42                   MOV.L       R4,@R15
          Menu.c   142    
          Menu.c   143        int barryCosts[6] = {0,10000,7000,9000,6000,7000};
    0000065E 61F3                   MOV         R15,R1
    00000660 1F41                   MOV.L       R4,@(4,R15)
    00000662 7150                   ADD         #80,R1
    00000664 1FD5                   MOV.L       R13,@(20,R15)
    00000666 1F33                   MOV.L       R3,@(12,R15)
    00000668 1F24                   MOV.L       R2,@(16,R15)
    0000066A D229                   MOV.L       L2249+2,R2 ; L629
    0000066C D329                   MOV.L       L2249+6,R3 ; __quick_evn_mvn
    0000066E 430B                   JSR         @R3
    00000670 E018                   MOV         #24,R0
          Menu.c   144        char *barryCostsText[6] = {"","10000$","7000$","9000$","6000$","7000$"};
    00000672 61F3                   MOV         R15,R1
    00000674 D228                   MOV.L       L2249+10,R2; L631
    00000676 7138                   ADD         #56,R1
    00000678 D326                   MOV.L       L2249+6,R3 ; __quick_evn_mvn
    0000067A 430B                   JSR         @R3
    0000067C E018                   MOV         #24,R0




SH SERIES C/C++ Compiler (Ver. 6.0C)                                                                 30-Jan-2015 21:53:33  PAGE   19


SCT OFFSET   CODE       C LABEL     INSTRUCTION OPERAND    COMMENT

          Menu.c   145        char *barryNames[6] = {"BARRY","BARRY COSTUME","BARRY KID","NINJA BARRY","SPACE BARRY","BARRY LEE"};
    0000067E 61F3                   MOV         R15,R1
    00000680 D226                   MOV.L       L2249+14,R2; L638
    00000682 7120                   ADD         #32,R1
    00000684 D323                   MOV.L       L2249+6,R3 ; __quick_evn_mvn
    00000686 430B                   JSR         @R3
    00000688 E018                   MOV         #24,R0
    0000068A EC02                   MOV         #2,R12
    0000068C DE24                   MOV.L       L2249+18,R14; _sauvegarde
          Menu.c   146        char totalMoney[7];
          Menu.c   147    
          Menu.c   148        do
    0000068E              L1647:                            
          Menu.c   149        {
          Menu.c   150            sprintf(totalMoney,"%d$",sauvegarde->argent); // on transforme notre argent en texte pour pouvoir 
                         +l'afficher
    0000068E E078                   MOV         #120,R0
    00000690 D124                   MOV.L       L2249+22,R1; L647
    00000692 62E2                   MOV.L       @R14,R2
    00000694 032E                   MOV.L       @(R0,R2),R3
    00000696 2F36                   MOV.L       R3,@-R15
    00000698 2F16                   MOV.L       R1,@-R15
    0000069A 64F3                   MOV         R15,R4
    0000069C D322                   MOV.L       L2249+26,R3; _sprintf
    0000069E 430B                   JSR         @R3
    000006A0 7420                   ADD         #32,R4
          Menu.c   151    
          Menu.c   152            ML_clear_vram();
    000006A2 D222                   MOV.L       L2249+30,R2; _ML_clear_vram
    000006A4 420B                   JSR         @R2
    000006A6 7F08                   ADD         #8,R15
          Menu.c   153    
          Menu.c   154            for(x = 0; x < 6; x++) // il y a 12 tenues
    000006A8 EB00                   MOV         #0,R11
    000006AA              L1648:                            
          Menu.c   155            {
          Menu.c   156    
          Menu.c   157                ML_rectangle(0,v+19*x,127,v+19+19*x,1,ML_BLACK,ML_WHITE); // premier rectangle "gadget"
    000006AA E300                   MOV         #0,R3
    000006AC D120                   MOV.L       L2249+34,R1; _ML_rectangle
    000006AE E913                   MOV         #19,R9
    000006B0 2F36                   MOV.L       R3,@-R15
    000006B2 E67F                   MOV         #127,R6
    000006B4 0B97                   MUL.L       R9,R11
    000006B6 2FD6                   MOV.L       R13,@-R15
    000006B8 2FD6                   MOV.L       R13,@-R15
    000006BA 091A                   STS         MACL,R9
    000006BC 52F3                   MOV.L       @(12,R15),R2
    000006BE 392C                   ADD         R2,R9
    000006C0 6793                   MOV         R9,R7
    000006C2 7713                   ADD         #19,R7
    000006C4 6593                   MOV         R9,R5
    000006C6 410B                   JSR         @R1
    000006C8 6433                   MOV         R3,R4
    000006CA 7F0C                   ADD         #12,R15
          Menu.c   158                PrintMini(23,v+8+19*x,barryNames[x],0); // nom du premier gadget
    000006CC D219                   MOV.L       L2249+38,R2; _PrintMini




SH SERIES C/C++ Compiler (Ver. 6.0C)                                                                 30-Jan-2015 21:53:33  PAGE   20


SCT OFFSET   CODE       C LABEL     INSTRUCTION OPERAND    COMMENT

    000006CE E700                   MOV         #0,R7
    000006D0 66B3                   MOV         R11,R6
    000006D2 4608                   SHLL2       R6
    000006D4 1F62                   MOV.L       R6,@(8,R15)
    000006D6 63F3                   MOV         R15,R3
    000006D8 7320                   ADD         #32,R3
    000006DA 363C                   ADD         R3,R6
    000006DC 6662                   MOV.L       @R6,R6
    000006DE 6593                   MOV         R9,R5
    000006E0 7508                   ADD         #8,R5
    000006E2 420B                   JSR         @R2
    000006E4 E417                   MOV         #23,R4
          Menu.c   159    
          Menu.c   160                if (sauvegarde->tenue[x] == 0) PrintMini(101,v+8+19*x,barryCostsText[x],0); // si on n'a pas a
                         +chete le premier gadget
    000006E6 60E2                   MOV.L       @R14,R0
    000006E8 6303                   MOV         R0,R3
    000006EA 730E                   ADD         #14,R3
    000006EC 33BC                   ADD         R11,R3
    000006EE 6230                   MOV.B       @R3,R2
    000006F0 2228                   TST         R2,R2
    000006F2 8B21                   BF          L1649
    000006F4 56F2                   MOV.L       @(8,R15),R6
    000006F6 6593                   MOV         R9,R5
    000006F8 D20E                   MOV.L       L2249+38,R2; _PrintMini
    000006FA E700                   MOV         #0,R7
    000006FC 63F3                   MOV         R15,R3
    000006FE 7338                   ADD         #56,R3
    00000700 363C                   ADD         R3,R6
    00000702 7508                   ADD         #8,R5
    00000704 6662                   MOV.L       @R6,R6
    00000706 420B                   JSR         @R2
    00000708 E465                   MOV         #101,R4
    0000070A A021                   BRA         L1650
    0000070C 0009                   NOP
    0000070E              L2249:                            
    0000070E 0000                   .DATA.W     0
    00000710 <00000000>             .DATA.L     L629
    00000714 <00000000>             .DATA.L     __quick_evn_mvn
    00000718 <00000000>             .DATA.L     L631
    0000071C <00000000>             .DATA.L     L638
    00000720 <00000000>             .DATA.L     _sauvegarde
    00000724 <00000000>             .DATA.L     L647
    00000728 <00000000>             .DATA.L     _sprintf
    0000072C <00000000>             .DATA.L     _ML_clear_vram
    00000730 <00000000>             .DATA.L     _ML_rectangle
    00000734 <00000000>             .DATA.L     _PrintMini
    00000738              L1649:                            
          Menu.c   161                else if (sauvegarde->tenue[x] == 1) PrintMini(100,v+8+19*x,"Equiper",0); // si on a achete le 
                         +premier gadget
    00000738 700E                   ADD         #14,R0
    0000073A 00BC                   MOV.B       @(R0,R11),R0
    0000073C 600C                   EXTU.B      R0,R0
    0000073E 8801                   CMP/EQ      #1,R0
    00000740 8B06                   BF          L1650
    00000742 E700                   MOV         #0,R7
    00000744 D63D                   MOV.L       L2250+2,R6 ; L649




SH SERIES C/C++ Compiler (Ver. 6.0C)                                                                 30-Jan-2015 21:53:33  PAGE   21


SCT OFFSET   CODE       C LABEL     INSTRUCTION OPERAND    COMMENT

    00000746 6593                   MOV         R9,R5
    00000748 D23D                   MOV.L       L2250+6,R2 ; _PrintMini
    0000074A 7508                   ADD         #8,R5
    0000074C 420B                   JSR         @R2
    0000074E E464                   MOV         #100,R4
    00000750              L1650:                            
          Menu.c   162    
          Menu.c   163                ML_bmp_16_or(barryDown1[x],5,v+2+19*x); // on affiche les sprites des gadgets
    00000750 D33C                   MOV.L       L2250+10,R3; __$barryDown1
    00000752 6693                   MOV         R9,R6
    00000754 D23C                   MOV.L       L2250+14,R2; _ML_bmp_16_or
    00000756 E505                   MOV         #5,R5
    00000758 7602                   ADD         #2,R6
    0000075A 64B3                   MOV         R11,R4
    0000075C 4408                   SHLL2       R4
    0000075E 4408                   SHLL2       R4
    00000760 4400                   SHLL        R4
    00000762 420B                   JSR         @R2
    00000764 343C                   ADD         R3,R4
          Menu.c   164    
          Menu.c   165                if (sauvegarde->tenue[x] == 2) // si le premier gadget est equipe
    00000766 60E2                   MOV.L       @R14,R0
    00000768 700E                   ADD         #14,R0
    0000076A 00BC                   MOV.B       @(R0,R11),R0
    0000076C 600C                   EXTU.B      R0,R0
    0000076E 8802                   CMP/EQ      #2,R0
    00000770 8B0B                   BF          L1652
          Menu.c   166                {
          Menu.c   167                    ML_bmp_8_and(gadgetOKAlpha,11,v+10+19*x); // on affiche un petit signe
    00000772 6693                   MOV         R9,R6
    00000774 D435                   MOV.L       L2250+18,R4; __$gadgetOKAlpha
    00000776 760A                   ADD         #10,R6
    00000778 D335                   MOV.L       L2250+22,R3; _ML_bmp_8_and
    0000077A 1F62                   MOV.L       R6,@(8,R15)
    0000077C 430B                   JSR         @R3
    0000077E E50B                   MOV         #11,R5
          Menu.c   168                    ML_bmp_8_or(gadgetOK,11,v+10+19*x);
    00000780 56F2                   MOV.L       @(8,R15),R6
    00000782 D434                   MOV.L       L2250+26,R4; __$gadgetOK
    00000784 D334                   MOV.L       L2250+30,R3; _ML_bmp_8_or
    00000786 430B                   JSR         @R3
    00000788 E50B                   MOV         #11,R5
    0000078A              L1652:                            
    0000078A 7B01                   ADD         #1,R11
    0000078C E206                   MOV         #6,R2
    0000078E 3B23                   CMP/GE      R2,R11
    00000790 8B8B                   BF          L1648
          Menu.c   169                }
          Menu.c   170            }
          Menu.c   171    
          Menu.c   172            ML_rectangle(0,u,127,u+19,1,ML_BLACK,ML_XOR); // on affiche la position du curseur
    00000792 6BA3                   MOV         R10,R11
    00000794 D231                   MOV.L       L2250+34,R2; _ML_rectangle
    00000796 E67F                   MOV         #127,R6
    00000798 2FC6                   MOV.L       R12,@-R15
    0000079A 65A3                   MOV         R10,R5
    0000079C 2FD6                   MOV.L       R13,@-R15




SH SERIES C/C++ Compiler (Ver. 6.0C)                                                                 30-Jan-2015 21:53:33  PAGE   22


SCT OFFSET   CODE       C LABEL     INSTRUCTION OPERAND    COMMENT

    0000079E 7B13                   ADD         #19,R11
    000007A0 2FD6                   MOV.L       R13,@-R15
    000007A2 67B3                   MOV         R11,R7
    000007A4 420B                   JSR         @R2
    000007A6 E400                   MOV         #0,R4
          Menu.c   173            ML_rectangle(1,u,19,u+19,1,ML_BLACK,ML_XOR); // on rinverse la zone du sprite pour qu'elle soit n
                         +ormale
    000007A8 2FC6                   MOV.L       R12,@-R15
    000007AA 67B3                   MOV         R11,R7
    000007AC D32B                   MOV.L       L2250+34,R3; _ML_rectangle
    000007AE E613                   MOV         #19,R6
    000007B0 2FD6                   MOV.L       R13,@-R15
    000007B2 65A3                   MOV         R10,R5
    000007B4 2FD6                   MOV.L       R13,@-R15
    000007B6 430B                   JSR         @R3
    000007B8 E401                   MOV         #1,R4
          Menu.c   174    
          Menu.c   175            ML_rectangle(27,0,98,13,1,ML_WHITE,ML_WHITE); // on gere la transparence de l'en-tete
    000007BA E200                   MOV         #0,R2
    000007BC D327                   MOV.L       L2250+34,R3; _ML_rectangle
    000007BE E70D                   MOV         #13,R7
    000007C0 2F26                   MOV.L       R2,@-R15
    000007C2 E662                   MOV         #98,R6
    000007C4 2F26                   MOV.L       R2,@-R15
    000007C6 6523                   MOV         R2,R5
    000007C8 2FD6                   MOV.L       R13,@-R15
    000007CA 430B                   JSR         @R3
    000007CC E41B                   MOV         #27,R4
          Menu.c   176            ML_line(80,14,92,14,ML_WHITE); // on fait des petits dessins
    000007CE E200                   MOV         #0,R2
    000007D0 D323                   MOV.L       L2250+38,R3; _ML_line
    000007D2 E70E                   MOV         #14,R7
    000007D4 2F26                   MOV.L       R2,@-R15
    000007D6 E65C                   MOV         #92,R6
    000007D8 6573                   MOV         R7,R5
    000007DA 430B                   JSR         @R3
    000007DC E450                   MOV         #80,R4
          Menu.c   177    
          Menu.c   178            ML_bmp_or(tenuesTop,0,0,128,16); // on affiche le sprite de l'entete
    000007DE E210                   MOV         #16,R2
    000007E0 972B                   MOV.W       L2250,R7   ; H'0080
    000007E2 E600                   MOV         #0,R6
    000007E4 D41F                   MOV.L       L2250+42,R4; __$tenuesTop
    000007E6 2F26                   MOV.L       R2,@-R15
    000007E8 D31F                   MOV.L       L2250+46,R3; _ML_bmp_or
    000007EA 430B                   JSR         @R3
    000007EC 6563                   MOV         R6,R5
    000007EE 7F2C                   ADD         #44,R15
          Menu.c   179            ML_bmp_16_or(barryDown1[sauvegarde->tenueEquipe],81,0); // on affiche les sprites des objets equip
                         +es
    000007F0 D314                   MOV.L       L2250+10,R3; __$barryDown1
    000007F2 E600                   MOV         #0,R6
    000007F4 D214                   MOV.L       L2250+14,R2; _ML_bmp_16_or
    000007F6 E551                   MOV         #81,R5
    000007F8 64E2                   MOV.L       @R14,R4
    000007FA E014                   MOV         #20,R0
    000007FC 044C                   MOV.B       @(R0,R4),R4




SH SERIES C/C++ Compiler (Ver. 6.0C)                                                                 30-Jan-2015 21:53:33  PAGE   23


SCT OFFSET   CODE       C LABEL     INSTRUCTION OPERAND    COMMENT

    000007FE 644C                   EXTU.B      R4,R4
    00000800 4408                   SHLL2       R4
    00000802 4408                   SHLL2       R4
    00000804 4400                   SHLL        R4
    00000806 420B                   JSR         @R2
    00000808 343C                   ADD         R3,R4
          Menu.c   180    
          Menu.c   181            PrintMini(102,2,totalMoney,2); // on affiche notre argent
    0000080A E702                   MOV         #2,R7
    0000080C D30C                   MOV.L       L2250+6,R3 ; _PrintMini
    0000080E 66F3                   MOV         R15,R6
    00000810 7618                   ADD         #24,R6
    00000812 6573                   MOV         R7,R5
    00000814 430B                   JSR         @R3
    00000816 E466                   MOV         #102,R4
          Menu.c   182    
          Menu.c   183            if (animation != 0)
    00000818 52F4                   MOV.L       @(16,R15),R2
    0000081A 2228                   TST         R2,R2
    0000081C 8929                   BT          L1653
          Menu.c   184            {
          Menu.c   185                if (animationSucces(animation == 2?-1:1) == 1) animation = 0;
    0000081E 50F4                   MOV.L       @(16,R15),R0
    00000820 8802                   CMP/EQ      #2,R0
    00000822 8B01                   BF          L1655
    00000824 A001                   BRA         L1656
    00000826 E4FF                   MOV         #-1,R4
    00000828              L1655:                            
    00000828 E401                   MOV         #1,R4
    0000082A              L1656:                            
    0000082A D210                   MOV.L       L2250+50,R2; _animationSucces
    0000082C 420B                   JSR         @R2
    0000082E 0009                   NOP
    00000830 8801                   CMP/EQ      #1,R0
    00000832 8B1D                   BF          L1654
    00000834 E200                   MOV         #0,R2
    00000836 A01C                   BRA         L1653
    00000838 1F24                   MOV.L       R2,@(16,R15)
    0000083A              L2250:                            
    0000083A 0080                   .DATA.W     H'0080
    0000083C <00000000>             .DATA.L     L649
    00000840 <00000000>             .DATA.L     _PrintMini
    00000844 <00000000>             .DATA.L     __$barryDown1
    00000848 <00000000>             .DATA.L     _ML_bmp_16_or
    0000084C <00000000>             .DATA.L     __$gadgetOKAlpha
    00000850 <00000000>             .DATA.L     _ML_bmp_8_and
    00000854 <00000000>             .DATA.L     __$gadgetOK
    00000858 <00000000>             .DATA.L     _ML_bmp_8_or
    0000085C <00000000>             .DATA.L     _ML_rectangle
    00000860 <00000000>             .DATA.L     _ML_line
    00000864 <00000000>             .DATA.L     __$tenuesTop
    00000868 <00000000>             .DATA.L     _ML_bmp_or
    0000086C <00000000>             .DATA.L     _animationSucces
    00000870              L1654:                            
          Menu.c   186                else animation = 1;
    00000870 1FD4                   MOV.L       R13,@(16,R15)
    00000872              L1653:                            




SH SERIES C/C++ Compiler (Ver. 6.0C)                                                                 30-Jan-2015 21:53:33  PAGE   24


SCT OFFSET   CODE       C LABEL     INSTRUCTION OPERAND    COMMENT

          Menu.c   187            }
          Menu.c   188    
          Menu.c   189            ML_display_vram();
    00000872 D31E                   MOV.L       L2251+4,R3 ; _ML_display_vram
    00000874 430B                   JSR         @R3
    00000876 0009                   NOP
          Menu.c   190    
          Menu.c   191            if (vNext == v && keyDown == 0) // on gere le clavier ainsi que la position des elements a l'ecran
    00000878 62F2                   MOV.L       @R15,R2
    0000087A 53F1                   MOV.L       @(4,R15),R3
    0000087C 3320                   CMP/EQ      R2,R3
    0000087E 8901                   BT          L2252
    00000880 A09C                   BRA         L1658
    00000882 0009                   NOP
    00000884              L2252:                            
    00000884 53F3                   MOV.L       @(12,R15),R3
    00000886 2338                   TST         R3,R3
    00000888 8901                   BT          L2253
    0000088A A097                   BRA         L1658
    0000088C 0009                   NOP
    0000088E              L2253:                            
          Menu.c   192            {
          Menu.c   193                if (IsKeyDown(KEY_CTRL_DOWN) && selection != 5)
    0000088E 942B                   MOV.W       L2251,R4   ; H'7547
    00000890 D317                   MOV.L       L2251+8,R3 ; _IsKeyDown
    00000892 430B                   JSR         @R3
    00000894 0009                   NOP
    00000896 2008                   TST         R0,R0
    00000898 8910                   BT          L1659
    0000089A 6083                   MOV         R8,R0
    0000089C 8805                   CMP/EQ      #5,R0
    0000089E 890D                   BT          L1659
          Menu.c   194                {
          Menu.c   195                    if (u > 30)
    000008A0 E21E                   MOV         #30,R2
    000008A2 3A27                   CMP/GT      R2,R10
    000008A4 8F05                   BF/S        L1660
          Menu.c   196                    {
          Menu.c   197                        vNext -= 19;
          Menu.c   198                        u += 19;
          Menu.c   199                    }
          Menu.c   200                    else
          Menu.c   201                    {
          Menu.c   202                        u += 19;
          Menu.c   203                        keyDown = 6;
          Menu.c   204                    }
          Menu.c   205                    selection++;
    000008A6 7801                   ADD         #1,R8
    000008A8 51F1                   MOV.L       @(4,R15),R1
    000008AA 71ED                   ADD         #-19,R1
    000008AC 1F11                   MOV.L       R1,@(4,R15)
    000008AE A003                   BRA         L1661
    000008B0 7A13                   ADD         #19,R10
    000008B2              L1660:                            
    000008B2 7A13                   ADD         #19,R10
    000008B4 E106                   MOV         #6,R1
    000008B6 1F13                   MOV.L       R1,@(12,R15)




SH SERIES C/C++ Compiler (Ver. 6.0C)                                                                 30-Jan-2015 21:53:33  PAGE   25


SCT OFFSET   CODE       C LABEL     INSTRUCTION OPERAND    COMMENT

    000008B8              L1661:                            
    000008B8 A0B6                   BRA         L1674
    000008BA 0009                   NOP
    000008BC              L1659:                            
          Menu.c   206                }
          Menu.c   207                else if (IsKeyDown(KEY_CTRL_UP) && selection != 0)
    000008BC 9415                   MOV.W       L2251+2,R4 ; H'7542
    000008BE D20C                   MOV.L       L2251+8,R2 ; _IsKeyDown
    000008C0 420B                   JSR         @R2
    000008C2 0009                   NOP
    000008C4 2008                   TST         R0,R0
    000008C6 8915                   BT          L1663
    000008C8 2888                   TST         R8,R8
    000008CA 8913                   BT          L1663
          Menu.c   208                {
          Menu.c   209                    if (u < 20)
    000008CC E314                   MOV         #20,R3
    000008CE 3A33                   CMP/GE      R3,R10
    000008D0 8D05                   BT/S        L1664
          Menu.c   210                    {
          Menu.c   211                        vNext += 19;
          Menu.c   212                        u -= 19;
          Menu.c   213                    }
          Menu.c   214                    else
          Menu.c   215                    {
          Menu.c   216                        u -= 19;
          Menu.c   217                        keyDown = 6;
          Menu.c   218                    }
          Menu.c   219                    selection--;
    000008D2 78FF                   ADD         #-1,R8
    000008D4 51F1                   MOV.L       @(4,R15),R1
    000008D6 7113                   ADD         #19,R1
    000008D8 1F11                   MOV.L       R1,@(4,R15)
    000008DA A003                   BRA         L1665
    000008DC 7AED                   ADD         #-19,R10
    000008DE              L1664:                            
    000008DE 7AED                   ADD         #-19,R10
    000008E0 E106                   MOV         #6,R1
    000008E2 1F13                   MOV.L       R1,@(12,R15)
    000008E4              L1665:                            
    000008E4 A0A0                   BRA         L1674
    000008E6 0009                   NOP
    000008E8              L2251:                            
    000008E8 7547                   .DATA.W     H'7547
    000008EA 7542                   .DATA.W     H'7542
    000008EC <00000000>             .DATA.L     _ML_display_vram
    000008F0 <00000000>             .DATA.L     _IsKeyDown
    000008F4              L1663:                            
          Menu.c   220                }
          Menu.c   221                else if (IsKeyDown(KEY_CTRL_EXE) && exeDown == 0) // si on appuie sur EXE
    000008F4 9481                   MOV.W       L2254,R4   ; H'7534
    000008F6 D241                   MOV.L       L2254+2,R2 ; _IsKeyDown
    000008F8 420B                   JSR         @R2
    000008FA 0009                   NOP
    000008FC 2008                   TST         R0,R0
    000008FE 8B01                   BF          L2255
    00000900 A092                   BRA         L1674




SH SERIES C/C++ Compiler (Ver. 6.0C)                                                                 30-Jan-2015 21:53:33  PAGE   26


SCT OFFSET   CODE       C LABEL     INSTRUCTION OPERAND    COMMENT

    00000902 0009                   NOP
    00000904              L2255:                            
    00000904 52F5                   MOV.L       @(20,R15),R2
    00000906 2228                   TST         R2,R2
    00000908 8901                   BT          L2256
    0000090A A08D                   BRA         L1674
    0000090C 0009                   NOP
    0000090E              L2256:                            
          Menu.c   222                {
          Menu.c   223                    exeDown = 1; // pour viter l'appui constant sur EXE
    0000090E 1FD5                   MOV.L       R13,@(20,R15)
    00000910 64E2                   MOV.L       @R14,R4
    00000912 6343                   MOV         R4,R3
    00000914 730E                   ADD         #14,R3
    00000916 338C                   ADD         R8,R3
    00000918 6230                   MOV.B       @R3,R2
    0000091A 2228                   TST         R2,R2
    0000091C 8B3A                   BF          L1668
    0000091E 6B83                   MOV         R8,R11
    00000920 4B08                   SHLL2       R11
    00000922 63F3                   MOV         R15,R3
    00000924 7350                   ADD         #80,R3
    00000926 3B3C                   ADD         R3,R11
    00000928 62B2                   MOV.L       @R11,R2
    0000092A E078                   MOV         #120,R0
    0000092C 014E                   MOV.L       @(R0,R4),R1
    0000092E 3123                   CMP/GE      R2,R1
    00000930 8901                   BT          L2257
    00000932 A079                   BRA         L1674
    00000934 0009                   NOP
    00000936              L2257:                            
          Menu.c   224    
          Menu.c   225                    if (sauvegarde->tenue[selection] == 0) // si on a pas achete le gadget
          Menu.c   226                    {
          Menu.c   227                        if (sauvegarde->argent >= barryCosts[selection]) // si on a assez d'argent et si il es
                         +t debloque
          Menu.c   228                        {
          Menu.c   229                            sauvegarde->statTotal[6] += barryCosts[selection];
    00000936 E050                   MOV         #80,R0
    00000938 62B2                   MOV.L       @R11,R2
    0000093A 014E                   MOV.L       @(R0,R4),R1
    0000093C 312C                   ADD         R2,R1
    0000093E 0416                   MOV.L       R1,@(R0,R4)
          Menu.c   230                            sauvegarde->argent -= barryCosts[selection]; // on paye
    00000940 62E2                   MOV.L       @R14,R2
    00000942 E078                   MOV         #120,R0
    00000944 61B2                   MOV.L       @R11,R1
    00000946 032E                   MOV.L       @(R0,R2),R3
    00000948 3318                   SUB         R1,R3
    0000094A 0236                   MOV.L       R3,@(R0,R2)
          Menu.c   231                            sauvegarde->tenue[selection] = 1; // on indique qu'il est debloque
    0000094C 63E2                   MOV.L       @R14,R3
          Menu.c   232    
          Menu.c   233                            if (sauvegarde->statTotal[6] >= 50000 && sauvegarde->succes[21] != -1) sauvegarde-
                         +>succes[21] = -1, animation = 2;
    0000094E E050                   MOV         #80,R0
    00000950 730E                   ADD         #14,R3




SH SERIES C/C++ Compiler (Ver. 6.0C)                                                                 30-Jan-2015 21:53:33  PAGE   27


SCT OFFSET   CODE       C LABEL     INSTRUCTION OPERAND    COMMENT

    00000952 338C                   ADD         R8,R3
    00000954 23D0                   MOV.B       R13,@R3
    00000956 62E2                   MOV.L       @R14,R2
    00000958 D329                   MOV.L       L2254+6,R3 ; H'0000C350
    0000095A 012E                   MOV.L       @(R0,R2),R1
    0000095C 3133                   CMP/GE      R3,R1
    0000095E 8B09                   BF          L1670
    00000960 60E2                   MOV.L       @R14,R0
    00000962 E175                   MOV         #117,R1
    00000964 001C                   MOV.B       @(R0,R1),R0
    00000966 88FF                   CMP/EQ      #-1,R0
    00000968 8904                   BT          L1670
    0000096A E2FF                   MOV         #-1,R2
    0000096C 63E2                   MOV.L       @R14,R3
    0000096E E075                   MOV         #117,R0
    00000970 0324                   MOV.B       R2,@(R0,R3)
    00000972 1FC4                   MOV.L       R12,@(16,R15)
    00000974              L1670:                            
          Menu.c   234                            if (sauvegarde->succes[3] != -1 && isAllBought() == 1) sauvegarde->succes[3] = -1,
                         + animation = 2;
    00000974 60E2                   MOV.L       @R14,R0
    00000976 E163                   MOV         #99,R1
    00000978 001C                   MOV.B       @(R0,R1),R0
    0000097A 88FF                   CMP/EQ      #-1,R0
    0000097C 8954                   BT          L1674
    0000097E D221                   MOV.L       L2254+10,R2; _isAllBought
    00000980 420B                   JSR         @R2
    00000982 0009                   NOP
    00000984 8801                   CMP/EQ      #1,R0
    00000986 8B4F                   BF          L1674
    00000988 62E2                   MOV.L       @R14,R2
    0000098A E3FF                   MOV         #-1,R3
    0000098C E063                   MOV         #99,R0
    0000098E 0234                   MOV.B       R3,@(R0,R2)
    00000990 A04A                   BRA         L1674
    00000992 1FC4                   MOV.L       R12,@(16,R15)
    00000994              L1668:                            
          Menu.c   235                        }
          Menu.c   236                    }
          Menu.c   237                    else if (sauvegarde->tenue[selection] == 1) // si il est debloque
    00000994 6043                   MOV         R4,R0
    00000996 700E                   ADD         #14,R0
    00000998 008C                   MOV.B       @(R0,R8),R0
    0000099A 600C                   EXTU.B      R0,R0
    0000099C 8801                   CMP/EQ      #1,R0
    0000099E 8B43                   BF          L1674
          Menu.c   238                    {
          Menu.c   239                        sauvegarde->tenue[sauvegarde->tenueEquipe] = 1;
    000009A0 E014                   MOV         #20,R0
    000009A2 6343                   MOV         R4,R3
    000009A4 024C                   MOV.B       @(R0,R4),R2
    000009A6 730E                   ADD         #14,R3
    000009A8 622C                   EXTU.B      R2,R2
    000009AA 323C                   ADD         R3,R2
    000009AC 22D0                   MOV.B       R13,@R2
          Menu.c   240                        sauvegarde->tenue[selection] = 2;
    000009AE 63E2                   MOV.L       @R14,R3




SH SERIES C/C++ Compiler (Ver. 6.0C)                                                                 30-Jan-2015 21:53:33  PAGE   28


SCT OFFSET   CODE       C LABEL     INSTRUCTION OPERAND    COMMENT

    000009B0 730E                   ADD         #14,R3
    000009B2 338C                   ADD         R8,R3
    000009B4 23C0                   MOV.B       R12,@R3
          Menu.c   241                        sauvegarde->tenueEquipe = selection;
    000009B6 62E2                   MOV.L       @R14,R2
    000009B8 A036                   BRA         L1674
    000009BA 0284                   MOV.B       R8,@(R0,R2)
    000009BC              L1658:                            
          Menu.c   242                    }
          Menu.c   243                }
          Menu.c   244            }
          Menu.c   245            else
          Menu.c   246            {
          Menu.c   247                if (v < vNext) u += (vNext-v>2?3:1), v += (vNext-v>2?3:1);
    000009BC 52F1                   MOV.L       @(4,R15),R2
    000009BE 63F2                   MOV.L       @R15,R3
    000009C0 3323                   CMP/GE      R2,R3
    000009C2 8911                   BT          L1675
    000009C4 63F2                   MOV.L       @R15,R3
    000009C6 6423                   MOV         R2,R4
    000009C8 3438                   SUB         R3,R4
    000009CA 34C7                   CMP/GT      R12,R4
    000009CC 8B01                   BF          L1676
    000009CE A001                   BRA         L1678
    000009D0 E303                   MOV         #3,R3
    000009D2              L1676:                            
    000009D2 E301                   MOV         #1,R3
    000009D4              L1678:                            
    000009D4 34C7                   CMP/GT      R12,R4
    000009D6 8F02                   BF/S        L1677
    000009D8 3A3C                   ADD         R3,R10
    000009DA A001                   BRA         L1679
    000009DC E303                   MOV         #3,R3
    000009DE              L1677:                            
    000009DE E301                   MOV         #1,R3
    000009E0              L1679:                            
    000009E0 62F2                   MOV.L       @R15,R2
    000009E2 323C                   ADD         R3,R2
    000009E4 A01A                   BRA         L1680
    000009E6 2F22                   MOV.L       R2,@R15
    000009E8              L1675:                            
          Menu.c   248                else if (v > vNext) u -= (v-vNext>2?3:1), v -= (v-vNext>2?3:1);
    000009E8 61F2                   MOV.L       @R15,R1
    000009EA 3127                   CMP/GT      R2,R1
    000009EC 8B16                   BF          L1680
    000009EE 64F2                   MOV.L       @R15,R4
    000009F0 3428                   SUB         R2,R4
    000009F2 34C7                   CMP/GT      R12,R4
    000009F4 8B08                   BF          L1682
    000009F6 A008                   BRA         L1684
    000009F8 E303                   MOV         #3,R3
    000009FA              L2254:                            
    000009FA 7534                   .DATA.W     H'7534
    000009FC <00000000>             .DATA.L     _IsKeyDown
    00000A00 0000C350               .DATA.L     H'0000C350
    00000A04 <00000000>             .DATA.L     _isAllBought
    00000A08              L1682:                            




SH SERIES C/C++ Compiler (Ver. 6.0C)                                                                 30-Jan-2015 21:53:33  PAGE   29


SCT OFFSET   CODE       C LABEL     INSTRUCTION OPERAND    COMMENT

    00000A08 E301                   MOV         #1,R3
    00000A0A              L1684:                            
    00000A0A 34C7                   CMP/GT      R12,R4
    00000A0C 8F02                   BF/S        L1683
    00000A0E 3A38                   SUB         R3,R10
    00000A10 A001                   BRA         L1685
    00000A12 E303                   MOV         #3,R3
    00000A14              L1683:                            
    00000A14 E301                   MOV         #1,R3
    00000A16              L1685:                            
    00000A16 62F2                   MOV.L       @R15,R2
    00000A18 3238                   SUB         R3,R2
    00000A1A 2F22                   MOV.L       R2,@R15
    00000A1C              L1680:                            
          Menu.c   249    
          Menu.c   250                if (keyDown > 0) keyDown--;
    00000A1C 53F3                   MOV.L       @(12,R15),R3
    00000A1E 4315                   CMP/PL      R3
    00000A20 8B02                   BF          L1674
    00000A22 51F3                   MOV.L       @(12,R15),R1
    00000A24 71FF                   ADD         #-1,R1
    00000A26 1F13                   MOV.L       R1,@(12,R15)
    00000A28              L1674:                            
          Menu.c   251            }
          Menu.c   252    
          Menu.c   253            if (IsKeyUp(KEY_CTRL_EXE)) exeDown = 0;
    00000A28 9488                   MOV.W       L2258,R4   ; H'7534
    00000A2A D345                   MOV.L       L2258+4,R3 ; _IsKeyUp
    00000A2C 430B                   JSR         @R3
    00000A2E 0009                   NOP
    00000A30 2008                   TST         R0,R0
    00000A32 8901                   BT          L1687
    00000A34 E300                   MOV         #0,R3
    00000A36 1F35                   MOV.L       R3,@(20,R15)
    00000A38              L1687:                            
          Menu.c   254    
          Menu.c   255        }while (IsKeyUp(KEY_CTRL_EXIT));
    00000A38 9481                   MOV.W       L2258+2,R4 ; H'7532
    00000A3A D341                   MOV.L       L2258+4,R3 ; _IsKeyUp
    00000A3C 430B                   JSR         @R3
    00000A3E 0009                   NOP
    00000A40 2008                   TST         R0,R0
    00000A42 8901                   BT          L2259
    00000A44 AE23                   BRA         L1647
    00000A46 0009                   NOP
    00000A48              L2259:                            
          Menu.c   256    }
    00000A48 7F68                   ADD         #104,R15
    00000A4A 4F16                   LDS.L       @R15+,MACL
    00000A4C 4F26                   LDS.L       @R15+,PR
    00000A4E 68F6                   MOV.L       @R15+,R8
    00000A50 69F6                   MOV.L       @R15+,R9
    00000A52 6AF6                   MOV.L       @R15+,R10
    00000A54 6BF6                   MOV.L       @R15+,R11
    00000A56 6CF6                   MOV.L       @R15+,R12
    00000A58 6DF6                   MOV.L       @R15+,R13
    00000A5A 000B                   RTS




SH SERIES C/C++ Compiler (Ver. 6.0C)                                                                 30-Jan-2015 21:53:33  PAGE   30


SCT OFFSET   CODE       C LABEL     INSTRUCTION OPERAND    COMMENT

    00000A5C 6EF6                   MOV.L       @R15+,R14
          Menu.c   257    
          Menu.c   258    void jetpackMenu()
    00000A5E              _jetpackMenu:                    ; function: jetpackMenu
                                                           ; frame size=180
                                                           ; used runtime library name:
                                                           ; __quick_evn_mvn, __quick_odd_mvn
          Menu.c   259    {
          Menu.c   260        int x, u = 13, v = 13, vNext = 13, selection = 0, exeDown = 1, keyDown = 0, animation = 0;
    00000A5E E40D                   MOV         #13,R4
    00000A60 2FE6                   MOV.L       R14,@-R15
    00000A62 E300                   MOV         #0,R3
    00000A64 2FD6                   MOV.L       R13,@-R15
    00000A66 6233                   MOV         R3,R2
    00000A68 2FC6                   MOV.L       R12,@-R15
    00000A6A ED01                   MOV         #1,R13
    00000A6C 2FB6                   MOV.L       R11,@-R15
    00000A6E 2FA6                   MOV.L       R10,@-R15
    00000A70 2F96                   MOV.L       R9,@-R15
    00000A72 6A43                   MOV         R4,R10
    00000A74 2F86                   MOV.L       R8,@-R15
    00000A76 6943                   MOV         R4,R9
    00000A78 4F22                   STS.L       PR,@-R15
    00000A7A 4F12                   STS.L       MACL,@-R15
    00000A7C 7F9C                   ADD         #-100,R15
          Menu.c   261    
          Menu.c   262        int jetpackCosts[4] = {0,40000,50000,20000};
    00000A7E 61F3                   MOV         R15,R1
    00000A80 1F42                   MOV.L       R4,@(8,R15)
    00000A82 7154                   ADD         #84,R1
    00000A84 1F31                   MOV.L       R3,@(4,R15)
    00000A86 1FD9                   MOV.L       R13,@(36,R15)
    00000A88 1F35                   MOV.L       R3,@(20,R15)
    00000A8A 1F26                   MOV.L       R2,@(24,R15)
    00000A8C D22D                   MOV.L       L2258+8,R2 ; L674
    00000A8E D32E                   MOV.L       L2258+12,R3; __quick_evn_mvn
    00000A90 430B                   JSR         @R3
    00000A92 E010                   MOV         #16,R0
          Menu.c   263        char *jetpackCostsText[4] = {"","40000$","50000$","20000$"};
    00000A94 D22D                   MOV.L       L2258+16,R2; L676
    00000A96 64F3                   MOV         R15,R4
    00000A98 D32B                   MOV.L       L2258+12,R3; __quick_evn_mvn
    00000A9A 61F3                   MOV         R15,R1
    00000A9C 7444                   ADD         #68,R4
    00000A9E 7144                   ADD         #68,R1
    00000AA0 430B                   JSR         @R3
    00000AA2 E010                   MOV         #16,R0
          Menu.c   264        char *jetpackNames[5] = {"MACHINEGUN JETPACK","LASER JETPACK","REACTEUR JETPACK","GUITARE JETPACK","MA
                         +CHINEGUN JETPA..."};
    00000AA4 D22A                   MOV.L       L2258+20,R2; L681
    00000AA6 61F3                   MOV         R15,R1
    00000AA8 D32A                   MOV.L       L2258+24,R3; __quick_odd_mvn
    00000AAA 7130                   ADD         #48,R1
    00000AAC 430B                   JSR         @R3
    00000AAE E014                   MOV         #20,R0
    00000AB0 D329                   MOV.L       L2258+28,R3; __$jetpack1
    00000AB2 EB02                   MOV         #2,R11




SH SERIES C/C++ Compiler (Ver. 6.0C)                                                                 30-Jan-2015 21:53:33  PAGE   31


SCT OFFSET   CODE       C LABEL     INSTRUCTION OPERAND    COMMENT

    00000AB4 DE2B                   MOV.L       L2258+40,R14; _sauvegarde
    00000AB6 7410                   ADD         #16,R4
    00000AB8 D128                   MOV.L       L2258+32,R1; H'00000010+__$jetpack3
    00000ABA 1F47                   MOV.L       R4,@(28,R15)
    00000ABC 1F33                   MOV.L       R3,@(12,R15)
    00000ABE 1F14                   MOV.L       R1,@(16,R15)
    00000AC0 D827                   MOV.L       L2258+36,R8; _ML_bmp_or
          Menu.c   265        char totalMoney[7];
          Menu.c   266    
          Menu.c   267        do
    00000AC2              L1688:                            
          Menu.c   268        {
          Menu.c   269            sprintf(totalMoney,"%d$",sauvegarde->argent); // on transforme notre argent en texte pour pouvoir 
                         +l'afficher
    00000AC2 E078                   MOV         #120,R0
    00000AC4 D128                   MOV.L       L2258+44,R1; L647
    00000AC6 63E2                   MOV.L       @R14,R3
    00000AC8 023E                   MOV.L       @(R0,R3),R2
    00000ACA 2F26                   MOV.L       R2,@-R15
    00000ACC 2F16                   MOV.L       R1,@-R15
    00000ACE 64F3                   MOV         R15,R4
    00000AD0 D326                   MOV.L       L2258+48,R3; _sprintf
    00000AD2 430B                   JSR         @R3
    00000AD4 7430                   ADD         #48,R4
          Menu.c   270    
          Menu.c   271            ML_clear_vram();
    00000AD6 D226                   MOV.L       L2258+52,R2; _ML_clear_vram
    00000AD8 420B                   JSR         @R2
    00000ADA 7F08                   ADD         #8,R15
          Menu.c   272    
          Menu.c   273            for(x = 0; x < 4; x++) // il y a 12 tenues
    00000ADC EC00                   MOV         #0,R12
    00000ADE              L1690:                            
          Menu.c   274            {
          Menu.c   275    
          Menu.c   276                ML_rectangle(0,v+19*x,127,v+19+19*x,1,ML_BLACK,ML_WHITE); // premier rectangle "gadget"
    00000ADE E300                   MOV         #0,R3
    00000AE0 D224                   MOV.L       L2258+56,R2; _ML_rectangle
    00000AE2 E713                   MOV         #19,R7
    00000AE4 2F36                   MOV.L       R3,@-R15
    00000AE6 E67F                   MOV         #127,R6
    00000AE8 0C77                   MUL.L       R7,R12
    00000AEA 2FD6                   MOV.L       R13,@-R15
    00000AEC 2FD6                   MOV.L       R13,@-R15
    00000AEE 071A                   STS         MACL,R7
    00000AF0 37AC                   ADD         R10,R7
    00000AF2 1F73                   MOV.L       R7,@(12,R15)
    00000AF4 55F3                   MOV.L       @(12,R15),R5
    00000AF6 7713                   ADD         #19,R7
    00000AF8 420B                   JSR         @R2
    00000AFA 6433                   MOV         R3,R4
          Menu.c   277                PrintMini(23,v+8+19*x,jetpackNames[x],0); // nom du premier gadget
    00000AFC D21E                   MOV.L       L2258+60,R2; _PrintMini
    00000AFE 7F0C                   ADD         #12,R15
    00000B00 65F2                   MOV.L       @R15,R5
    00000B02 E700                   MOV         #0,R7
    00000B04 66C3                   MOV         R12,R6




SH SERIES C/C++ Compiler (Ver. 6.0C)                                                                 30-Jan-2015 21:53:33  PAGE   32


SCT OFFSET   CODE       C LABEL     INSTRUCTION OPERAND    COMMENT

    00000B06 4608                   SHLL2       R6
    00000B08 63F3                   MOV         R15,R3
    00000B0A 7330                   ADD         #48,R3
    00000B0C 363C                   ADD         R3,R6
    00000B0E 7508                   ADD         #8,R5
    00000B10 6662                   MOV.L       @R6,R6
    00000B12 420B                   JSR         @R2
    00000B14 E417                   MOV         #23,R4
          Menu.c   278    
          Menu.c   279                if (sauvegarde->jetpack[x] == 0) PrintMini(101,v+8+19*x,(x==0&&sauvegarde->jetpack[x]!=2?jetpa
                         +ckCostsText[4]:jetpackCostsText[x]),0); // si on n'a pas achete le premier gadget
    00000B16 60E2                   MOV.L       @R14,R0
    00000B18 6303                   MOV         R0,R3
    00000B1A 7315                   ADD         #21,R3
    00000B1C 33CC                   ADD         R12,R3
    00000B1E 6230                   MOV.B       @R3,R2
    00000B20 2228                   TST         R2,R2
    00000B22 8B3B                   BF          L1691
    00000B24 2CC8                   TST         R12,R12
    00000B26 8F29                   BF/S        L1692
    00000B28 E700                   MOV         #0,R7
    00000B2A D30E                   MOV.L       L2258+40,R3; _sauvegarde
    00000B2C 6032                   MOV.L       @R3,R0
    00000B2E 7015                   ADD         #21,R0
    00000B30 00CC                   MOV.B       @(R0,R12),R0
    00000B32 600C                   EXTU.B      R0,R0
    00000B34 8802                   CMP/EQ      #2,R0
    00000B36 8921                   BT          L1692
    00000B38 A025                   BRA         L2215
    00000B3A 56F7                   MOV.L       @(28,R15),R6
    00000B3C              L2258:                            
    00000B3C 7534                   .DATA.W     H'7534
    00000B3E 7532                   .DATA.W     H'7532
    00000B40 <00000000>             .DATA.L     _IsKeyUp
    00000B44 <00000000>             .DATA.L     L674
    00000B48 <00000000>             .DATA.L     __quick_evn_mvn
    00000B4C <00000000>             .DATA.L     L676
    00000B50 <00000000>             .DATA.L     L681
    00000B54 <00000000>             .DATA.L     __quick_odd_mvn
    00000B58 <00000000>             .DATA.L     __$jetpack1
    00000B5C <00000010>             .DATA.L     H'00000010+__$jetpack3
    00000B60 <00000000>             .DATA.L     _ML_bmp_or
    00000B64 <00000000>             .DATA.L     _sauvegarde
    00000B68 <00000000>             .DATA.L     L647
    00000B6C <00000000>             .DATA.L     _sprintf
    00000B70 <00000000>             .DATA.L     _ML_clear_vram
    00000B74 <00000000>             .DATA.L     _ML_rectangle
    00000B78 <00000000>             .DATA.L     _PrintMini
    00000B7C              L1692:                            
    00000B7C 66C3                   MOV         R12,R6
    00000B7E 4608                   SHLL2       R6
    00000B80 63F3                   MOV         R15,R3
    00000B82 7344                   ADD         #68,R3
    00000B84 363C                   ADD         R3,R6
    00000B86              L2215:                            
    00000B86 E513                   MOV         #19,R5
    00000B88 D320                   MOV.L       L2260+2,R3 ; _PrintMini




SH SERIES C/C++ Compiler (Ver. 6.0C)                                                                 30-Jan-2015 21:53:33  PAGE   33


SCT OFFSET   CODE       C LABEL     INSTRUCTION OPERAND    COMMENT

    00000B8A 6662                   MOV.L       @R6,R6
    00000B8C 0C57                   MUL.L       R5,R12
    00000B8E 051A                   STS         MACL,R5
    00000B90 35AC                   ADD         R10,R5
    00000B92 7508                   ADD         #8,R5
    00000B94 430B                   JSR         @R3
    00000B96 E465                   MOV         #101,R4
    00000B98 A00F                   BRA         L1694
    00000B9A 0009                   NOP
    00000B9C              L1691:                            
          Menu.c   280                else if (sauvegarde->jetpack[x] == 1) PrintMini(100,v+8+19*x,"Equiper",0); // si on a achete l
                         +e premier gadget
    00000B9C 7015                   ADD         #21,R0
    00000B9E 00CC                   MOV.B       @(R0,R12),R0
    00000BA0 600C                   EXTU.B      R0,R0
    00000BA2 8801                   CMP/EQ      #1,R0
    00000BA4 8B09                   BF          L1694
    00000BA6 E700                   MOV         #0,R7
    00000BA8 D619                   MOV.L       L2260+6,R6 ; L649
    00000BAA E513                   MOV         #19,R5
    00000BAC D317                   MOV.L       L2260+2,R3 ; _PrintMini
    00000BAE 0C57                   MUL.L       R5,R12
    00000BB0 051A                   STS         MACL,R5
    00000BB2 35AC                   ADD         R10,R5
    00000BB4 7508                   ADD         #8,R5
    00000BB6 430B                   JSR         @R3
    00000BB8 E464                   MOV         #100,R4
    00000BBA              L1694:                            
    00000BBA E013                   MOV         #19,R0
    00000BBC 0C07                   MUL.L       R0,R12
    00000BBE 001A                   STS         MACL,R0
    00000BC0 30AC                   ADD         R10,R0
    00000BC2 2F02                   MOV.L       R0,@R15
    00000BC4 60C3                   MOV         R12,R0
    00000BC6 8800                   CMP/EQ      #0,R0
    00000BC8 8907                   BT          L1316
    00000BCA 8801                   CMP/EQ      #1,R0
    00000BCC 890D                   BT          L1317
    00000BCE 8802                   CMP/EQ      #2,R0
    00000BD0 8913                   BT          L1318
    00000BD2 8803                   CMP/EQ      #3,R0
    00000BD4 8920                   BT          L1319
    00000BD6 A029                   BRA         L1696
    00000BD8 0009                   NOP
    00000BDA              L1316:                           ; case label 
          Menu.c   281    
          Menu.c   282                switch (x)
          Menu.c   283                {
          Menu.c   284                    case 0: ML_bmp_or(jetpack1[0],5,v+2+19*x,8,16); break; // on affiche les sprites des jetpa
                         +cks
    00000BDA E310                   MOV         #16,R3
    00000BDC 2F36                   MOV.L       R3,@-R15
    00000BDE E708                   MOV         #8,R7
    00000BE0 56F1                   MOV.L       @(4,R15),R6
    00000BE2 E505                   MOV         #5,R5
    00000BE4 7602                   ADD         #2,R6
    00000BE6 A01E                   BRA         L2218




SH SERIES C/C++ Compiler (Ver. 6.0C)                                                                 30-Jan-2015 21:53:33  PAGE   34


SCT OFFSET   CODE       C LABEL     INSTRUCTION OPERAND    COMMENT

    00000BE8 54F4                   MOV.L       @(16,R15),R4
    00000BEA              L1317:                           ; case label 
          Menu.c   285                    case 1: ML_bmp_or(jetpack2,5,v+2+19*x,8,16); break;
    00000BEA E210                   MOV         #16,R2
    00000BEC D409                   MOV.L       L2260+10,R4; __$jetpack2
    00000BEE E708                   MOV         #8,R7
    00000BF0 2F26                   MOV.L       R2,@-R15
    00000BF2 56F1                   MOV.L       @(4,R15),R6
    00000BF4 7602                   ADD         #2,R6
    00000BF6 A016                   BRA         L2218
    00000BF8 E505                   MOV         #5,R5
    00000BFA              L1318:                           ; case label 
          Menu.c   286                    case 2: ML_bmp_or(jetpack3[1],5,v+2+19*x,8,16); break;
    00000BFA E210                   MOV         #16,R2
    00000BFC 2F26                   MOV.L       R2,@-R15
    00000BFE E708                   MOV         #8,R7
    00000C00 56F1                   MOV.L       @(4,R15),R6
    00000C02 E505                   MOV         #5,R5
    00000C04 7602                   ADD         #2,R6
    00000C06 A00E                   BRA         L2218
    00000C08 54F5                   MOV.L       @(20,R15),R4
    00000C0A              L2260:                            
    00000C0A 0000                   .DATA.W     0
    00000C0C <00000000>             .DATA.L     _PrintMini
    00000C10 <00000000>             .DATA.L     L649
    00000C14 <00000000>             .DATA.L     __$jetpack2
    00000C18              L1319:                           ; case label 
          Menu.c   287                    case 3: ML_bmp_or(jetpack4,5,v+2+19*x,8,16); break;
    00000C18 D443                   MOV.L       L2261+2,R4 ; __$jetpack4
    00000C1A E210                   MOV         #16,R2
    00000C1C 2F26                   MOV.L       R2,@-R15
    00000C1E E708                   MOV         #8,R7
    00000C20 56F1                   MOV.L       @(4,R15),R6
    00000C22 E505                   MOV         #5,R5
    00000C24 7602                   ADD         #2,R6
    00000C26              L2218:                            
    00000C26 480B                   JSR         @R8
    00000C28 0009                   NOP
    00000C2A 7F04                   ADD         #4,R15
    00000C2C              L1696:                            
          Menu.c   288                }
          Menu.c   289    
          Menu.c   290                if (sauvegarde->jetpack[x] == 2) // si le premier gadget est equipe
    00000C2C 60E2                   MOV.L       @R14,R0
    00000C2E 7015                   ADD         #21,R0
    00000C30 00CC                   MOV.B       @(R0,R12),R0
    00000C32 600C                   EXTU.B      R0,R0
    00000C34 8802                   CMP/EQ      #2,R0
    00000C36 8B0B                   BF          L1697
          Menu.c   291                {
          Menu.c   292                    ML_bmp_8_and(gadgetOKAlpha,11,v+10+19*x); // on affiche un petit signe
    00000C38 66F2                   MOV.L       @R15,R6
    00000C3A 760A                   ADD         #10,R6
    00000C3C 1F68                   MOV.L       R6,@(32,R15)
    00000C3E D43B                   MOV.L       L2261+6,R4 ; __$gadgetOKAlpha
    00000C40 D33B                   MOV.L       L2261+10,R3; _ML_bmp_8_and
    00000C42 430B                   JSR         @R3




SH SERIES C/C++ Compiler (Ver. 6.0C)                                                                 30-Jan-2015 21:53:33  PAGE   35


SCT OFFSET   CODE       C LABEL     INSTRUCTION OPERAND    COMMENT

    00000C44 E50B                   MOV         #11,R5
          Menu.c   293                    ML_bmp_8_or(gadgetOK,11,v+10+19*x);
    00000C46 56F8                   MOV.L       @(32,R15),R6
    00000C48 D43A                   MOV.L       L2261+14,R4; __$gadgetOK
    00000C4A D33B                   MOV.L       L2261+18,R3; _ML_bmp_8_or
    00000C4C 430B                   JSR         @R3
    00000C4E E50B                   MOV         #11,R5
    00000C50              L1697:                            
    00000C50 7C01                   ADD         #1,R12
    00000C52 E204                   MOV         #4,R2
    00000C54 3C23                   CMP/GE      R2,R12
    00000C56 8901                   BT          L2262
    00000C58 AF41                   BRA         L1690
    00000C5A 0009                   NOP
    00000C5C              L2262:                            
          Menu.c   294                }
          Menu.c   295            }
          Menu.c   296    
          Menu.c   297            ML_rectangle(0,u,127,u+19,1,ML_BLACK,ML_XOR); // on affiche la position du curseur
    00000C5C 2FB6                   MOV.L       R11,@-R15
    00000C5E 6C93                   MOV         R9,R12
    00000C60 D236                   MOV.L       L2261+22,R2; _ML_rectangle
    00000C62 E67F                   MOV         #127,R6
    00000C64 2FD6                   MOV.L       R13,@-R15
    00000C66 6593                   MOV         R9,R5
    00000C68 2FD6                   MOV.L       R13,@-R15
    00000C6A 7C13                   ADD         #19,R12
    00000C6C 67C3                   MOV         R12,R7
    00000C6E 420B                   JSR         @R2
    00000C70 E400                   MOV         #0,R4
          Menu.c   298            ML_rectangle(1,u,19,u+19,1,ML_BLACK,ML_XOR); // on rinverse la zone du sprite pour qu'elle soit n
                         +ormale
    00000C72 67C3                   MOV         R12,R7
    00000C74 D331                   MOV.L       L2261+22,R3; _ML_rectangle
    00000C76 E613                   MOV         #19,R6
    00000C78 2FB6                   MOV.L       R11,@-R15
    00000C7A 6593                   MOV         R9,R5
    00000C7C 2FD6                   MOV.L       R13,@-R15
    00000C7E 2FD6                   MOV.L       R13,@-R15
    00000C80 430B                   JSR         @R3
    00000C82 E401                   MOV         #1,R4
          Menu.c   299    
          Menu.c   300            ML_rectangle(27,0,98,13,1,ML_WHITE,ML_WHITE); // on gere la transparence de l'en-tete
    00000C84 D32D                   MOV.L       L2261+22,R3; _ML_rectangle
    00000C86 E200                   MOV         #0,R2
    00000C88 2F26                   MOV.L       R2,@-R15
    00000C8A E70D                   MOV         #13,R7
    00000C8C 2F26                   MOV.L       R2,@-R15
    00000C8E E662                   MOV         #98,R6
    00000C90 2FD6                   MOV.L       R13,@-R15
    00000C92 6523                   MOV         R2,R5
    00000C94 430B                   JSR         @R3
    00000C96 E41B                   MOV         #27,R4
          Menu.c   301            ML_line(85,14,97,14,ML_WHITE); // on fait des petits dessins
    00000C98 D329                   MOV.L       L2261+26,R3; _ML_line
    00000C9A E200                   MOV         #0,R2
    00000C9C 2F26                   MOV.L       R2,@-R15




SH SERIES C/C++ Compiler (Ver. 6.0C)                                                                 30-Jan-2015 21:53:33  PAGE   36


SCT OFFSET   CODE       C LABEL     INSTRUCTION OPERAND    COMMENT

    00000C9E E70E                   MOV         #14,R7
    00000CA0 E661                   MOV         #97,R6
    00000CA2 6573                   MOV         R7,R5
    00000CA4 430B                   JSR         @R3
    00000CA6 E455                   MOV         #85,R4
          Menu.c   302    
          Menu.c   303            ML_bmp_or(jetpacksTop,0,0,128,16); // on affiche le sprite de l'entete
    00000CA8 973D                   MOV.W       L2261,R7   ; H'0080
    00000CAA E600                   MOV         #0,R6
    00000CAC D425                   MOV.L       L2261+30,R4; __$jetpacksTop
    00000CAE E210                   MOV         #16,R2
    00000CB0 2F26                   MOV.L       R2,@-R15
    00000CB2 480B                   JSR         @R8
    00000CB4 6563                   MOV         R6,R5
    00000CB6 7F2C                   ADD         #44,R15
          Menu.c   304            ML_bmp_or((sauvegarde->jetpackEquipe==0?jetpack1[0]:sauvegarde->jetpackEquipe==1?jetpack2:sauvegar
                         +de->jetpackEquipe==2?jetpack3[1]:jetpack4),sauvegarde->jetpackEquipe==0?85:86,0,8,16); // on affiche les s
                         +prites des objets equipes
    00000CB8 E310                   MOV         #16,R3
    00000CBA E708                   MOV         #8,R7
    00000CBC 2F36                   MOV.L       R3,@-R15
    00000CBE E019                   MOV         #25,R0
    00000CC0 6CE2                   MOV.L       @R14,R12
    00000CC2 0CCC                   MOV.B       @(R0,R12),R12
    00000CC4 6CCC                   EXTU.B      R12,R12
    00000CC6 2CC8                   TST         R12,R12
    00000CC8 8F02                   BF/S        L1698
    00000CCA E600                   MOV         #0,R6
    00000CCC A001                   BRA         L1702
    00000CCE E555                   MOV         #85,R5
    00000CD0              L1698:                            
    00000CD0 E556                   MOV         #86,R5
    00000CD2              L1702:                            
    00000CD2 2CC8                   TST         R12,R12
    00000CD4 8B01                   BF          L1699
    00000CD6 A00B                   BRA         L1703
    00000CD8 54F4                   MOV.L       @(16,R15),R4
    00000CDA              L1699:                            
    00000CDA 60C3                   MOV         R12,R0
    00000CDC 8801                   CMP/EQ      #1,R0
    00000CDE 8B02                   BF          L1700
    00000CE0 D419                   MOV.L       L2261+34,R4; __$jetpack2
    00000CE2 A005                   BRA         L1703
    00000CE4 0009                   NOP
    00000CE6              L1700:                            
    00000CE6 8802                   CMP/EQ      #2,R0
    00000CE8 8B01                   BF          L1701
    00000CEA A001                   BRA         L1703
    00000CEC 54F5                   MOV.L       @(20,R15),R4
    00000CEE              L1701:                            
    00000CEE D40E                   MOV.L       L2261+2,R4 ; __$jetpack4
    00000CF0              L1703:                            
    00000CF0 480B                   JSR         @R8
    00000CF2 0009                   NOP
          Menu.c   305            PrintMini(102,2,totalMoney,2); // on affiche notre argent
    00000CF4 D215                   MOV.L       L2261+38,R2; _PrintMini
    00000CF6 7F04                   ADD         #4,R15




SH SERIES C/C++ Compiler (Ver. 6.0C)                                                                 30-Jan-2015 21:53:33  PAGE   37


SCT OFFSET   CODE       C LABEL     INSTRUCTION OPERAND    COMMENT

    00000CF8 E702                   MOV         #2,R7
    00000CFA 66F3                   MOV         R15,R6
    00000CFC 7628                   ADD         #40,R6
    00000CFE 6573                   MOV         R7,R5
    00000D00 420B                   JSR         @R2
    00000D02 E466                   MOV         #102,R4
          Menu.c   306    
          Menu.c   307            if (animation != 0)
    00000D04 53F6                   MOV.L       @(24,R15),R3
    00000D06 2338                   TST         R3,R3
    00000D08 8925                   BT          L1706
          Menu.c   308            {
          Menu.c   309                if (animationSucces(animation == 2?-1:1) == 1) animation = 0;
    00000D0A 50F6                   MOV.L       @(24,R15),R0
    00000D0C 8802                   CMP/EQ      #2,R0
    00000D0E 8B01                   BF          L1708
    00000D10 A001                   BRA         L1709
    00000D12 E4FF                   MOV         #-1,R4
    00000D14              L1708:                            
    00000D14 E401                   MOV         #1,R4
    00000D16              L1709:                            
    00000D16 D20E                   MOV.L       L2261+42,R2; _animationSucces
    00000D18 420B                   JSR         @R2
    00000D1A 0009                   NOP
    00000D1C 8801                   CMP/EQ      #1,R0
    00000D1E 8B19                   BF          L1707
    00000D20 E200                   MOV         #0,R2
    00000D22 A018                   BRA         L1706
    00000D24 1F26                   MOV.L       R2,@(24,R15)
    00000D26              L2261:                            
    00000D26 0080                   .DATA.W     H'0080
    00000D28 <00000000>             .DATA.L     __$jetpack4
    00000D2C <00000000>             .DATA.L     __$gadgetOKAlpha
    00000D30 <00000000>             .DATA.L     _ML_bmp_8_and
    00000D34 <00000000>             .DATA.L     __$gadgetOK
    00000D38 <00000000>             .DATA.L     _ML_bmp_8_or
    00000D3C <00000000>             .DATA.L     _ML_rectangle
    00000D40 <00000000>             .DATA.L     _ML_line
    00000D44 <00000000>             .DATA.L     __$jetpacksTop
    00000D48 <00000000>             .DATA.L     __$jetpack2
    00000D4C <00000000>             .DATA.L     _PrintMini
    00000D50 <00000000>             .DATA.L     _animationSucces
    00000D54              L1707:                            
          Menu.c   310                else animation = 1;
    00000D54 1FD6                   MOV.L       R13,@(24,R15)
    00000D56              L1706:                            
          Menu.c   311            }
          Menu.c   312    
          Menu.c   313            ML_display_vram();
    00000D56 D31F                   MOV.L       L2263+6,R3 ; _ML_display_vram
    00000D58 430B                   JSR         @R3
    00000D5A 0009                   NOP
          Menu.c   314    
          Menu.c   315            if (vNext == v && keyDown == 0) // on gere le clavier ainsi que la position des elements a l'ecran
    00000D5C 52F2                   MOV.L       @(8,R15),R2
    00000D5E 32A0                   CMP/EQ      R10,R2
    00000D60 8901                   BT          L2264




SH SERIES C/C++ Compiler (Ver. 6.0C)                                                                 30-Jan-2015 21:53:33  PAGE   38


SCT OFFSET   CODE       C LABEL     INSTRUCTION OPERAND    COMMENT

    00000D62 A0CB                   BRA         L1711
    00000D64 0009                   NOP
    00000D66              L2264:                            
    00000D66 51F5                   MOV.L       @(20,R15),R1
    00000D68 2118                   TST         R1,R1
    00000D6A 8901                   BT          L2265
    00000D6C A0C6                   BRA         L1711
    00000D6E 0009                   NOP
    00000D70              L2265:                            
          Menu.c   316            {
          Menu.c   317                if (IsKeyDown(KEY_CTRL_DOWN) && selection != 3)
    00000D70 942D                   MOV.W       L2263,R4   ; H'7547
    00000D72 D319                   MOV.L       L2263+10,R3; _IsKeyDown
    00000D74 430B                   JSR         @R3
    00000D76 0009                   NOP
    00000D78 2008                   TST         R0,R0
    00000D7A 8910                   BT          L1712
    00000D7C 50F1                   MOV.L       @(4,R15),R0
    00000D7E 8803                   CMP/EQ      #3,R0
    00000D80 890D                   BT          L1712
          Menu.c   318                {
          Menu.c   319                    if (u > 30)
    00000D82 E21E                   MOV         #30,R2
    00000D84 3927                   CMP/GT      R2,R9
    00000D86 8B04                   BF          L1713
          Menu.c   320                    {
          Menu.c   321                        vNext -= 19;
    00000D88 51F2                   MOV.L       @(8,R15),R1
    00000D8A 71ED                   ADD         #-19,R1
    00000D8C 1F12                   MOV.L       R1,@(8,R15)
          Menu.c   322                        u += 19;
    00000D8E A003                   BRA         L1714
    00000D90 7913                   ADD         #19,R9
    00000D92              L1713:                            
          Menu.c   323                    }
          Menu.c   324                    else
          Menu.c   325                    {
          Menu.c   326                        u += 19;
    00000D92 7913                   ADD         #19,R9
          Menu.c   327                        keyDown = 6;
    00000D94 E106                   MOV         #6,R1
    00000D96 1F15                   MOV.L       R1,@(20,R15)
    00000D98              L1714:                            
          Menu.c   328                    }
          Menu.c   329                    selection++;
    00000D98 53F1                   MOV.L       @(4,R15),R3
    00000D9A A016                   BRA         L2219
    00000D9C 7301                   ADD         #1,R3
    00000D9E              L1712:                            
          Menu.c   330                }
          Menu.c   331                else if (IsKeyDown(KEY_CTRL_UP) && selection != 0)
    00000D9E 9417                   MOV.W       L2263+2,R4 ; H'7542
    00000DA0 D30D                   MOV.L       L2263+10,R3; _IsKeyDown
    00000DA2 430B                   JSR         @R3
    00000DA4 0009                   NOP
    00000DA6 2008                   TST         R0,R0
    00000DA8 8918                   BT          L1716




SH SERIES C/C++ Compiler (Ver. 6.0C)                                                                 30-Jan-2015 21:53:33  PAGE   39


SCT OFFSET   CODE       C LABEL     INSTRUCTION OPERAND    COMMENT

    00000DAA 53F1                   MOV.L       @(4,R15),R3
    00000DAC 2338                   TST         R3,R3
    00000DAE 8915                   BT          L1716
          Menu.c   332                {
          Menu.c   333                    if (u < 20)
    00000DB0 E314                   MOV         #20,R3
    00000DB2 3933                   CMP/GE      R3,R9
    00000DB4 8904                   BT          L1717
          Menu.c   334                    {
          Menu.c   335                        vNext += 19;
    00000DB6 51F2                   MOV.L       @(8,R15),R1
    00000DB8 7113                   ADD         #19,R1
    00000DBA 1F12                   MOV.L       R1,@(8,R15)
          Menu.c   336                        u -= 19;
    00000DBC A003                   BRA         L1718
    00000DBE 79ED                   ADD         #-19,R9
    00000DC0              L1717:                            
          Menu.c   337                    }
          Menu.c   338                    else
          Menu.c   339                    {
          Menu.c   340                        u -= 19;
    00000DC0 79ED                   ADD         #-19,R9
          Menu.c   341                        keyDown = 6;
    00000DC2 E106                   MOV         #6,R1
    00000DC4 1F15                   MOV.L       R1,@(20,R15)
    00000DC6              L1718:                            
          Menu.c   342                    }
          Menu.c   343                    selection--;
    00000DC6 53F1                   MOV.L       @(4,R15),R3
    00000DC8 73FF                   ADD         #-1,R3
    00000DCA              L2219:                            
    00000DCA A0C2                   BRA         L1731
    00000DCC 1F31                   MOV.L       R3,@(4,R15)
    00000DCE              L2263:                            
    00000DCE 7547                   .DATA.W     H'7547
    00000DD0 7542                   .DATA.W     H'7542
    00000DD2 0000                   .DATA.W     0
    00000DD4 <00000000>             .DATA.L     _ML_display_vram
    00000DD8 <00000000>             .DATA.L     _IsKeyDown
    00000DDC              L1716:                            
          Menu.c   344                }
          Menu.c   345                else if (IsKeyDown(KEY_CTRL_EXE) && exeDown == 0) // si on appuie sur EXE
    00000DDC 9487                   MOV.W       L2266,R4   ; H'7534
    00000DDE D344                   MOV.L       L2266+2,R3 ; _IsKeyDown
    00000DE0 430B                   JSR         @R3
    00000DE2 0009                   NOP
    00000DE4 2008                   TST         R0,R0
    00000DE6 8B01                   BF          L2267
    00000DE8 A0B3                   BRA         L1731
    00000DEA 0009                   NOP
    00000DEC              L2267:                            
    00000DEC 53F9                   MOV.L       @(36,R15),R3
    00000DEE 2338                   TST         R3,R3
    00000DF0 8901                   BT          L2268
    00000DF2 A0AE                   BRA         L1731
    00000DF4 0009                   NOP
    00000DF6              L2268:                            




SH SERIES C/C++ Compiler (Ver. 6.0C)                                                                 30-Jan-2015 21:53:33  PAGE   40


SCT OFFSET   CODE       C LABEL     INSTRUCTION OPERAND    COMMENT

          Menu.c   346                {
          Menu.c   347                    exeDown = 1; // pour viter l'appui constant sur EXE
    00000DF6 1FD9                   MOV.L       R13,@(36,R15)
    00000DF8 64E2                   MOV.L       @R14,R4
    00000DFA 53F1                   MOV.L       @(4,R15),R3
    00000DFC 6243                   MOV         R4,R2
    00000DFE 7215                   ADD         #21,R2
    00000E00 323C                   ADD         R3,R2
    00000E02 6120                   MOV.B       @R2,R1
    00000E04 2118                   TST         R1,R1
    00000E06 8B58                   BF          L1721
    00000E08 5CF1                   MOV.L       @(4,R15),R12
    00000E0A 63F3                   MOV         R15,R3
    00000E0C 4C08                   SHLL2       R12
    00000E0E 7354                   ADD         #84,R3
    00000E10 3C3C                   ADD         R3,R12
    00000E12 E078                   MOV         #120,R0
    00000E14 62C2                   MOV.L       @R12,R2
    00000E16 014E                   MOV.L       @(R0,R4),R1
    00000E18 3123                   CMP/GE      R2,R1
    00000E1A 8901                   BT          L2269
    00000E1C A099                   BRA         L1731
    00000E1E 0009                   NOP
    00000E20              L2269:                            
          Menu.c   348    
          Menu.c   349                    if (sauvegarde->jetpack[selection]== 0) // si on a pas achete le gadget
          Menu.c   350                    {
          Menu.c   351                        if (sauvegarde->argent >= jetpackCosts[selection]) // si on a assez d'argent et si il 
                         +est debloque
          Menu.c   352                        {
          Menu.c   353                            sauvegarde->statTotal[6] += jetpackCosts[selection];
    00000E20 62C2                   MOV.L       @R12,R2
    00000E22 E050                   MOV         #80,R0
    00000E24 014E                   MOV.L       @(R0,R4),R1
    00000E26 312C                   ADD         R2,R1
    00000E28 0416                   MOV.L       R1,@(R0,R4)
          Menu.c   354                            sauvegarde->argent -= jetpackCosts[selection]; // on paye
    00000E2A E078                   MOV         #120,R0
    00000E2C 61C2                   MOV.L       @R12,R1
    00000E2E 62E2                   MOV.L       @R14,R2
    00000E30 032E                   MOV.L       @(R0,R2),R3
    00000E32 3318                   SUB         R1,R3
    00000E34 0236                   MOV.L       R3,@(R0,R2)
          Menu.c   355                            sauvegarde->jetpack[selection] = 1; // on indique qu'il est debloque
    00000E36 62E2                   MOV.L       @R14,R2
    00000E38 53F1                   MOV.L       @(4,R15),R3
    00000E3A 7215                   ADD         #21,R2
    00000E3C 323C                   ADD         R3,R2
    00000E3E 22D0                   MOV.B       R13,@R2
          Menu.c   356    
          Menu.c   357                            if (((sauvegarde->jetpack[1]!=0&&sauvegarde->jetpack[2]!=0)||(sauvegarde->jetpack[
                         +1]!=0&&sauvegarde->jetpack[3]!=0)||(sauvegarde->jetpack[2]!=0&&sauvegarde->jetpack[3]!=0))&&sauvegarde->su
                         +cces[13]!=-1)
    00000E40 64E2                   MOV.L       @R14,R4
    00000E42 7415                   ADD         #21,R4
    00000E44 8441                   MOV.B       @(1,R4),R0
    00000E46 2008                   TST         R0,R0




SH SERIES C/C++ Compiler (Ver. 6.0C)                                                                 30-Jan-2015 21:53:33  PAGE   41


SCT OFFSET   CODE       C LABEL     INSTRUCTION OPERAND    COMMENT

    00000E48 8908                   BT          L1726
    00000E4A 8442                   MOV.B       @(2,R4),R0
    00000E4C 2008                   TST         R0,R0
    00000E4E 8B0B                   BF          L1724
    00000E50 8441                   MOV.B       @(1,R4),R0
    00000E52 2008                   TST         R0,R0
    00000E54 8902                   BT          L1726
    00000E56 8443                   MOV.B       @(3,R4),R0
    00000E58 2008                   TST         R0,R0
    00000E5A 8B05                   BF          L1724
    00000E5C              L1726:                            
    00000E5C 8442                   MOV.B       @(2,R4),R0
    00000E5E 2008                   TST         R0,R0
    00000E60 890C                   BT          L1723
    00000E62 8443                   MOV.B       @(3,R4),R0
    00000E64 2008                   TST         R0,R0
    00000E66 8909                   BT          L1723
    00000E68              L1724:                            
    00000E68 60E2                   MOV.L       @R14,R0
    00000E6A E16D                   MOV         #109,R1
    00000E6C 001C                   MOV.B       @(R0,R1),R0
    00000E6E 88FF                   CMP/EQ      #-1,R0
    00000E70 8904                   BT          L1723
          Menu.c   358                                sauvegarde->succes[13]=-1, animation = 2;
    00000E72 E3FF                   MOV         #-1,R3
    00000E74 62E2                   MOV.L       @R14,R2
    00000E76 E06D                   MOV         #109,R0
    00000E78 0234                   MOV.B       R3,@(R0,R2)
    00000E7A 1FB6                   MOV.L       R11,@(24,R15)
    00000E7C              L1723:                            
    00000E7C 64E2                   MOV.L       @R14,R4
    00000E7E E050                   MOV         #80,R0
    00000E80 D31C                   MOV.L       L2266+6,R3 ; H'0000C350
    00000E82 024E                   MOV.L       @(R0,R4),R2
    00000E84 3233                   CMP/GE      R3,R2
    00000E86 8B08                   BF          L1727
    00000E88 E075                   MOV         #117,R0
    00000E8A 004C                   MOV.B       @(R0,R4),R0
    00000E8C 88FF                   CMP/EQ      #-1,R0
    00000E8E 8904                   BT          L1727
          Menu.c   359                            if (sauvegarde->statTotal[6] >= 50000 && sauvegarde->succes[21] != -1) sauvegarde-
                         +>succes[21] = -1, animation = 2;
    00000E90 63E2                   MOV.L       @R14,R3
    00000E92 E2FF                   MOV         #-1,R2
    00000E94 E075                   MOV         #117,R0
    00000E96 0324                   MOV.B       R2,@(R0,R3)
    00000E98 1FB6                   MOV.L       R11,@(24,R15)
    00000E9A              L1727:                            
          Menu.c   360                            if (sauvegarde->succes[3] != -1 && isAllBought() == 1) sauvegarde->succes[3] = -1,
                         + animation = 2;
    00000E9A E163                   MOV         #99,R1
    00000E9C 60E2                   MOV.L       @R14,R0
    00000E9E 001C                   MOV.B       @(R0,R1),R0
    00000EA0 88FF                   CMP/EQ      #-1,R0
    00000EA2 8956                   BT          L1731
    00000EA4 D214                   MOV.L       L2266+10,R2; _isAllBought
    00000EA6 420B                   JSR         @R2




SH SERIES C/C++ Compiler (Ver. 6.0C)                                                                 30-Jan-2015 21:53:33  PAGE   42


SCT OFFSET   CODE       C LABEL     INSTRUCTION OPERAND    COMMENT

    00000EA8 0009                   NOP
    00000EAA 8801                   CMP/EQ      #1,R0
    00000EAC 8B51                   BF          L1731
    00000EAE E3FF                   MOV         #-1,R3
    00000EB0 62E2                   MOV.L       @R14,R2
    00000EB2 E063                   MOV         #99,R0
    00000EB4 0234                   MOV.B       R3,@(R0,R2)
    00000EB6 A04C                   BRA         L1731
    00000EB8 1FB6                   MOV.L       R11,@(24,R15)
    00000EBA              L1721:                            
          Menu.c   361    
          Menu.c   362                        }
          Menu.c   363                    }
          Menu.c   364                    else if (sauvegarde->jetpack[selection] == 1) // si il est debloque
    00000EBA 6043                   MOV         R4,R0
    00000EBC 53F1                   MOV.L       @(4,R15),R3
    00000EBE 7015                   ADD         #21,R0
    00000EC0 003C                   MOV.B       @(R0,R3),R0
    00000EC2 600C                   EXTU.B      R0,R0
    00000EC4 8801                   CMP/EQ      #1,R0
    00000EC6 8B44                   BF          L1731
          Menu.c   365                    {
          Menu.c   366                        sauvegarde->jetpack[sauvegarde->jetpackEquipe] = 1;
    00000EC8 E019                   MOV         #25,R0
    00000ECA 6343                   MOV         R4,R3
    00000ECC 024C                   MOV.B       @(R0,R4),R2
    00000ECE 7315                   ADD         #21,R3
    00000ED0 622C                   EXTU.B      R2,R2
    00000ED2 323C                   ADD         R3,R2
    00000ED4 22D0                   MOV.B       R13,@R2
          Menu.c   367                        sauvegarde->jetpack[selection] = 2;
    00000ED6 60E2                   MOV.L       @R14,R0
    00000ED8 53F1                   MOV.L       @(4,R15),R3
    00000EDA 6203                   MOV         R0,R2
    00000EDC 7215                   ADD         #21,R2
    00000EDE 323C                   ADD         R3,R2
    00000EE0 22B0                   MOV.B       R11,@R2
          Menu.c   368                        sauvegarde->jetpackEquipe = selection;
    00000EE2 E019                   MOV         #25,R0
    00000EE4 63E2                   MOV.L       @R14,R3
    00000EE6 52F1                   MOV.L       @(4,R15),R2
    00000EE8 0324                   MOV.B       R2,@(R0,R3)
    00000EEA A032                   BRA         L1731
    00000EEC 0009                   NOP
    00000EEE              L2266:                            
    00000EEE 7534                   .DATA.W     H'7534
    00000EF0 <00000000>             .DATA.L     _IsKeyDown
    00000EF4 0000C350               .DATA.L     H'0000C350
    00000EF8 <00000000>             .DATA.L     _isAllBought
    00000EFC              L1711:                            
          Menu.c   369                    }
          Menu.c   370                }
          Menu.c   371            }
          Menu.c   372            else
          Menu.c   373            {
          Menu.c   374                if (v < vNext) u += (vNext-v>2?3:1), v += (vNext-v>2?3:1);
    00000EFC 51F2                   MOV.L       @(8,R15),R1




SH SERIES C/C++ Compiler (Ver. 6.0C)                                                                 30-Jan-2015 21:53:33  PAGE   43


SCT OFFSET   CODE       C LABEL     INSTRUCTION OPERAND    COMMENT

    00000EFE 3A13                   CMP/GE      R1,R10
    00000F00 890F                   BT          L1732
    00000F02 54F2                   MOV.L       @(8,R15),R4
    00000F04 34A8                   SUB         R10,R4
    00000F06 34B7                   CMP/GT      R11,R4
    00000F08 8B01                   BF          L1733
    00000F0A A001                   BRA         L1735
    00000F0C E203                   MOV         #3,R2
    00000F0E              L1733:                            
    00000F0E E201                   MOV         #1,R2
    00000F10              L1735:                            
    00000F10 392C                   ADD         R2,R9
    00000F12 34B7                   CMP/GT      R11,R4
    00000F14 8B01                   BF          L1734
    00000F16 A001                   BRA         L1736
    00000F18 E303                   MOV         #3,R3
    00000F1A              L1734:                            
    00000F1A E301                   MOV         #1,R3
    00000F1C              L1736:                            
    00000F1C 3A3C                   ADD         R3,R10
    00000F1E A012                   BRA         L1737
    00000F20 0009                   NOP
    00000F22              L1732:                            
          Menu.c   375                else if (v > vNext) u -= (v-vNext>2?3:1), v -= (v-vNext>2?3:1);
    00000F22 52F2                   MOV.L       @(8,R15),R2
    00000F24 3A27                   CMP/GT      R2,R10
    00000F26 8B0E                   BF          L1737
    00000F28 53F2                   MOV.L       @(8,R15),R3
    00000F2A 64A3                   MOV         R10,R4
    00000F2C 3438                   SUB         R3,R4
    00000F2E 34B7                   CMP/GT      R11,R4
    00000F30 8B01                   BF          L1739
    00000F32 A001                   BRA         L1741
    00000F34 E103                   MOV         #3,R1
    00000F36              L1739:                            
    00000F36 E101                   MOV         #1,R1
    00000F38              L1741:                            
    00000F38 34B7                   CMP/GT      R11,R4
    00000F3A 8F02                   BF/S        L1740
    00000F3C 3918                   SUB         R1,R9
    00000F3E A001                   BRA         L1742
    00000F40 E203                   MOV         #3,R2
    00000F42              L1740:                            
    00000F42 E201                   MOV         #1,R2
    00000F44              L1742:                            
    00000F44 3A28                   SUB         R2,R10
    00000F46              L1737:                            
          Menu.c   376    
          Menu.c   377                if (keyDown > 0) keyDown--;
    00000F46 53F5                   MOV.L       @(20,R15),R3
    00000F48 4315                   CMP/PL      R3
    00000F4A 8B02                   BF          L1731
    00000F4C 51F5                   MOV.L       @(20,R15),R1
    00000F4E 71FF                   ADD         #-1,R1
    00000F50 1F15                   MOV.L       R1,@(20,R15)
    00000F52              L1731:                            
          Menu.c   378            }




SH SERIES C/C++ Compiler (Ver. 6.0C)                                                                 30-Jan-2015 21:53:33  PAGE   44


SCT OFFSET   CODE       C LABEL     INSTRUCTION OPERAND    COMMENT

          Menu.c   379    
          Menu.c   380            if (IsKeyUp(KEY_CTRL_EXE)) exeDown = 0;
    00000F52 9419                   MOV.W       L2270,R4   ; H'7534
    00000F54 D30D                   MOV.L       L2270+4,R3 ; _IsKeyUp
    00000F56 430B                   JSR         @R3
    00000F58 0009                   NOP
    00000F5A 2008                   TST         R0,R0
    00000F5C 8901                   BT          L1744
    00000F5E E300                   MOV         #0,R3
    00000F60 1F39                   MOV.L       R3,@(36,R15)
    00000F62              L1744:                            
          Menu.c   381    
          Menu.c   382        }while (IsKeyUp(KEY_CTRL_EXIT));
    00000F62 9412                   MOV.W       L2270+2,R4 ; H'7532
    00000F64 D309                   MOV.L       L2270+4,R3 ; _IsKeyUp
    00000F66 430B                   JSR         @R3
    00000F68 0009                   NOP
    00000F6A 2008                   TST         R0,R0
    00000F6C 8901                   BT          L2271
    00000F6E ADA8                   BRA         L1688
    00000F70 0009                   NOP
    00000F72              L2271:                            
          Menu.c   383    }
    00000F72 7F64                   ADD         #100,R15
    00000F74 4F16                   LDS.L       @R15+,MACL
    00000F76 4F26                   LDS.L       @R15+,PR
    00000F78 68F6                   MOV.L       @R15+,R8
    00000F7A 69F6                   MOV.L       @R15+,R9
    00000F7C 6AF6                   MOV.L       @R15+,R10
    00000F7E 6BF6                   MOV.L       @R15+,R11
    00000F80 6CF6                   MOV.L       @R15+,R12
    00000F82 6DF6                   MOV.L       @R15+,R13
    00000F84 000B                   RTS
    00000F86 6EF6                   MOV.L       @R15+,R14
    00000F88              L2270:                            
    00000F88 7534                   .DATA.W     H'7534
    00000F8A 7532                   .DATA.W     H'7532
    00000F8C <00000000>             .DATA.L     _IsKeyUp
          Menu.c   384    
          Menu.c   385    void ameliorationMenu()
    00000F90              _ameliorationMenu:               ; function: ameliorationMenu
                                                           ; frame size=216
                                                           ; used runtime library name:
                                                           ; __quick_evn_mvn, __quick_odd_mvn
    00000F90 2FE6                   MOV.L       R14,@-R15
          Menu.c   386    {
          Menu.c   387        int x, u = 22, v = 14, vNext = 14, position = 0, selection = 1, exeDown = 1, keyDown = 0, animation = 
                         +0;
    00000F92 E316                   MOV         #22,R3
          Menu.c   388    
          Menu.c   389        char *vehicules[6] = {"Becane d'enfer", "Teleporteur Mega Dement", "Gravity Guy", "Oiseau Benef", "P't
                         +it Ecraseur", "Mr Calin"};
    00000F94 D24B                   MOV.L       L2272+4,R2 ; L716
    00000F96 EE01                   MOV         #1,R14
    00000F98 2FD6                   MOV.L       R13,@-R15
    00000F9A 2FC6                   MOV.L       R12,@-R15
    00000F9C 2FB6                   MOV.L       R11,@-R15




SH SERIES C/C++ Compiler (Ver. 6.0C)                                                                 30-Jan-2015 21:53:33  PAGE   45


SCT OFFSET   CODE       C LABEL     INSTRUCTION OPERAND    COMMENT

    00000F9E 2FA6                   MOV.L       R10,@-R15
    00000FA0 2F96                   MOV.L       R9,@-R15
    00000FA2 EA00                   MOV         #0,R10
    00000FA4 908C                   MOV.W       L2272,R0   ; H'FF70
    00000FA6 69E3                   MOV         R14,R9
    00000FA8 2F86                   MOV.L       R8,@-R15
    00000FAA E80E                   MOV         #14,R8
    00000FAC 4F22                   STS.L       PR,@-R15
    00000FAE 4F12                   STS.L       MACL,@-R15
    00000FB0 3F0C                   ADD         R0,R15
    00000FB2 61F3                   MOV         R15,R1
    00000FB4 2F32                   MOV.L       R3,@R15
    00000FB6 7178                   ADD         #120,R1
    00000FB8 6383                   MOV         R8,R3
    00000FBA 1F31                   MOV.L       R3,@(4,R15)
    00000FBC 1FA5                   MOV.L       R10,@(20,R15)
    00000FBE 1FEE                   MOV.L       R14,@(56,R15)
    00000FC0 1FA3                   MOV.L       R10,@(12,R15)
    00000FC2 1FA6                   MOV.L       R10,@(24,R15)
    00000FC4 D340                   MOV.L       L2272+8,R3 ; __quick_evn_mvn
    00000FC6 430B                   JSR         @R3
    00000FC8 E018                   MOV         #24,R0
          Menu.c   390        char *ameliorationNames[13] = {"BECANE NOIRE", "BECANE AIMANTEE", "TELEPORTEUR NOIR", "TELEPORTEUR AIM
                         +ANTE", "GRAVITY GUY NOIR", "GRAVITY GUY AIMANTE", "OISEAU NOIR", "OISEAU AIMANTE", "P'TIT ECRASEUR NOIR", 
                         +"P'TIT ECRASEUR AIMANTE", "MR CALIN NOIR", "MR CALIN AIMANTE", "P'TIT ECRASEUR AI..."};
    00000FCA 61F3                   MOV         R15,R1
    00000FCC D23F                   MOV.L       L2272+12,R2; L724
    00000FCE 7144                   ADD         #68,R1
    00000FD0 D33F                   MOV.L       L2272+16,R3; __quick_odd_mvn
    00000FD2 430B                   JSR         @R3
    00000FD4 E034                   MOV         #52,R0
    00000FD6 D13F                   MOV.L       L2272+20,R1; H'00000048+__$moto
    00000FD8 D33F                   MOV.L       L2272+24,R3; H'00000010+__$teleporteur1
    00000FDA 1F1C                   MOV.L       R1,@(48,R15)
    00000FDC 1F3B                   MOV.L       R3,@(44,R15)
    00000FDE D13F                   MOV.L       L2272+28,R1; H'00000030+__$gravitySolUp1
    00000FE0 D33F                   MOV.L       L2272+32,R3; H'00000030+__$bird1
    00000FE2 1F1A                   MOV.L       R1,@(40,R15)
    00000FE4 1F39                   MOV.L       R3,@(36,R15)
    00000FE6 D13F                   MOV.L       L2272+36,R1; H'00000048+__$tank1
    00000FE8 D33F                   MOV.L       L2272+40,R3; H'00000040+__$dragonMilieu
    00000FEA 1F17                   MOV.L       R1,@(28,R15)
    00000FEC 1F3D                   MOV.L       R3,@(52,R15)
    00000FEE D13F                   MOV.L       L2272+44,R1; H'00000120+__$gadgets
    00000FF0 1F18                   MOV.L       R1,@(32,R15)
          Menu.c   391        char totalMoney[7];
          Menu.c   392    
          Menu.c   393        do
    00000FF2              L1745:                            
          Menu.c   394        {
          Menu.c   395            sprintf(totalMoney,"%d$",sauvegarde->argent); // on transforme notre argent en texte pour pouvoir 
                         +l'afficher
    00000FF2 E078                   MOV         #120,R0
    00000FF4 DB3E                   MOV.L       L2272+48,R11; L647
    00000FF6 DC3F                   MOV.L       L2272+52,R12; _sprintf
    00000FF8 DD3F                   MOV.L       L2272+56,R13; _sauvegarde
    00000FFA 63D2                   MOV.L       @R13,R3




SH SERIES C/C++ Compiler (Ver. 6.0C)                                                                 30-Jan-2015 21:53:33  PAGE   46


SCT OFFSET   CODE       C LABEL     INSTRUCTION OPERAND    COMMENT

    00000FFC 023E                   MOV.L       @(R0,R3),R2
    00000FFE 2F26                   MOV.L       R2,@-R15
    00001000 2FB6                   MOV.L       R11,@-R15
    00001002 64F3                   MOV         R15,R4
    00001004 4C0B                   JSR         @R12
    00001006 7444                   ADD         #68,R4
          Menu.c   396    
          Menu.c   397            ML_clear_vram();
    00001008 DC3C                   MOV.L       L2272+60,R12; _ML_clear_vram
    0000100A 4C0B                   JSR         @R12
    0000100C 7F08                   ADD         #8,R15
          Menu.c   398    
          Menu.c   399            for(x = 0; x < 6; x++) // il y a 6 secteurs
    0000100E 6BA3                   MOV         R10,R11
    00001010              L1747:                            
          Menu.c   400            {
          Menu.c   401    
          Menu.c   402                ML_rectangle(0,v+46*x,127,v+8+46*x,1,ML_BLACK,ML_WHITE); // le rectange "secteur"
    00001010 2FA6                   MOV.L       R10,@-R15
    00001012 EC2E                   MOV         #46,R12
    00001014 D33A                   MOV.L       L2272+64,R3; _ML_rectangle
    00001016 E67F                   MOV         #127,R6
    00001018 2FE6                   MOV.L       R14,@-R15
    0000101A 2FE6                   MOV.L       R14,@-R15
    0000101C 0BC7                   MUL.L       R12,R11
    0000101E 0C1A                   STS         MACL,R12
    00001020 3C8C                   ADD         R8,R12
    00001022 67C3                   MOV         R12,R7
    00001024 7708                   ADD         #8,R7
    00001026 65C3                   MOV         R12,R5
    00001028 1F77                   MOV.L       R7,@(28,R15)
    0000102A 430B                   JSR         @R3
    0000102C E400                   MOV         #0,R4
          Menu.c   403    
          Menu.c   404                PrintMini(2,v+2+46*x,vehicules[x],0); // on affiche le nom du secteur
    0000102E E700                   MOV         #0,R7
    00001030 9347                   MOV.W       L2272+2,R3 ; H'0084
    00001032 65C3                   MOV         R12,R5
    00001034 D233                   MOV.L       L2272+68,R2; _PrintMini
    00001036 66B3                   MOV         R11,R6
    00001038 4608                   SHLL2       R6
    0000103A 33FC                   ADD         R15,R3
    0000103C 363C                   ADD         R3,R6
    0000103E 7502                   ADD         #2,R5
    00001040 6662                   MOV.L       @R6,R6
    00001042 420B                   JSR         @R2
    00001044 E402                   MOV         #2,R4
          Menu.c   405                ML_rectangle(0,v+8+46*x,127,v+27+46*x,1,ML_BLACK,ML_WHITE); // premier rectangle "gadget"
    00001046 67C3                   MOV         R12,R7
    00001048 D32D                   MOV.L       L2272+64,R3; _ML_rectangle
    0000104A E67F                   MOV         #127,R6
    0000104C 2FA6                   MOV.L       R10,@-R15
    0000104E 771B                   ADD         #27,R7
    00001050 2FE6                   MOV.L       R14,@-R15
    00001052 2FE6                   MOV.L       R14,@-R15
    00001054 1F78                   MOV.L       R7,@(32,R15)
    00001056 55FA                   MOV.L       @(40,R15),R5




SH SERIES C/C++ Compiler (Ver. 6.0C)                                                                 30-Jan-2015 21:53:33  PAGE   47


SCT OFFSET   CODE       C LABEL     INSTRUCTION OPERAND    COMMENT

    00001058 430B                   JSR         @R3
    0000105A E400                   MOV         #0,R4
          Menu.c   406                ML_rectangle(0,v+27+46*x,127,v+46+46*x,1,ML_BLACK,ML_WHITE); // deuxieme rectange "gadget"
    0000105C 2FA6                   MOV.L       R10,@-R15
    0000105E 67C3                   MOV         R12,R7
    00001060 D327                   MOV.L       L2272+64,R3; _ML_rectangle
    00001062 E67F                   MOV         #127,R6
    00001064 2FE6                   MOV.L       R14,@-R15
    00001066 772E                   ADD         #46,R7
    00001068 2FE6                   MOV.L       R14,@-R15
    0000106A 55FB                   MOV.L       @(44,R15),R5
    0000106C 430B                   JSR         @R3
    0000106E E400                   MOV         #0,R4
    00001070 7F24                   ADD         #36,R15
          Menu.c   407                PrintMini(x==3?27:x==5?28:20,v+15+46*x,ameliorationNames[2*x],0); // nom du premier gadget
    00001072 E700                   MOV         #0,R7
    00001074 66B3                   MOV         R11,R6
    00001076 4600                   SHLL        R6
    00001078 1F62                   MOV.L       R6,@(8,R15)
    0000107A 63F3                   MOV         R15,R3
    0000107C 4608                   SHLL2       R6
    0000107E 7344                   ADD         #68,R3
    00001080 363C                   ADD         R3,R6
    00001082 65C3                   MOV         R12,R5
    00001084 6662                   MOV.L       @R6,R6
    00001086 60B3                   MOV         R11,R0
    00001088 8803                   CMP/EQ      #3,R0
    0000108A 8F02                   BF/S        L1748
    0000108C 750F                   ADD         #15,R5
    0000108E A005                   BRA         L1750
    00001090 E41B                   MOV         #27,R4
    00001092              L1748:                            
    00001092 8805                   CMP/EQ      #5,R0
    00001094 8B01                   BF          L1749
    00001096 A001                   BRA         L1750
    00001098 E41C                   MOV         #28,R4
    0000109A              L1749:                            
    0000109A E414                   MOV         #20,R4
    0000109C              L1750:                            
    0000109C D319                   MOV.L       L2272+68,R3; _PrintMini
    0000109E 430B                   JSR         @R3
    000010A0 0009                   NOP
          Menu.c   408                PrintMini(20,v+34+46*x,ameliorationNames[2*x+1==9&&sauvegarde->ameliorationAimant[5]!=2?12:2*x
                         ++1],0); // nom du deuxieme gadget
    000010A2 E700                   MOV         #0,R7
    000010A4 50F2                   MOV.L       @(8,R15),R0
    000010A6 7001                   ADD         #1,R0
    000010A8 8809                   CMP/EQ      #9,R0
    000010AA 8F2D                   BF/S        L1752
    000010AC 1F04                   MOV.L       R0,@(16,R15)
    000010AE E125                   MOV         #37,R1
    000010B0 D311                   MOV.L       L2272+56,R3; _sauvegarde
    000010B2 6032                   MOV.L       @R3,R0
    000010B4 001C                   MOV.B       @(R0,R1),R0
    000010B6 600C                   EXTU.B      R0,R0
    000010B8 8802                   CMP/EQ      #2,R0
    000010BA 8925                   BT          L1752




SH SERIES C/C++ Compiler (Ver. 6.0C)                                                                 30-Jan-2015 21:53:33  PAGE   48


SCT OFFSET   CODE       C LABEL     INSTRUCTION OPERAND    COMMENT

    000010BC A025                   BRA         L1753
    000010BE E60C                   MOV         #12,R6
    000010C0              L2272:                            
    000010C0 FF70                   .DATA.W     H'FF70
    000010C2 0084                   .DATA.W     H'0084
    000010C4 <00000000>             .DATA.L     L716
    000010C8 <00000000>             .DATA.L     __quick_evn_mvn
    000010CC <00000000>             .DATA.L     L724
    000010D0 <00000000>             .DATA.L     __quick_odd_mvn
    000010D4 <00000048>             .DATA.L     H'00000048+__$moto
    000010D8 <00000010>             .DATA.L     H'00000010+__$teleporteur1
    000010DC <00000030>             .DATA.L     H'00000030+__$gravitySolUp1
    000010E0 <00000030>             .DATA.L     H'00000030+__$bird1
    000010E4 <00000048>             .DATA.L     H'00000048+__$tank1
    000010E8 <00000040>             .DATA.L     H'00000040+__$dragonMilieu
    000010EC <00000120>             .DATA.L     H'00000120+__$gadgets
    000010F0 <00000000>             .DATA.L     L647
    000010F4 <00000000>             .DATA.L     _sprintf
    000010F8 <00000000>             .DATA.L     _sauvegarde
    000010FC <00000000>             .DATA.L     _ML_clear_vram
    00001100 <00000000>             .DATA.L     _ML_rectangle
    00001104 <00000000>             .DATA.L     _PrintMini
    00001108              L1752:                            
    00001108 56F4                   MOV.L       @(16,R15),R6
    0000110A              L1753:                            
    0000110A 4608                   SHLL2       R6
    0000110C D342                   MOV.L       L2273+2,R3 ; _PrintMini
    0000110E 62F3                   MOV         R15,R2
    00001110 7244                   ADD         #68,R2
    00001112 362C                   ADD         R2,R6
    00001114 6662                   MOV.L       @R6,R6
    00001116 65C3                   MOV         R12,R5
    00001118 7522                   ADD         #34,R5
    0000111A 430B                   JSR         @R3
    0000111C E414                   MOV         #20,R4
          Menu.c   409    
          Menu.c   410                if (sauvegarde->ameliorationNoir[x] == 0) PrintMini(101,v+15+46*x,"10000$",0); // si on n'a pa
                         +s achete le premier gadget
    0000111E 60D2                   MOV.L       @R13,R0
    00001120 6303                   MOV         R0,R3
    00001122 731A                   ADD         #26,R3
    00001124 33BC                   ADD         R11,R3
    00001126 6230                   MOV.B       @R3,R2
    00001128 2228                   TST         R2,R2
    0000112A 8B08                   BF          L1754
    0000112C D63B                   MOV.L       L2273+6,R6 ; L633
    0000112E 65C3                   MOV         R12,R5
    00001130 D239                   MOV.L       L2273+2,R2 ; _PrintMini
    00001132 E700                   MOV         #0,R7
    00001134 750F                   ADD         #15,R5
    00001136 420B                   JSR         @R2
    00001138 E465                   MOV         #101,R4
    0000113A A00C                   BRA         L1755
    0000113C 0009                   NOP
    0000113E              L1754:                            
          Menu.c   411                else if (sauvegarde->ameliorationNoir[x] == 1) PrintMini(100,v+15+46*x,"Equiper",0); // si on 
                         +a achete le premier gadget




SH SERIES C/C++ Compiler (Ver. 6.0C)                                                                 30-Jan-2015 21:53:33  PAGE   49


SCT OFFSET   CODE       C LABEL     INSTRUCTION OPERAND    COMMENT

    0000113E 701A                   ADD         #26,R0
    00001140 00BC                   MOV.B       @(R0,R11),R0
    00001142 600C                   EXTU.B      R0,R0
    00001144 8801                   CMP/EQ      #1,R0
    00001146 8B06                   BF          L1755
    00001148 D635                   MOV.L       L2273+10,R6; L649
    0000114A 65C3                   MOV         R12,R5
    0000114C D232                   MOV.L       L2273+2,R2 ; _PrintMini
    0000114E E700                   MOV         #0,R7
    00001150 750F                   ADD         #15,R5
    00001152 420B                   JSR         @R2
    00001154 E464                   MOV         #100,R4
    00001156              L1755:                            
          Menu.c   412                if (sauvegarde->ameliorationAimant[x] == 0) PrintMini(101,v+34+46*x,"10000$",0); // si on n'a 
                         +pas achete le deuxieme gadget
    00001156 60D2                   MOV.L       @R13,R0
    00001158 6303                   MOV         R0,R3
    0000115A 7320                   ADD         #32,R3
    0000115C 33BC                   ADD         R11,R3
    0000115E 6230                   MOV.B       @R3,R2
    00001160 2228                   TST         R2,R2
    00001162 8B08                   BF          L1757
    00001164 D62D                   MOV.L       L2273+6,R6 ; L633
    00001166 65C3                   MOV         R12,R5
    00001168 D22B                   MOV.L       L2273+2,R2 ; _PrintMini
    0000116A E700                   MOV         #0,R7
    0000116C 7522                   ADD         #34,R5
    0000116E 420B                   JSR         @R2
    00001170 E465                   MOV         #101,R4
    00001172 A00C                   BRA         L1758
    00001174 0009                   NOP
    00001176              L1757:                            
          Menu.c   413                else if (sauvegarde->ameliorationAimant[x] == 1) PrintMini(100,v+34+46*x,"Equiper",0); // si o
                         +n a achete le deuxieme gadget
    00001176 7020                   ADD         #32,R0
    00001178 00BC                   MOV.B       @(R0,R11),R0
    0000117A 600C                   EXTU.B      R0,R0
    0000117C 8801                   CMP/EQ      #1,R0
    0000117E 8B06                   BF          L1758
    00001180 D627                   MOV.L       L2273+10,R6; L649
    00001182 65C3                   MOV         R12,R5
    00001184 D224                   MOV.L       L2273+2,R2 ; _PrintMini
    00001186 E700                   MOV         #0,R7
    00001188 7522                   ADD         #34,R5
    0000118A 420B                   JSR         @R2
    0000118C E464                   MOV         #100,R4
    0000118E              L1758:                            
          Menu.c   414    
          Menu.c   415                switch (x)
    0000118E 60B3                   MOV         R11,R0
    00001190 8800                   CMP/EQ      #0,R0
    00001192 890B                   BT          L1341
    00001194 8801                   CMP/EQ      #1,R0
    00001196 8911                   BT          L1342
    00001198 8802                   CMP/EQ      #2,R0
    0000119A 891A                   BT          L1343
    0000119C 8803                   CMP/EQ      #3,R0




SH SERIES C/C++ Compiler (Ver. 6.0C)                                                                 30-Jan-2015 21:53:33  PAGE   50


SCT OFFSET   CODE       C LABEL     INSTRUCTION OPERAND    COMMENT

    0000119E 8924                   BT          L1344
    000011A0 8804                   CMP/EQ      #4,R0
    000011A2 892D                   BT          L1345
    000011A4 8805                   CMP/EQ      #5,R0
    000011A6 8941                   BT          L1346
    000011A8 A04A                   BRA         L1760
    000011AA 0009                   NOP
    000011AC              L1341:                           ; case label 
          Menu.c   416                {
          Menu.c   417                    case 0: ML_bmp_or(moto[1],1,v+8+46*x,24,24); break;
    000011AC E318                   MOV         #24,R3
    000011AE 6733                   MOV         R3,R7
    000011B0 2F36                   MOV.L       R3,@-R15
    000011B2 66C3                   MOV         R12,R6
    000011B4 7608                   ADD         #8,R6
    000011B6 E501                   MOV         #1,R5
    000011B8 A012                   BRA         L2226
    000011BA 54FD                   MOV.L       @(52,R15),R4
    000011BC              L1342:                           ; case label 
          Menu.c   418                    case 1: ML_bmp_or(teleporteur1[1],5,v+10+46*x,8,16); break;
    000011BC D319                   MOV.L       L2273+14,R3; _ML_bmp_or
    000011BE E210                   MOV         #16,R2
    000011C0 2F26                   MOV.L       R2,@-R15
    000011C2 E708                   MOV         #8,R7
    000011C4 66C3                   MOV         R12,R6
    000011C6 760A                   ADD         #10,R6
    000011C8 E505                   MOV         #5,R5
    000011CA 430B                   JSR         @R3
    000011CC 54FC                   MOV.L       @(48,R15),R4
    000011CE A036                   BRA         L2224
    000011D0 0009                   NOP
    000011D2              L1343:                           ; case label 
          Menu.c   419                    case 2: ML_bmp_or(gravitySolUp1[1],2,v+9+46*x,16,24); break;
    000011D2 E318                   MOV         #24,R3
    000011D4 2F36                   MOV.L       R3,@-R15
    000011D6 E710                   MOV         #16,R7
    000011D8 54FB                   MOV.L       @(44,R15),R4
    000011DA 66C3                   MOV         R12,R6
    000011DC 7609                   ADD         #9,R6
    000011DE E502                   MOV         #2,R5
    000011E0              L2226:                            
    000011E0 D210                   MOV.L       L2273+14,R2; _ML_bmp_or
    000011E2 420B                   JSR         @R2
    000011E4 0009                   NOP
    000011E6 A02A                   BRA         L2224
    000011E8 0009                   NOP
    000011EA              L1344:                           ; case label 
          Menu.c   420                    case 3: ML_bmp_or(bird1[1],1,v+11+46*x,24,16); break;
    000011EA E210                   MOV         #16,R2
    000011EC D30D                   MOV.L       L2273+14,R3; _ML_bmp_or
    000011EE E718                   MOV         #24,R7
    000011F0 2F26                   MOV.L       R2,@-R15
    000011F2 66C3                   MOV         R12,R6
    000011F4 760B                   ADD         #11,R6
    000011F6 E501                   MOV         #1,R5
    000011F8 430B                   JSR         @R3
    000011FA 54FA                   MOV.L       @(40,R15),R4




SH SERIES C/C++ Compiler (Ver. 6.0C)                                                                 30-Jan-2015 21:53:33  PAGE   51


SCT OFFSET   CODE       C LABEL     INSTRUCTION OPERAND    COMMENT

    000011FC A01F                   BRA         L2224
    000011FE 0009                   NOP
    00001200              L1345:                           ; case label 
          Menu.c   421                    case 4: ML_bmp_or_cl(tank1[1],-3,v+7+46*x,24,24); break;
    00001200 D209                   MOV.L       L2273+18,R2; _ML_bmp_or_cl
    00001202 E318                   MOV         #24,R3
    00001204 2F36                   MOV.L       R3,@-R15
    00001206 6733                   MOV         R3,R7
    00001208 66C3                   MOV         R12,R6
    0000120A 7607                   ADD         #7,R6
    0000120C E5FD                   MOV         #-3,R5
    0000120E 420B                   JSR         @R2
    00001210 54F8                   MOV.L       @(32,R15),R4
    00001212 A014                   BRA         L2224
    00001214 0009                   NOP
    00001216              L2273:                            
    00001216 0000                   .DATA.W     0
    00001218 <00000000>             .DATA.L     _PrintMini
    0000121C <00000000>             .DATA.L     L633
    00001220 <00000000>             .DATA.L     L649
    00001224 <00000000>             .DATA.L     _ML_bmp_or
    00001228 <00000000>             .DATA.L     _ML_bmp_or_cl
    0000122C              L1346:                           ; case label 
          Menu.c   422                    case 5: ML_bmp_or_cl(dragonMilieu[1],-2,v+10+46*x,28,16); break;
    0000122C D341                   MOV.L       L2274+2,R3 ; _ML_bmp_or_cl
    0000122E E210                   MOV         #16,R2
    00001230 2F26                   MOV.L       R2,@-R15
    00001232 E71C                   MOV         #28,R7
    00001234 66C3                   MOV         R12,R6
    00001236 760A                   ADD         #10,R6
    00001238 E5FE                   MOV         #-2,R5
    0000123A 430B                   JSR         @R3
    0000123C 54FE                   MOV.L       @(56,R15),R4
    0000123E              L2224:                            
    0000123E 7F04                   ADD         #4,R15
    00001240              L1760:                            
          Menu.c   423                }
          Menu.c   424    
          Menu.c   425                ML_bmp_16_or(gadgets[9],2,v+29+46*x);
    00001240 D33D                   MOV.L       L2274+6,R3 ; _ML_bmp_16_or
    00001242 66C3                   MOV         R12,R6
    00001244 761D                   ADD         #29,R6
    00001246 E502                   MOV         #2,R5
    00001248 430B                   JSR         @R3
    0000124A 54F8                   MOV.L       @(32,R15),R4
          Menu.c   426    
          Menu.c   427                if (sauvegarde->ameliorationNoir[x] == 2) // si le premier gadget est equipe
    0000124C 60D2                   MOV.L       @R13,R0
    0000124E 701A                   ADD         #26,R0
    00001250 00BC                   MOV.B       @(R0,R11),R0
    00001252 600C                   EXTU.B      R0,R0
    00001254 8802                   CMP/EQ      #2,R0
    00001256 8B0B                   BF          L1761
          Menu.c   428                {
          Menu.c   429                    ML_bmp_8_and(gadgetOKAlpha,13,v+18+46*x); // on affiche un petit signe
    00001258 D438                   MOV.L       L2274+10,R4; __$gadgetOKAlpha
    0000125A 66C3                   MOV         R12,R6




SH SERIES C/C++ Compiler (Ver. 6.0C)                                                                 30-Jan-2015 21:53:33  PAGE   52


SCT OFFSET   CODE       C LABEL     INSTRUCTION OPERAND    COMMENT

    0000125C D338                   MOV.L       L2274+14,R3; _ML_bmp_8_and
    0000125E 7612                   ADD         #18,R6
    00001260 1F62                   MOV.L       R6,@(8,R15)
    00001262 430B                   JSR         @R3
    00001264 E50D                   MOV         #13,R5
          Menu.c   430                    ML_bmp_8_or(gadgetOK,13,v+18+46*x);
    00001266 56F2                   MOV.L       @(8,R15),R6
    00001268 D436                   MOV.L       L2274+18,R4; __$gadgetOK
    0000126A D337                   MOV.L       L2274+22,R3; _ML_bmp_8_or
    0000126C 430B                   JSR         @R3
    0000126E E50D                   MOV         #13,R5
    00001270              L1761:                            
          Menu.c   431                }
          Menu.c   432                if (sauvegarde->ameliorationAimant[x] == 2) // si le deuxieme gadget est equipe
    00001270 60D2                   MOV.L       @R13,R0
    00001272 7020                   ADD         #32,R0
    00001274 00BC                   MOV.B       @(R0,R11),R0
    00001276 600C                   EXTU.B      R0,R0
    00001278 8802                   CMP/EQ      #2,R0
    0000127A 8B0B                   BF          L1762
          Menu.c   433                {
          Menu.c   434                    ML_bmp_8_and(gadgetOKAlpha,13,v+37+46*x); // on affiche le petit signe
    0000127C D42F                   MOV.L       L2274+10,R4; __$gadgetOKAlpha
    0000127E 66C3                   MOV         R12,R6
    00001280 D32F                   MOV.L       L2274+14,R3; _ML_bmp_8_and
    00001282 7625                   ADD         #37,R6
    00001284 1F62                   MOV.L       R6,@(8,R15)
    00001286 430B                   JSR         @R3
    00001288 E50D                   MOV         #13,R5
          Menu.c   435                    ML_bmp_8_or(gadgetOK,13,v+37+46*x);
    0000128A 56F2                   MOV.L       @(8,R15),R6
    0000128C D42D                   MOV.L       L2274+18,R4; __$gadgetOK
    0000128E D32E                   MOV.L       L2274+22,R3; _ML_bmp_8_or
    00001290 430B                   JSR         @R3
    00001292 E50D                   MOV         #13,R5
    00001294              L1762:                            
    00001294 7B01                   ADD         #1,R11
    00001296 E206                   MOV         #6,R2
    00001298 3B23                   CMP/GE      R2,R11
    0000129A 8901                   BT          L2275
    0000129C AEB8                   BRA         L1747
    0000129E 0009                   NOP
    000012A0              L2275:                            
          Menu.c   436                }
          Menu.c   437            }
          Menu.c   438    
          Menu.c   439            ML_rectangle(0,u,127,u+19,1,ML_BLACK,ML_XOR); // on affiche la position du curseur
    000012A0 D32A                   MOV.L       L2274+26,R3; _ML_rectangle
    000012A2 EC02                   MOV         #2,R12
    000012A4 2FC6                   MOV.L       R12,@-R15
    000012A6 E67F                   MOV         #127,R6
    000012A8 2FE6                   MOV.L       R14,@-R15
    000012AA 2FE6                   MOV.L       R14,@-R15
    000012AC 57F3                   MOV.L       @(12,R15),R7
    000012AE 7713                   ADD         #19,R7
    000012B0 55F3                   MOV.L       @(12,R15),R5
    000012B2 430B                   JSR         @R3




SH SERIES C/C++ Compiler (Ver. 6.0C)                                                                 30-Jan-2015 21:53:33  PAGE   53


SCT OFFSET   CODE       C LABEL     INSTRUCTION OPERAND    COMMENT

    000012B4 E400                   MOV         #0,R4
          Menu.c   440    
          Menu.c   441            ML_rectangle(26,0,100,13,1,ML_WHITE,ML_WHITE); // on gere la transparence de l'en-tete
    000012B6 E200                   MOV         #0,R2
    000012B8 D324                   MOV.L       L2274+26,R3; _ML_rectangle
    000012BA E70D                   MOV         #13,R7
    000012BC 2F26                   MOV.L       R2,@-R15
    000012BE E664                   MOV         #100,R6
    000012C0 2F26                   MOV.L       R2,@-R15
    000012C2 6523                   MOV         R2,R5
    000012C4 2FE6                   MOV.L       R14,@-R15
    000012C6 430B                   JSR         @R3
    000012C8 E41A                   MOV         #26,R4
          Menu.c   442    
          Menu.c   443            ML_bmp_or(ameliorationsTop,0,0,128,16); // on affiche le sprite de l'entete
    000012CA E210                   MOV         #16,R2
    000012CC D420                   MOV.L       L2274+30,R4; __$ameliorationsTop
    000012CE E600                   MOV         #0,R6
    000012D0 D320                   MOV.L       L2274+34,R3; _ML_bmp_or
    000012D2 9B2E                   MOV.W       L2274,R11  ; H'0080
    000012D4 2F26                   MOV.L       R2,@-R15
    000012D6 67B3                   MOV         R11,R7
    000012D8 430B                   JSR         @R3
    000012DA 6563                   MOV         R6,R5
          Menu.c   444    
          Menu.c   445            PrintMini(102,2,totalMoney,2); // on affiche notre argent
    000012DC D21E                   MOV.L       L2274+38,R2; _PrintMini
    000012DE 7F1C                   ADD         #28,R15
    000012E0 67C3                   MOV         R12,R7
    000012E2 66F3                   MOV         R15,R6
    000012E4 763C                   ADD         #60,R6
    000012E6 65C3                   MOV         R12,R5
    000012E8 420B                   JSR         @R2
    000012EA E466                   MOV         #102,R4
          Menu.c   446    
          Menu.c   447            if (animation != 0)
    000012EC 53F6                   MOV.L       @(24,R15),R3
    000012EE 2338                   TST         R3,R3
    000012F0 890D                   BT          L1763
          Menu.c   448            {
          Menu.c   449                if (animationSucces(animation == 2?-1:1) == 1) animation = 0;
    000012F2 DB1A                   MOV.L       L2274+42,R11; _animationSucces
    000012F4 50F6                   MOV.L       @(24,R15),R0
    000012F6 8802                   CMP/EQ      #2,R0
    000012F8 8B01                   BF          L1765
    000012FA A001                   BRA         L1766
    000012FC E4FF                   MOV         #-1,R4
    000012FE              L1765:                            
    000012FE E401                   MOV         #1,R4
    00001300              L1766:                            
    00001300 4B0B                   JSR         @R11
    00001302 0009                   NOP
    00001304 8801                   CMP/EQ      #1,R0
    00001306 8B01                   BF          L1764
    00001308 A001                   BRA         L1763
    0000130A 1FA6                   MOV.L       R10,@(24,R15)
    0000130C              L1764:                            




SH SERIES C/C++ Compiler (Ver. 6.0C)                                                                 30-Jan-2015 21:53:33  PAGE   54


SCT OFFSET   CODE       C LABEL     INSTRUCTION OPERAND    COMMENT

          Menu.c   450                else animation = 1;
    0000130C 1FE6                   MOV.L       R14,@(24,R15)
    0000130E              L1763:                            
          Menu.c   451            }
          Menu.c   452    
          Menu.c   453            ML_display_vram();
    0000130E DB14                   MOV.L       L2274+46,R11; _ML_display_vram
    00001310 4B0B                   JSR         @R11
    00001312 0009                   NOP
          Menu.c   454    
          Menu.c   455            if (vNext == v && keyDown == 0) // on gere le clavier ainsi que la position des elements a l'ecran
    00001314 53F1                   MOV.L       @(4,R15),R3
    00001316 3380                   CMP/EQ      R8,R3
    00001318 8901                   BT          L2276
    0000131A A19B                   BRA         L1768
    0000131C 0009                   NOP
    0000131E              L2276:                            
    0000131E 51F3                   MOV.L       @(12,R15),R1
    00001320 2118                   TST         R1,R1
    00001322 8901                   BT          L2277
    00001324 A196                   BRA         L1768
    00001326 0009                   NOP
    00001328              L2277:                            
    00001328 6093                   MOV         R9,R0
    0000132A 4011                   CMP/PZ      R0
    0000132C 8B1A                   BF          L1770
    0000132E A01E                   BRA         L1771
    00001330 C901                   AND         #1,R0
    00001332              L2274:                            
    00001332 0080                   .DATA.W     H'0080
    00001334 <00000000>             .DATA.L     _ML_bmp_or_cl
    00001338 <00000000>             .DATA.L     _ML_bmp_16_or
    0000133C <00000000>             .DATA.L     __$gadgetOKAlpha
    00001340 <00000000>             .DATA.L     _ML_bmp_8_and
    00001344 <00000000>             .DATA.L     __$gadgetOK
    00001348 <00000000>             .DATA.L     _ML_bmp_8_or
    0000134C <00000000>             .DATA.L     _ML_rectangle
    00001350 <00000000>             .DATA.L     __$ameliorationsTop
    00001354 <00000000>             .DATA.L     _ML_bmp_or
    00001358 <00000000>             .DATA.L     _PrintMini
    0000135C <00000000>             .DATA.L     _animationSucces
    00001360 <00000000>             .DATA.L     _ML_display_vram
    00001364              L1770:                            
    00001364 6007                   NOT         R0,R0
    00001366 7001                   ADD         #1,R0
    00001368 C901                   AND         #1,R0
    0000136A 6007                   NOT         R0,R0
    0000136C 7001                   ADD         #1,R0
    0000136E              L1771:                            
    0000136E 9461                   MOV.W       L2278,R4   ; H'7547
    00001370 D332                   MOV.L       L2278+8,R3 ; _IsKeyDown
    00001372 430B                   JSR         @R3
    00001374 6B03                   MOV         R0,R11
    00001376 2008                   TST         R0,R0
    00001378 892B                   BT          L1769
          Menu.c   456            {
          Menu.c   457                if (IsKeyDown(KEY_CTRL_DOWN))




SH SERIES C/C++ Compiler (Ver. 6.0C)                                                                 30-Jan-2015 21:53:33  PAGE   55


SCT OFFSET   CODE       C LABEL     INSTRUCTION OPERAND    COMMENT

          Menu.c   458                {
          Menu.c   459                    if (position == 0)
    0000137A 53F5                   MOV.L       @(20,R15),R3
    0000137C 2338                   TST         R3,R3
    0000137E 8B11                   BF          L1772
          Menu.c   460                    {
          Menu.c   461                        if (selection%2<1)
    00001380 3BE3                   CMP/GE      R14,R11
    00001382 8903                   BT          L1773
          Menu.c   462                            vNext = v-8;
    00001384 6283                   MOV         R8,R2
    00001386 72F8                   ADD         #-8,R2
    00001388 A002                   BRA         L1774
    0000138A 1F21                   MOV.L       R2,@(4,R15)
    0000138C              L1773:                            
          Menu.c   463                        else keyDown = 6;
    0000138C E106                   MOV         #6,R1
    0000138E 1F13                   MOV.L       R1,@(12,R15)
    00001390              L1774:                            
          Menu.c   464    
          Menu.c   465                        u += (selection%2<1?27:19);
    00001390 3BE3                   CMP/GE      R14,R11
    00001392 8901                   BT          L1775
    00001394 A001                   BRA         L1776
    00001396 E31B                   MOV         #27,R3
    00001398              L1775:                            
    00001398 E313                   MOV         #19,R3
    0000139A              L1776:                            
    0000139A 62F2                   MOV.L       @R15,R2
    0000139C 323C                   ADD         R3,R2
    0000139E 2F22                   MOV.L       R2,@R15
    000013A0 A015                   BRA         L1170
          Menu.c   466                        position = 1;
    000013A2 1FE5                   MOV.L       R14,@(20,R15)
    000013A4              L1772:                            
          Menu.c   467                        selection++;
          Menu.c   468                    }
          Menu.c   469                    else if (v > -201)
    000013A4 9447                   MOV.W       L2278+2,R4 ; H'FF37
    000013A6 3847                   CMP/GT      R4,R8
    000013A8 8901                   BT          L2279
    000013AA A185                   BRA         L1817
    000013AC 0009                   NOP
    000013AE              L2279:                            
          Menu.c   470                    {
          Menu.c   471                        vNext = v-(selection%2<1?27:19);
    000013AE 3BE3                   CMP/GE      R14,R11
    000013B0 8901                   BT          L1779
    000013B2 A001                   BRA         L1780
    000013B4 E21B                   MOV         #27,R2
    000013B6              L1779:                            
    000013B6 E213                   MOV         #19,R2
    000013B8              L1780:                            
    000013B8 6383                   MOV         R8,R3
    000013BA 3328                   SUB         R2,R3
          Menu.c   472                        u += (selection%2<1?27:19);
    000013BC 3BE3                   CMP/GE      R14,R11




SH SERIES C/C++ Compiler (Ver. 6.0C)                                                                 30-Jan-2015 21:53:33  PAGE   56


SCT OFFSET   CODE       C LABEL     INSTRUCTION OPERAND    COMMENT

    000013BE 8D02                   BT/S        L1781
    000013C0 1F31                   MOV.L       R3,@(4,R15)
    000013C2 A001                   BRA         L1782
    000013C4 E21B                   MOV         #27,R2
    000013C6              L1781:                            
    000013C6 E213                   MOV         #19,R2
    000013C8              L1782:                            
    000013C8 61F2                   MOV.L       @R15,R1
    000013CA 312C                   ADD         R2,R1
    000013CC 2F12                   MOV.L       R1,@R15
    000013CE              L1170:
          Menu.c   473                        selection++;
    000013CE A173                   BRA         L1817
    000013D0 7901                   ADD         #1,R9
    000013D2              L1769:                            
          Menu.c   474                    }
          Menu.c   475                }
          Menu.c   476                else if (IsKeyDown(KEY_CTRL_UP))
    000013D2 9431                   MOV.W       L2278+4,R4 ; H'7542
    000013D4 D219                   MOV.L       L2278+8,R2 ; _IsKeyDown
    000013D6 420B                   JSR         @R2
    000013D8 0009                   NOP
    000013DA 2008                   TST         R0,R0
    000013DC 8930                   BT          L1784
          Menu.c   477                {
          Menu.c   478                    if (position == 1)
    000013DE 50F5                   MOV.L       @(20,R15),R0
    000013E0 8801                   CMP/EQ      #1,R0
    000013E2 8B11                   BF          L1785
          Menu.c   479                    {
          Menu.c   480                        if (selection%2>=1)
    000013E4 3BE3                   CMP/GE      R14,R11
    000013E6 8B03                   BF          L1786
          Menu.c   481                            vNext = v+8;
    000013E8 6383                   MOV         R8,R3
    000013EA 7308                   ADD         #8,R3
    000013EC A002                   BRA         L1787
    000013EE 1F31                   MOV.L       R3,@(4,R15)
    000013F0              L1786:                            
          Menu.c   482                        else keyDown = 6;
    000013F0 E106                   MOV         #6,R1
    000013F2 1F13                   MOV.L       R1,@(12,R15)
    000013F4              L1787:                            
          Menu.c   483    
          Menu.c   484                        u -= (selection%2<1?19:27);
    000013F4 3BE3                   CMP/GE      R14,R11
    000013F6 8901                   BT          L1788
    000013F8 A001                   BRA         L1789
    000013FA E313                   MOV         #19,R3
    000013FC              L1788:                            
    000013FC E31B                   MOV         #27,R3
    000013FE              L1789:                            
    000013FE 62F2                   MOV.L       @R15,R2
    00001400 3238                   SUB         R3,R2
    00001402 2F22                   MOV.L       R2,@R15
    00001404 A014                   BRA         L1168
          Menu.c   485                        position = 0;




SH SERIES C/C++ Compiler (Ver. 6.0C)                                                                 30-Jan-2015 21:53:33  PAGE   57


SCT OFFSET   CODE       C LABEL     INSTRUCTION OPERAND    COMMENT

    00001406 1FA5                   MOV.L       R10,@(20,R15)
    00001408              L1785:                            
          Menu.c   486                        selection--;
          Menu.c   487                    }
          Menu.c   488                    else if (v < 14)
    00001408 E30E                   MOV         #14,R3
    0000140A 3833                   CMP/GE      R3,R8
    0000140C 8B01                   BF          L2280
    0000140E A153                   BRA         L1817
    00001410 0009                   NOP
    00001412              L2280:                            
          Menu.c   489                    {
          Menu.c   490                        vNext = v+(selection%2<1?19:27);
    00001412 3BE3                   CMP/GE      R14,R11
    00001414 8901                   BT          L1792
    00001416 A001                   BRA         L1793
    00001418 E113                   MOV         #19,R1
    0000141A              L1792:                            
    0000141A E11B                   MOV         #27,R1
    0000141C              L1793:                            
    0000141C 318C                   ADD         R8,R1
          Menu.c   491                        u -= (selection%2<1?19:27);
    0000141E 3BE3                   CMP/GE      R14,R11
    00001420 8D02                   BT/S        L1794
    00001422 1F11                   MOV.L       R1,@(4,R15)
    00001424 A001                   BRA         L1795
    00001426 E313                   MOV         #19,R3
    00001428              L1794:                            
    00001428 E31B                   MOV         #27,R3
    0000142A              L1795:                            
    0000142A 62F2                   MOV.L       @R15,R2
    0000142C 3238                   SUB         R3,R2
    0000142E 2F22                   MOV.L       R2,@R15
    00001430              L1168:
          Menu.c   492                        selection--;
    00001430 A142                   BRA         L1817
    00001432 79FF                   ADD         #-1,R9
    00001434              L2278:                            
    00001434 7547                   .DATA.W     H'7547
    00001436 FF37                   .DATA.W     H'FF37
    00001438 7542                   .DATA.W     H'7542
    0000143A 0000                   .DATA.W     0
    0000143C <00000000>             .DATA.L     _IsKeyDown
    00001440              L1784:                            
          Menu.c   493                    }
          Menu.c   494                }
          Menu.c   495                else if (IsKeyDown(KEY_CTRL_EXE) && exeDown == 0) // si on appuie sur EXE
    00001440 948E                   MOV.W       L2281,R4   ; H'7534
    00001442 D248                   MOV.L       L2281+4,R2 ; _IsKeyDown
    00001444 420B                   JSR         @R2
    00001446 0009                   NOP
    00001448 2008                   TST         R0,R0
    0000144A 8B01                   BF          L2282
    0000144C A134                   BRA         L1817
    0000144E 0009                   NOP
    00001450              L2282:                            
    00001450 52FE                   MOV.L       @(56,R15),R2




SH SERIES C/C++ Compiler (Ver. 6.0C)                                                                 30-Jan-2015 21:53:33  PAGE   58


SCT OFFSET   CODE       C LABEL     INSTRUCTION OPERAND    COMMENT

    00001452 2228                   TST         R2,R2
    00001454 8901                   BT          L2283
    00001456 A12F                   BRA         L1817
    00001458 0009                   NOP
    0000145A              L2283:                            
    0000145A 60B3                   MOV         R11,R0
          Menu.c   496                {
          Menu.c   497                    exeDown = 1; // pour viter l'appui constant sur EXE
    0000145C 1FEE                   MOV.L       R14,@(56,R15)
    0000145E 8801                   CMP/EQ      #1,R0
    00001460 D641                   MOV.L       L2281+8,R6 ; H'0000C350
    00001462 957E                   MOV.W       L2281+2,R5 ; H'2710
    00001464 8D02                   BT/S        L2284
    00001466 64D2                   MOV.L       @R13,R4
    00001468 A082                   BRA         L1798
    0000146A 0009                   NOP
    0000146C              L2284:                            
          Menu.c   498    
          Menu.c   499                    if (selection%2==1)
          Menu.c   500                    {
          Menu.c   501                        if (sauvegarde->ameliorationNoir[(selection-1)/2] == 0) // si on a pas achete le gadge
                         +t
    0000146C 6293                   MOV         R9,R2
    0000146E 72FF                   ADD         #-1,R2
    00001470 E300                   MOV         #0,R3
    00001472 3327                   CMP/GT      R2,R3
    00001474 323E                   ADDC        R3,R2
    00001476 4221                   SHAR        R2
    00001478 6143                   MOV         R4,R1
    0000147A 711A                   ADD         #26,R1
    0000147C 321C                   ADD         R1,R2
    0000147E 6320                   MOV.B       @R2,R3
    00001480 2338                   TST         R3,R3
    00001482 8B3F                   BF          L1799
          Menu.c   502                        {
          Menu.c   503                            if (sauvegarde->argent >= 10000) // si on a assez d'argent et si il est debloque
    00001484 E078                   MOV         #120,R0
    00001486 014E                   MOV.L       @(R0,R4),R1
    00001488 3153                   CMP/GE      R5,R1
    0000148A 8901                   BT          L2285
    0000148C A114                   BRA         L1817
    0000148E 0009                   NOP
    00001490              L2285:                            
          Menu.c   504                            {
          Menu.c   505                                sauvegarde->statTotal[6] += 10000;
    00001490 E050                   MOV         #80,R0
          Menu.c   506                                sauvegarde->argent -= 10000; // on paye
          Menu.c   507                                sauvegarde->ameliorationNoir[(selection-1)/2] = 1; // on indique qu'il est deb
                         +loque
    00001492 E100                   MOV         #0,R1
    00001494 024E                   MOV.L       @(R0,R4),R2
    00001496 325C                   ADD         R5,R2
    00001498 0426                   MOV.L       R2,@(R0,R4)
    0000149A E078                   MOV         #120,R0
    0000149C 63D2                   MOV.L       @R13,R3
    0000149E 023E                   MOV.L       @(R0,R3),R2
    000014A0 3258                   SUB         R5,R2




SH SERIES C/C++ Compiler (Ver. 6.0C)                                                                 30-Jan-2015 21:53:33  PAGE   59


SCT OFFSET   CODE       C LABEL     INSTRUCTION OPERAND    COMMENT

    000014A2 0326                   MOV.L       R2,@(R0,R3)
    000014A4 63D2                   MOV.L       @R13,R3
    000014A6 6293                   MOV         R9,R2
    000014A8 72FF                   ADD         #-1,R2
    000014AA 3127                   CMP/GT      R2,R1
    000014AC 321E                   ADDC        R1,R2
    000014AE 4221                   SHAR        R2
    000014B0 731A                   ADD         #26,R3
    000014B2 323C                   ADD         R3,R2
    000014B4 22E0                   MOV.B       R14,@R2
          Menu.c   508    
          Menu.c   509                                if (sauvegarde->succes[16] != -1) sauvegarde->succes[16] = -1, animation = 2;
    000014B6 E170                   MOV         #112,R1
    000014B8 60D2                   MOV.L       @R13,R0
    000014BA 001C                   MOV.B       @(R0,R1),R0
    000014BC 88FF                   CMP/EQ      #-1,R0
    000014BE 8904                   BT          L1801
    000014C0 62D2                   MOV.L       @R13,R2
    000014C2 E3FF                   MOV         #-1,R3
    000014C4 E070                   MOV         #112,R0
    000014C6 0234                   MOV.B       R3,@(R0,R2)
    000014C8 1FC6                   MOV.L       R12,@(24,R15)
    000014CA              L1801:                            
          Menu.c   510                                if (sauvegarde->statTotal[6] >= 50000 && sauvegarde->succes[21] != -1) sauvega
                         +rde->succes[21] = -1, animation = 2;
    000014CA E050                   MOV         #80,R0
    000014CC 63D2                   MOV.L       @R13,R3
    000014CE 023E                   MOV.L       @(R0,R3),R2
    000014D0 3263                   CMP/GE      R6,R2
    000014D2 8B09                   BF          L1802
    000014D4 60D2                   MOV.L       @R13,R0
    000014D6 E175                   MOV         #117,R1
    000014D8 001C                   MOV.B       @(R0,R1),R0
    000014DA 88FF                   CMP/EQ      #-1,R0
    000014DC 8904                   BT          L1802
    000014DE E3FF                   MOV         #-1,R3
    000014E0 62D2                   MOV.L       @R13,R2
    000014E2 E075                   MOV         #117,R0
    000014E4 0234                   MOV.B       R3,@(R0,R2)
    000014E6 1FC6                   MOV.L       R12,@(24,R15)
    000014E8              L1802:                            
          Menu.c   511                                if (sauvegarde->succes[3] != -1 && isAllBought() == 1) sauvegarde->succes[3] =
                         + -1, animation = 2;
    000014E8 60D2                   MOV.L       @R13,R0
    000014EA E163                   MOV         #99,R1
    000014EC 001C                   MOV.B       @(R0,R1),R0
    000014EE 88FF                   CMP/EQ      #-1,R0
    000014F0 8B01                   BF          L2286
    000014F2 A0E1                   BRA         L1817
    000014F4 0009                   NOP
    000014F6              L2286:                            
    000014F6 D21D                   MOV.L       L2281+12,R2; _isAllBought
    000014F8 420B                   JSR         @R2
    000014FA 0009                   NOP
    000014FC 8801                   CMP/EQ      #1,R0
    000014FE 8975                   BT          L1169
    00001500 A0DA                   BRA         L1817




SH SERIES C/C++ Compiler (Ver. 6.0C)                                                                 30-Jan-2015 21:53:33  PAGE   60


SCT OFFSET   CODE       C LABEL     INSTRUCTION OPERAND    COMMENT

    00001502 0009                   NOP
    00001504              L1799:                            
          Menu.c   512                            }
          Menu.c   513                        }
          Menu.c   514                        else if (sauvegarde->ameliorationNoir[(selection-1)/2] == 1) // si il est debloque
    00001504 6093                   MOV         R9,R0
    00001506 70FF                   ADD         #-1,R0
    00001508 E300                   MOV         #0,R3
    0000150A 3307                   CMP/GT      R0,R3
    0000150C 303E                   ADDC        R3,R0
    0000150E 4021                   SHAR        R0
    00001510 6243                   MOV         R4,R2
    00001512 721A                   ADD         #26,R2
    00001514 002C                   MOV.B       @(R0,R2),R0
    00001516 600C                   EXTU.B      R0,R0
    00001518 8801                   CMP/EQ      #1,R0
    0000151A 8B08                   BF          L1805
          Menu.c   515                        {
          Menu.c   516                            sauvegarde->ameliorationNoir[(selection-1)/2] = 2;
    0000151C 6293                   MOV         R9,R2
    0000151E 72FF                   ADD         #-1,R2
    00001520 E300                   MOV         #0,R3
    00001522 3327                   CMP/GT      R2,R3
    00001524 323E                   ADDC        R3,R2
    00001526 4221                   SHAR        R2
    00001528 6143                   MOV         R4,R1
    0000152A A079                   BRA         L2225
    0000152C 711A                   ADD         #26,R1
    0000152E              L1805:                            
          Menu.c   517                        }
          Menu.c   518                        else if (sauvegarde->ameliorationNoir[(selection-1)/2] == 2) // si il est equipe
    0000152E 6093                   MOV         R9,R0
    00001530 70FF                   ADD         #-1,R0
    00001532 E300                   MOV         #0,R3
    00001534 3307                   CMP/GT      R0,R3
    00001536 303E                   ADDC        R3,R0
    00001538 4021                   SHAR        R0
    0000153A 6243                   MOV         R4,R2
    0000153C 721A                   ADD         #26,R2
    0000153E 002C                   MOV.B       @(R0,R2),R0
    00001540 600C                   EXTU.B      R0,R0
    00001542 8802                   CMP/EQ      #2,R0
    00001544 8901                   BT          L2287
    00001546 A0B7                   BRA         L1817
    00001548 0009                   NOP
    0000154A              L2287:                            
          Menu.c   519                        {
          Menu.c   520                            sauvegarde->ameliorationNoir[(selection-1)/2] = 1; // on l'enleve
    0000154A 6293                   MOV         R9,R2
    0000154C 72FF                   ADD         #-1,R2
    0000154E E300                   MOV         #0,R3
    00001550 3327                   CMP/GT      R2,R3
    00001552 323E                   ADDC        R3,R2
    00001554 4221                   SHAR        R2
    00001556 6143                   MOV         R4,R1
    00001558 711A                   ADD         #26,R1
    0000155A 321C                   ADD         R1,R2




SH SERIES C/C++ Compiler (Ver. 6.0C)                                                                 30-Jan-2015 21:53:33  PAGE   61


SCT OFFSET   CODE       C LABEL     INSTRUCTION OPERAND    COMMENT

    0000155C A0AC                   BRA         L1817
    0000155E 22E0                   MOV.B       R14,@R2
    00001560              L2281:                            
    00001560 7534                   .DATA.W     H'7534
    00001562 2710                   .DATA.W     H'2710
    00001564 <00000000>             .DATA.L     _IsKeyDown
    00001568 0000C350               .DATA.L     H'0000C350
    0000156C <00000000>             .DATA.L     _isAllBought
    00001570              L1798:                            
          Menu.c   521                        }
          Menu.c   522                    }
          Menu.c   523                    else
          Menu.c   524                    {
          Menu.c   525                        if (sauvegarde->ameliorationAimant[selection/2-1] == 0) // si on a pas achete le gadge
                         +t
    00001570 6293                   MOV         R9,R2
    00001572 E300                   MOV         #0,R3
    00001574 3327                   CMP/GT      R2,R3
    00001576 323E                   ADDC        R3,R2
    00001578 4221                   SHAR        R2
    0000157A 72FF                   ADD         #-1,R2
    0000157C 6143                   MOV         R4,R1
    0000157E 7120                   ADD         #32,R1
    00001580 321C                   ADD         R1,R2
    00001582 6320                   MOV.B       @R2,R3
    00001584 2338                   TST         R3,R3
    00001586 8B37                   BF          L1809
          Menu.c   526                        {
          Menu.c   527                            if (sauvegarde->argent >= 10000) // si on a assez d'argent et si il est debloque
    00001588 E078                   MOV         #120,R0
    0000158A 014E                   MOV.L       @(R0,R4),R1
    0000158C 3153                   CMP/GE      R5,R1
    0000158E 8901                   BT          L2288
    00001590 A092                   BRA         L1817
    00001592 0009                   NOP
    00001594              L2288:                            
          Menu.c   528                            {
          Menu.c   529                                sauvegarde->statTotal[6] += 10000;
    00001594 E050                   MOV         #80,R0
          Menu.c   530                                sauvegarde->argent -= 10000; // on paye
          Menu.c   531                                sauvegarde->ameliorationAimant[selection/2-1] = 1; // on indique qu'il est deb
                         +loque
    00001596 E100                   MOV         #0,R1
    00001598 024E                   MOV.L       @(R0,R4),R2
    0000159A 325C                   ADD         R5,R2
    0000159C 0426                   MOV.L       R2,@(R0,R4)
    0000159E E078                   MOV         #120,R0
    000015A0 63D2                   MOV.L       @R13,R3
    000015A2 023E                   MOV.L       @(R0,R3),R2
    000015A4 3258                   SUB         R5,R2
    000015A6 0326                   MOV.L       R2,@(R0,R3)
    000015A8 63D2                   MOV.L       @R13,R3
    000015AA 6293                   MOV         R9,R2
    000015AC 3127                   CMP/GT      R2,R1
    000015AE 321E                   ADDC        R1,R2
    000015B0 4221                   SHAR        R2
    000015B2 72FF                   ADD         #-1,R2




SH SERIES C/C++ Compiler (Ver. 6.0C)                                                                 30-Jan-2015 21:53:33  PAGE   62


SCT OFFSET   CODE       C LABEL     INSTRUCTION OPERAND    COMMENT

    000015B4 7320                   ADD         #32,R3
    000015B6 323C                   ADD         R3,R2
    000015B8 22E0                   MOV.B       R14,@R2
          Menu.c   532                                if (sauvegarde->statTotal[6] >= 50000 && sauvegarde->succes[21] != -1) sauvega
                         +rde->succes[21] = -1, animation = 2;
    000015BA E050                   MOV         #80,R0
    000015BC 62D2                   MOV.L       @R13,R2
    000015BE 032E                   MOV.L       @(R0,R2),R3
    000015C0 3363                   CMP/GE      R6,R3
    000015C2 8B09                   BF          L1811
    000015C4 60D2                   MOV.L       @R13,R0
    000015C6 E175                   MOV         #117,R1
    000015C8 001C                   MOV.B       @(R0,R1),R0
    000015CA 88FF                   CMP/EQ      #-1,R0
    000015CC 8904                   BT          L1811
    000015CE E3FF                   MOV         #-1,R3
    000015D0 62D2                   MOV.L       @R13,R2
    000015D2 E075                   MOV         #117,R0
    000015D4 0234                   MOV.B       R3,@(R0,R2)
    000015D6 1FC6                   MOV.L       R12,@(24,R15)
    000015D8              L1811:                            
          Menu.c   533                                if (sauvegarde->succes[3] != -1 && isAllBought() == 1) sauvegarde->succes[3] =
                         + -1, animation = 2;
    000015D8 60D2                   MOV.L       @R13,R0
    000015DA E163                   MOV         #99,R1
    000015DC 001C                   MOV.B       @(R0,R1),R0
    000015DE 88FF                   CMP/EQ      #-1,R0
    000015E0 896A                   BT          L1817
    000015E2 D230                   MOV.L       L2289+2,R2 ; _isAllBought
    000015E4 420B                   JSR         @R2
    000015E6 0009                   NOP
    000015E8 8801                   CMP/EQ      #1,R0
    000015EA 8B65                   BF          L1817
    000015EC              L1169:
    000015EC 62D2                   MOV.L       @R13,R2
    000015EE E3FF                   MOV         #-1,R3
    000015F0 E063                   MOV         #99,R0
    000015F2 0234                   MOV.B       R3,@(R0,R2)
    000015F4 A060                   BRA         L1817
    000015F6 1FC6                   MOV.L       R12,@(24,R15)
    000015F8              L1809:                            
          Menu.c   534                            }
          Menu.c   535                        }
          Menu.c   536                        else if (sauvegarde->ameliorationAimant[selection/2-1] == 1) // si il est debloque
    000015F8 6093                   MOV         R9,R0
    000015FA E300                   MOV         #0,R3
    000015FC 3307                   CMP/GT      R0,R3
    000015FE 303E                   ADDC        R3,R0
    00001600 4021                   SHAR        R0
    00001602 70FF                   ADD         #-1,R0
    00001604 6243                   MOV         R4,R2
    00001606 7220                   ADD         #32,R2
    00001608 002C                   MOV.B       @(R0,R2),R0
    0000160A 600C                   EXTU.B      R0,R0
    0000160C 8801                   CMP/EQ      #1,R0
    0000160E 8B0A                   BF          L1814
          Menu.c   537                        {




SH SERIES C/C++ Compiler (Ver. 6.0C)                                                                 30-Jan-2015 21:53:33  PAGE   63


SCT OFFSET   CODE       C LABEL     INSTRUCTION OPERAND    COMMENT

          Menu.c   538                            sauvegarde->ameliorationAimant[selection/2-1] = 2;
    00001610 6293                   MOV         R9,R2
    00001612 E300                   MOV         #0,R3
    00001614 3327                   CMP/GT      R2,R3
    00001616 323E                   ADDC        R3,R2
    00001618 4221                   SHAR        R2
    0000161A 72FF                   ADD         #-1,R2
    0000161C 6143                   MOV         R4,R1
    0000161E 7120                   ADD         #32,R1
    00001620              L2225:                            
    00001620 321C                   ADD         R1,R2
    00001622 A049                   BRA         L1817
    00001624 22C0                   MOV.B       R12,@R2
    00001626              L1814:                            
          Menu.c   539                        }
          Menu.c   540                        else if (sauvegarde->ameliorationAimant[selection/2-1] == 2) // si il est equipe
    00001626 6093                   MOV         R9,R0
    00001628 E300                   MOV         #0,R3
    0000162A 3307                   CMP/GT      R0,R3
    0000162C 303E                   ADDC        R3,R0
    0000162E 4021                   SHAR        R0
    00001630 70FF                   ADD         #-1,R0
    00001632 6243                   MOV         R4,R2
    00001634 7220                   ADD         #32,R2
    00001636 002C                   MOV.B       @(R0,R2),R0
    00001638 600C                   EXTU.B      R0,R0
    0000163A 8802                   CMP/EQ      #2,R0
    0000163C 8B3C                   BF          L1817
          Menu.c   541                        {
          Menu.c   542                            sauvegarde->ameliorationAimant[selection/2-1] = 1; // on l'enleve
    0000163E 6293                   MOV         R9,R2
    00001640 E300                   MOV         #0,R3
    00001642 3327                   CMP/GT      R2,R3
    00001644 323E                   ADDC        R3,R2
    00001646 4221                   SHAR        R2
    00001648 72FF                   ADD         #-1,R2
    0000164A 6143                   MOV         R4,R1
    0000164C 7120                   ADD         #32,R1
    0000164E 321C                   ADD         R1,R2
    00001650 A032                   BRA         L1817
    00001652 22E0                   MOV.B       R14,@R2
    00001654              L1768:                            
          Menu.c   543                        }
          Menu.c   544                    }
          Menu.c   545                }
          Menu.c   546            }
          Menu.c   547            else
          Menu.c   548            {
          Menu.c   549                if (v < vNext) u += (vNext-v>2?3:1), v += (vNext-v>2?3:1);
    00001654 52F1                   MOV.L       @(4,R15),R2
    00001656 3823                   CMP/GE      R2,R8
    00001658 8911                   BT          L1818
    0000165A 54F1                   MOV.L       @(4,R15),R4
    0000165C 3488                   SUB         R8,R4
    0000165E 34C7                   CMP/GT      R12,R4
    00001660 8B01                   BF          L1819
    00001662 A001                   BRA         L1821




SH SERIES C/C++ Compiler (Ver. 6.0C)                                                                 30-Jan-2015 21:53:33  PAGE   64


SCT OFFSET   CODE       C LABEL     INSTRUCTION OPERAND    COMMENT

    00001664 E103                   MOV         #3,R1
    00001666              L1819:                            
    00001666 E101                   MOV         #1,R1
    00001668              L1821:                            
    00001668 63F2                   MOV.L       @R15,R3
    0000166A 34C7                   CMP/GT      R12,R4
    0000166C 331C                   ADD         R1,R3
    0000166E 8F02                   BF/S        L1820
    00001670 2F32                   MOV.L       R3,@R15
    00001672 A001                   BRA         L1822
    00001674 E203                   MOV         #3,R2
    00001676              L1820:                            
    00001676 E201                   MOV         #1,R2
    00001678              L1822:                            
    00001678 382C                   ADD         R2,R8
    0000167A A017                   BRA         L1823
    0000167C 0009                   NOP
    0000167E              L1818:                            
          Menu.c   550                else if (v > vNext) u -= (v-vNext>2?3:1), v -= (v-vNext>2?3:1);
    0000167E 53F1                   MOV.L       @(4,R15),R3
    00001680 3837                   CMP/GT      R3,R8
    00001682 8B13                   BF          L1823
    00001684 53F1                   MOV.L       @(4,R15),R3
    00001686 6483                   MOV         R8,R4
    00001688 3438                   SUB         R3,R4
    0000168A 34C7                   CMP/GT      R12,R4
    0000168C 8B01                   BF          L1825
    0000168E A001                   BRA         L1827
    00001690 E103                   MOV         #3,R1
    00001692              L1825:                            
    00001692 E101                   MOV         #1,R1
    00001694              L1827:                            
    00001694 62F2                   MOV.L       @R15,R2
    00001696 34C7                   CMP/GT      R12,R4
    00001698 3218                   SUB         R1,R2
    0000169A 8F05                   BF/S        L1826
    0000169C 2F22                   MOV.L       R2,@R15
    0000169E A004                   BRA         L1828
    000016A0 E303                   MOV         #3,R3
    000016A2              L2289:                            
    000016A2 0000                   .DATA.W     0
    000016A4 <00000000>             .DATA.L     _isAllBought
    000016A8              L1826:                            
    000016A8 E301                   MOV         #1,R3
    000016AA              L1828:                            
    000016AA 3838                   SUB         R3,R8
    000016AC              L1823:                            
          Menu.c   551    
          Menu.c   552                if (keyDown > 0) keyDown--;
    000016AC 53F3                   MOV.L       @(12,R15),R3
    000016AE 4315                   CMP/PL      R3
    000016B0 8B02                   BF          L1817
    000016B2 51F3                   MOV.L       @(12,R15),R1
    000016B4 71FF                   ADD         #-1,R1
    000016B6 1F13                   MOV.L       R1,@(12,R15)
    000016B8              L1817:                            
          Menu.c   553            }




SH SERIES C/C++ Compiler (Ver. 6.0C)                                                                 30-Jan-2015 21:53:33  PAGE   65


SCT OFFSET   CODE       C LABEL     INSTRUCTION OPERAND    COMMENT

          Menu.c   554    
          Menu.c   555            if (IsKeyUp(KEY_CTRL_EXE)) exeDown = 0;
    000016B8 DD3D                   MOV.L       L2290+14,R13; _IsKeyUp
    000016BA 9472                   MOV.W       L2290,R4   ; H'7534
    000016BC 4D0B                   JSR         @R13
    000016BE 0009                   NOP
    000016C0 2008                   TST         R0,R0
    000016C2 8900                   BT          L1830
    000016C4 1FAE                   MOV.L       R10,@(56,R15)
    000016C6              L1830:                            
          Menu.c   556    
          Menu.c   557        }while (IsKeyUp(KEY_CTRL_EXIT));
    000016C6 9C6D                   MOV.W       L2290+2,R12; H'7532
    000016C8 4D0B                   JSR         @R13
    000016CA 64C3                   MOV         R12,R4
    000016CC 2008                   TST         R0,R0
    000016CE 8901                   BT          L2291
    000016D0 AC8F                   BRA         L1745
    000016D2 0009                   NOP
    000016D4              L2291:                            
          Menu.c   558    }
    000016D4 9167                   MOV.W       L2290+4,R1 ; H'0090
    000016D6 3F1C                   ADD         R1,R15
    000016D8 4F16                   LDS.L       @R15+,MACL
    000016DA 4F26                   LDS.L       @R15+,PR
    000016DC 68F6                   MOV.L       @R15+,R8
    000016DE 69F6                   MOV.L       @R15+,R9
    000016E0 6AF6                   MOV.L       @R15+,R10
    000016E2 6BF6                   MOV.L       @R15+,R11
    000016E4 6CF6                   MOV.L       @R15+,R12
    000016E6 6DF6                   MOV.L       @R15+,R13
    000016E8 000B                   RTS
    000016EA 6EF6                   MOV.L       @R15+,R14
          Menu.c   559    
          Menu.c   560    void optionMenu()
    000016EC              _optionMenu:                     ; function: optionMenu
                                                           ; frame size=380
                                                           ; used runtime library name:
                                                           ; __adds, __subs, __subd, __stod, __dtos, __stoi, __eqs, __gts, __quick_e
                        +                                  vn_mvn
    000016EC 2FE6                   MOV.L       R14,@-R15
    000016EE 2FD6                   MOV.L       R13,@-R15
    000016F0 2FC6                   MOV.L       R12,@-R15
    000016F2 2FB6                   MOV.L       R11,@-R15
    000016F4 2FA6                   MOV.L       R10,@-R15
    000016F6 2F96                   MOV.L       R9,@-R15
    000016F8 2F86                   MOV.L       R8,@-R15
    000016FA 4F22                   STS.L       PR,@-R15
    000016FC 9054                   MOV.W       L2290+6,R0 ; H'FED4
    000016FE 3F0C                   ADD         R0,R15
          Menu.c   561    {
          Menu.c   562        char *gadgetsNames[12] = {"AIR BARRYS", "INSTA-BALLE", "CEINTURE DE GRAVITE", "BROUILLEUR DE MISSILES"
                         +, "JETON OFFERT", "GLACOMATIQUE", "GEMMOLOGIE", "JETONS MAGNETIQUES", "TOUR GRATUIT", "AIMANT A PIECES", "
                         +DERNIERE CHANCE", "DEZAPPEUR"};
    00001700 9153                   MOV.W       L2290+8,R1 ; H'00FC
    00001702 31FC                   ADD         R15,R1
    00001704 D22B                   MOV.L       L2290+18,R2; L766




SH SERIES C/C++ Compiler (Ver. 6.0C)                                                                 30-Jan-2015 21:53:33  PAGE   66


SCT OFFSET   CODE       C LABEL     INSTRUCTION OPERAND    COMMENT

    00001706 D32C                   MOV.L       L2290+22,R3; __quick_evn_mvn
    00001708 430B                   JSR         @R3
    0000170A E030                   MOV         #48,R0
          Menu.c   563        char *gadgetDesc1[12] = {"Sautez plus haut !","Rebondissez avant votre","Rejoignez le sol plus", "Desa
                         +rmez certains missiles", "Un jeton offert des le","Glissez sur le ventre","Des pieces qui comptent","Les j
                         +etons sont aimantes","Demarrez chaque partie avec","Les pieces viennent d'elles","Gagnez a coup sur votre"
                         +,"Desactivez certains"};
    0000170C 914E                   MOV.W       L2290+10,R1; H'00CC
    0000170E 31FC                   ADD         R15,R1
    00001710 D22A                   MOV.L       L2290+26,R2; L780
    00001712 D329                   MOV.L       L2290+22,R3; __quick_evn_mvn
    00001714 430B                   JSR         @R3
    00001716 E030                   MOV         #48,R0
          Menu.c   564        char *gadgetDesc2[12] = {"","mort afin de gagner","rapidement que d'habitude !","afin qu'ils explosent
                         + avant", "demarrage d'une partie, si","a votre mort pour","double ! De quoi en ravir","a vous ! Attrapez l
                         +es","un vehicule !","memes vers vous ! Fini","dernier jeton de tirage !","zappeurs ! Ideal si vous"};
    00001718 9149                   MOV.W       L2290+12,R1; H'009C
    0000171A 31FC                   ADD         R15,R1
    0000171C D228                   MOV.L       L2290+30,R2; L794
    0000171E D326                   MOV.L       L2290+22,R3; __quick_evn_mvn
    00001720 430B                   JSR         @R3
    00001722 E030                   MOV         #48,R0
          Menu.c   565        char *gadgetDesc3[12] = {"","quelques metres de plus !","","de vous atteindre !","c'est pas beau ca !"
                         +,"augmenter votre score !","certains !","tous !","","les acrobaties !","Tricheur, va !","avez des difficul
                         +tees !"};
    00001724 D227                   MOV.L       L2290+34,R2; L807
    00001726 61F3                   MOV         R15,R1
    00001728 D323                   MOV.L       L2290+22,R3; __quick_evn_mvn
    0000172A 716C                   ADD         #108,R1
    0000172C 430B                   JSR         @R3
    0000172E E030                   MOV         #48,R0
          Menu.c   566    
          Menu.c   567        int x,y, u = 16, exeDown = 1, exitDown = 1,a,b;
          Menu.c   568    
          Menu.c   569        unsigned char actualContrast;
          Menu.c   570        int scrolling, plusDown, minusDown, gadgetsCount, leftDown, rightDown;
          Menu.c   571        float v;
          Menu.c   572        char contrastChar[2];
          Menu.c   573    
          Menu.c   574        char *sectionNames[4] = {"CONTRASTE","GADGETS","CREDITS","REINITIALISER"};
    00001730 D225                   MOV.L       L2290+38,R2; L834
    00001732 E110                   MOV         #16,R1
    00001734 D320                   MOV.L       L2290+22,R3; __quick_evn_mvn
    00001736 EE01                   MOV         #1,R14
    00001738 2F12                   MOV.L       R1,@R15
    0000173A 61F3                   MOV         R15,R1
    0000173C 1FE1                   MOV.L       R14,@(4,R15)
    0000173E 7158                   ADD         #88,R1
    00001740 1FE3                   MOV.L       R14,@(12,R15)
    00001742 430B                   JSR         @R3
    00001744 E010                   MOV         #16,R0
    00001746 E040                   MOV         #64,R0
    00001748 D321                   MOV.L       L2290+46,R3; __$barryAlpha
    0000174A EC00                   MOV         #0,R12
    0000174C DD22                   MOV.L       L2290+54,R13; _PrintMini
    0000174E D41F                   MOV.L       L2290+42,R4; __$jetpack1
    00001750 D920                   MOV.L       L2290+50,R9; _IsKeyDown




SH SERIES C/C++ Compiler (Ver. 6.0C)                                                                 30-Jan-2015 21:53:33  PAGE   67


SCT OFFSET   CODE       C LABEL     INSTRUCTION OPERAND    COMMENT

    00001752 6143                   MOV         R4,R1
    00001754 9A25                   MOV.W       L2290,R10  ; H'7534
    00001756 7410                   ADD         #16,R4
    00001758 DB15                   MOV.L       L2290+14,R11; _IsKeyUp
    0000175A 0F16                   MOV.L       R1,@(R0,R15)
    0000175C 1F4F                   MOV.L       R4,@(60,R15)
    0000175E E044                   MOV         #68,R0
    00001760 1F3E                   MOV.L       R3,@(56,R15)
    00001762 D31E                   MOV.L       L2290+58,R3; __$barryUp
    00001764 0F36                   MOV.L       R3,@(R0,R15)
          Menu.c   575    
          Menu.c   576        do
    00001766              L1831:                            
          Menu.c   577        {
          Menu.c   578            ML_clear_vram();
    00001766 D21E                   MOV.L       L2290+62,R2; _ML_clear_vram
    00001768 420B                   JSR         @R2
    0000176A 0009                   NOP
          Menu.c   579    
          Menu.c   580            for(x = 0; x < 4; x++) // il y a 12 tenues
    0000176C 68C3                   MOV         R12,R8
    0000176E              L1832:                            
          Menu.c   581            {
          Menu.c   582                PrintMini(x==0?44:x==1?49:x==2?49:37,18+12*x,sectionNames[x],0); // nom du premier gadget
    0000176E E700                   MOV         #0,R7
    00001770 6683                   MOV         R8,R6
    00001772 4608                   SHLL2       R6
    00001774 63F3                   MOV         R15,R3
    00001776 7358                   ADD         #88,R3
    00001778 363C                   ADD         R3,R6
    0000177A 6583                   MOV         R8,R5
    0000177C 6662                   MOV.L       @R6,R6
    0000177E 6283                   MOV         R8,R2
    00001780 4500                   SHLL        R5
    00001782 352C                   ADD         R2,R5
    00001784 4508                   SHLL2       R5
    00001786 2888                   TST         R8,R8
    00001788 1F52                   MOV.L       R5,@(8,R15)
    0000178A 8F02                   BF/S        L1833
    0000178C 7512                   ADD         #18,R5
    0000178E A02A                   BRA         L1836
    00001790 E42C                   MOV         #44,R4
    00001792              L1833:                            
    00001792 6083                   MOV         R8,R0
    00001794 8801                   CMP/EQ      #1,R0
    00001796 8902                   BT          L2228
    00001798 6083                   MOV         R8,R0
    0000179A 8802                   CMP/EQ      #2,R0
    0000179C 8B22                   BF          L1835
    0000179E              L2228:                            
    0000179E A022                   BRA         L1836
    000017A0 E431                   MOV         #49,R4
    000017A2              L2290:                            
    000017A2 7534                   .DATA.W     H'7534
    000017A4 7532                   .DATA.W     H'7532
    000017A6 0090                   .DATA.W     H'0090
    000017A8 FED4                   .DATA.W     H'FED4




SH SERIES C/C++ Compiler (Ver. 6.0C)                                                                 30-Jan-2015 21:53:33  PAGE   68


SCT OFFSET   CODE       C LABEL     INSTRUCTION OPERAND    COMMENT

    000017AA 00FC                   .DATA.W     H'00FC
    000017AC 00CC                   .DATA.W     H'00CC
    000017AE 009C                   .DATA.W     H'009C
    000017B0 <00000000>             .DATA.L     _IsKeyUp
    000017B4 <00000000>             .DATA.L     L766
    000017B8 <00000000>             .DATA.L     __quick_evn_mvn
    000017BC <00000000>             .DATA.L     L780
    000017C0 <00000000>             .DATA.L     L794
    000017C4 <00000000>             .DATA.L     L807
    000017C8 <00000000>             .DATA.L     L834
    000017CC <00000000>             .DATA.L     __$jetpack1
    000017D0 <00000000>             .DATA.L     __$barryAlpha
    000017D4 <00000000>             .DATA.L     _IsKeyDown
    000017D8 <00000000>             .DATA.L     _PrintMini
    000017DC <00000000>             .DATA.L     __$barryUp
    000017E0 <00000000>             .DATA.L     _ML_clear_vram
    000017E4              L1835:                            
    000017E4 E425                   MOV         #37,R4
    000017E6              L1836:                            
    000017E6 4D0B                   JSR         @R13
    000017E8 0009                   NOP
          Menu.c   583                ML_rectangle(30,16+12*x,96,24+12*x,1,ML_BLACK,ML_TRANSPARENT); // premier rectangle "gadget"
    000017EA E2FF                   MOV         #-1,R2
    000017EC D334                   MOV.L       L2292+8,R3 ; _ML_rectangle
    000017EE E660                   MOV         #96,R6
    000017F0 2F26                   MOV.L       R2,@-R15
    000017F2 2FE6                   MOV.L       R14,@-R15
    000017F4 2FE6                   MOV.L       R14,@-R15
    000017F6 57F5                   MOV.L       @(20,R15),R7
    000017F8 55F5                   MOV.L       @(20,R15),R5
    000017FA 7718                   ADD         #24,R7
    000017FC 7510                   ADD         #16,R5
    000017FE 430B                   JSR         @R3
    00001800 E41E                   MOV         #30,R4
    00001802 7801                   ADD         #1,R8
    00001804 E204                   MOV         #4,R2
    00001806 3823                   CMP/GE      R2,R8
    00001808 8FB1                   BF/S        L1832
    0000180A 7F0C                   ADD         #12,R15
          Menu.c   584            }
          Menu.c   585    
          Menu.c   586            ML_rectangle(31,u+1,95,u+7,1,ML_BLACK,ML_XOR); // on affiche la position du curseur
    0000180C D32C                   MOV.L       L2292+8,R3 ; _ML_rectangle
    0000180E E102                   MOV         #2,R1
    00001810 2F16                   MOV.L       R1,@-R15
    00001812 E65F                   MOV         #95,R6
    00001814 2FE6                   MOV.L       R14,@-R15
    00001816 2FE6                   MOV.L       R14,@-R15
    00001818 57F3                   MOV.L       @(12,R15),R7
    0000181A 7707                   ADD         #7,R7
    0000181C 55F3                   MOV.L       @(12,R15),R5
    0000181E 7501                   ADD         #1,R5
    00001820 430B                   JSR         @R3
    00001822 E41F                   MOV         #31,R4
          Menu.c   587    
          Menu.c   588            ML_rectangle(39,0,88,13,1,ML_WHITE,ML_WHITE); // on gere la transparence de l'en-tete
    00001824 2FC6                   MOV.L       R12,@-R15




SH SERIES C/C++ Compiler (Ver. 6.0C)                                                                 30-Jan-2015 21:53:33  PAGE   69


SCT OFFSET   CODE       C LABEL     INSTRUCTION OPERAND    COMMENT

    00001826 E70D                   MOV         #13,R7
    00001828 D225                   MOV.L       L2292+8,R2 ; _ML_rectangle
    0000182A E658                   MOV         #88,R6
    0000182C 2FC6                   MOV.L       R12,@-R15
    0000182E E500                   MOV         #0,R5
    00001830 2FE6                   MOV.L       R14,@-R15
    00001832 420B                   JSR         @R2
    00001834 E427                   MOV         #39,R4
          Menu.c   589    
          Menu.c   590            ML_bmp_or(optionsTop,0,0,128,16); // on affiche le sprite de l'entete
    00001836 E310                   MOV         #16,R3
    00001838 973E                   MOV.W       L2292,R7   ; H'0080
    0000183A E600                   MOV         #0,R6
    0000183C D421                   MOV.L       L2292+12,R4; __$optionsTop
    0000183E 2F36                   MOV.L       R3,@-R15
    00001840 D221                   MOV.L       L2292+16,R2; _ML_bmp_or
    00001842 420B                   JSR         @R2
    00001844 6563                   MOV         R6,R5
          Menu.c   591    
          Menu.c   592            ML_display_vram();
    00001846 D321                   MOV.L       L2292+20,R3; _ML_display_vram
    00001848 430B                   JSR         @R3
    0000184A 7F1C                   ADD         #28,R15
          Menu.c   593    
          Menu.c   594            if (IsKeyDown(KEY_CTRL_DOWN) && u != 52) u += 12;
    0000184C 9435                   MOV.W       L2292+2,R4 ; H'7547
    0000184E 490B                   JSR         @R9
    00001850 0009                   NOP
    00001852 2008                   TST         R0,R0
    00001854 8905                   BT          L1839
    00001856 60F2                   MOV.L       @R15,R0
    00001858 8834                   CMP/EQ      #52,R0
    0000185A 8902                   BT          L1839
    0000185C 62F2                   MOV.L       @R15,R2
    0000185E A00A                   BRA         L2229
    00001860 720C                   ADD         #12,R2
    00001862              L1839:                            
          Menu.c   595            else if (IsKeyDown(KEY_CTRL_UP) && u != 16) u -= 12;
    00001862 942B                   MOV.W       L2292+4,R4 ; H'7542
    00001864 490B                   JSR         @R9
    00001866 0009                   NOP
    00001868 2008                   TST         R0,R0
    0000186A 8906                   BT          L1841
    0000186C 60F2                   MOV.L       @R15,R0
    0000186E 8810                   CMP/EQ      #16,R0
    00001870 8903                   BT          L1841
    00001872 62F2                   MOV.L       @R15,R2
    00001874 72F4                   ADD         #-12,R2
    00001876              L2229:                            
    00001876 A5DF                   BRA         L1840
    00001878 2F22                   MOV.L       R2,@R15
    0000187A              L1841:                            
          Menu.c   596            else if (IsKeyDown(KEY_CTRL_EXE) && exeDown == 0) // si on appuie sur EXE
    0000187A 490B                   JSR         @R9
    0000187C 64A3                   MOV         R10,R4
    0000187E 2008                   TST         R0,R0
    00001880 8B01                   BF          L2293




SH SERIES C/C++ Compiler (Ver. 6.0C)                                                                 30-Jan-2015 21:53:33  PAGE   70


SCT OFFSET   CODE       C LABEL     INSTRUCTION OPERAND    COMMENT

    00001882 A5D9                   BRA         L1840
    00001884 0009                   NOP
    00001886              L2293:                            
    00001886 53F1                   MOV.L       @(4,R15),R3
    00001888 2338                   TST         R3,R3
    0000188A 8901                   BT          L2294
    0000188C A5D4                   BRA         L1840
    0000188E 0009                   NOP
    00001890              L2294:                            
          Menu.c   597            {
          Menu.c   598                exeDown = 1;
    00001890 1FE1                   MOV.L       R14,@(4,R15)
    00001892 D30F                   MOV.L       L2292+24,R3; _sauvegarde
    00001894 60F2                   MOV.L       @R15,R0
    00001896 8810                   CMP/EQ      #16,R0
    00001898 8D1C                   BT/S        L1400
    0000189A 6532                   MOV.L       @R3,R5
    0000189C 881C                   CMP/EQ      #28,R0
    0000189E 8B01                   BF          L2295
    000018A0 A17C                   BRA         L1405
    000018A2 0009                   NOP
    000018A4              L2295:                            
    000018A4 8828                   CMP/EQ      #40,R0
    000018A6 8B01                   BF          L2296
    000018A8 A328                   BRA         L1406
    000018AA 0009                   NOP
    000018AC              L2296:                            
    000018AC 8834                   CMP/EQ      #52,R0
    000018AE 8B01                   BF          L2297
    000018B0 A4FA                   BRA         L1429
    000018B2 0009                   NOP
    000018B4              L2297:                            
    000018B4 A5BC                   BRA         L1844
    000018B6 0009                   NOP
    000018B8              L2292:                            
    000018B8 0080                   .DATA.W     H'0080
    000018BA 7547                   .DATA.W     H'7547
    000018BC 7542                   .DATA.W     H'7542
    000018BE 0000                   .DATA.W     0
    000018C0 <00000000>             .DATA.L     _ML_rectangle
    000018C4 <00000000>             .DATA.L     __$optionsTop
    000018C8 <00000000>             .DATA.L     _ML_bmp_or
    000018CC <00000000>             .DATA.L     _ML_display_vram
    000018D0 <00000000>             .DATA.L     _sauvegarde
    000018D4              L1400:                           ; case label 
          Menu.c   599    
          Menu.c   600                switch (u)
          Menu.c   601                {
          Menu.c   602    
          Menu.c   603                case 16:
          Menu.c   604                    actualContrast = sauvegarde->contrast;
    000018D4 E07C                   MOV         #124,R0
    000018D6 085C                   MOV.B       @(R0,R5),R8
          Menu.c   605                    do
    000018D8              L1845:                            
          Menu.c   606                    {
          Menu.c   607                        ML_clear_vram();




SH SERIES C/C++ Compiler (Ver. 6.0C)                                                                 30-Jan-2015 21:53:33  PAGE   71


SCT OFFSET   CODE       C LABEL     INSTRUCTION OPERAND    COMMENT

    000018D8 D32B                   MOV.L       L2298+4,R3 ; _ML_clear_vram
    000018DA 430B                   JSR         @R3
    000018DC 0009                   NOP
          Menu.c   608    
          Menu.c   609                        ML_bmp_or(fond,0,0,128,51);
    000018DE E233                   MOV         #51,R2
    000018E0 9750                   MOV.W       L2298,R7   ; H'0080
    000018E2 E600                   MOV         #0,R6
    000018E4 D429                   MOV.L       L2298+8,R4 ; __$fond
    000018E6 2F26                   MOV.L       R2,@-R15
    000018E8 D329                   MOV.L       L2298+12,R3; _ML_bmp_or
    000018EA 430B                   JSR         @R3
    000018EC 6563                   MOV         R6,R5
    000018EE 7F04                   ADD         #4,R15
          Menu.c   610                        for (x=0;x<4;x++) ML_line(83,x+5,113,x+25,ML_CHECKER);
    000018F0 1FC3                   MOV.L       R12,@(12,R15)
    000018F2 E305                   MOV         #5,R3
    000018F4 1F32                   MOV.L       R3,@(8,R15)
    000018F6 E219                   MOV         #25,R2
    000018F8 2F22                   MOV.L       R2,@R15
    000018FA              L1846:                            
    000018FA E303                   MOV         #3,R3
    000018FC D225                   MOV.L       L2298+16,R2; _ML_line
    000018FE E671                   MOV         #113,R6
    00001900 2F36                   MOV.L       R3,@-R15
    00001902 57F1                   MOV.L       @(4,R15),R7
    00001904 55F3                   MOV.L       @(12,R15),R5
    00001906 420B                   JSR         @R2
    00001908 E453                   MOV         #83,R4
    0000190A 7F04                   ADD         #4,R15
    0000190C 53F3                   MOV.L       @(12,R15),R3
    0000190E 7301                   ADD         #1,R3
    00001910 1F33                   MOV.L       R3,@(12,R15)
    00001912 E304                   MOV         #4,R3
    00001914 52F2                   MOV.L       @(8,R15),R2
    00001916 7201                   ADD         #1,R2
    00001918 1F22                   MOV.L       R2,@(8,R15)
    0000191A 61F2                   MOV.L       @R15,R1
    0000191C 7101                   ADD         #1,R1
    0000191E 2F12                   MOV.L       R1,@R15
    00001920 50F3                   MOV.L       @(12,R15),R0
    00001922 3033                   CMP/GE      R3,R0
    00001924 8BE9                   BF          L1846
          Menu.c   611                        ML_bmp_16_and_cl(zapAlpha,80,2); // masque alpha des zappeur
    00001926 E602                   MOV         #2,R6
    00001928 D41B                   MOV.L       L2298+20,R4; __$zapAlpha
    0000192A D31C                   MOV.L       L2298+24,R3; _ML_bmp_16_and_cl
    0000192C 430B                   JSR         @R3
    0000192E E550                   MOV         #80,R5
          Menu.c   612                        ML_bmp_16_and_cl(zapAlpha,110,22);
    00001930 D419                   MOV.L       L2298+20,R4; __$zapAlpha
    00001932 E616                   MOV         #22,R6
    00001934 D219                   MOV.L       L2298+24,R2; _ML_bmp_16_and_cl
    00001936 420B                   JSR         @R2
    00001938 E56E                   MOV         #110,R5
          Menu.c   613                        ML_bmp_16_or_cl(zap,80,2); // affichage des extremites des zappeurs
    0000193A E602                   MOV         #2,R6




SH SERIES C/C++ Compiler (Ver. 6.0C)                                                                 30-Jan-2015 21:53:33  PAGE   72


SCT OFFSET   CODE       C LABEL     INSTRUCTION OPERAND    COMMENT

    0000193C D418                   MOV.L       L2298+28,R4; __$zap
    0000193E D319                   MOV.L       L2298+32,R3; _ML_bmp_16_or_cl
    00001940 430B                   JSR         @R3
    00001942 E550                   MOV         #80,R5
          Menu.c   614                        ML_bmp_16_or_cl(zap,110,22);
    00001944 D416                   MOV.L       L2298+28,R4; __$zap
    00001946 E616                   MOV         #22,R6
    00001948 D216                   MOV.L       L2298+32,R2; _ML_bmp_16_or_cl
    0000194A 420B                   JSR         @R2
    0000194C E56E                   MOV         #110,R5
          Menu.c   615    
          Menu.c   616                        ML_horizontal_scroll(-scrolling);
    0000194E 54F7                   MOV.L       @(28,R15),R4
    00001950 D315                   MOV.L       L2298+36,R3; _ML_horizontal_scroll
    00001952 430B                   JSR         @R3
    00001954 644B                   NEG         R4,R4
          Menu.c   617    
          Menu.c   618                        ML_bmp_and(jetpack1Alpha,8,30,8,16); // masque alpha du jetpack
    00001956 E210                   MOV         #16,R2
    00001958 D414                   MOV.L       L2298+40,R4; __$jetpack1Alpha
    0000195A E708                   MOV         #8,R7
    0000195C D314                   MOV.L       L2298+44,R3; _ML_bmp_and
    0000195E E61E                   MOV         #30,R6
    00001960 2F26                   MOV.L       R2,@-R15
    00001962 430B                   JSR         @R3
    00001964 6573                   MOV         R7,R5
    00001966 7F04                   ADD         #4,R15
          Menu.c   619                        if (scrolling&1) ML_bmp_or(jetpack1[0],8,30,8,16); // affichage de la premiere animati
                         +on du jetpack
    00001968 52F7                   MOV.L       @(28,R15),R2
    0000196A 22E8                   TST         R14,R2
    0000196C 8922                   BT          L1847
    0000196E E110                   MOV         #16,R1
    00001970 D307                   MOV.L       L2298+12,R3; _ML_bmp_or
    00001972 E708                   MOV         #8,R7
    00001974 2F16                   MOV.L       R1,@-R15
    00001976 E61E                   MOV         #30,R6
    00001978 6573                   MOV         R7,R5
    0000197A E044                   MOV         #68,R0
    0000197C 430B                   JSR         @R3
    0000197E 04FE                   MOV.L       @(R0,R15),R4
    00001980 A021                   BRA         L2227
    00001982 0009                   NOP
    00001984              L2298:                            
    00001984 0080                   .DATA.W     H'0080
    00001986 0000                   .DATA.W     0
    00001988 <00000000>             .DATA.L     _ML_clear_vram
    0000198C <00000000>             .DATA.L     __$fond
    00001990 <00000000>             .DATA.L     _ML_bmp_or
    00001994 <00000000>             .DATA.L     _ML_line
    00001998 <00000000>             .DATA.L     __$zapAlpha
    0000199C <00000000>             .DATA.L     _ML_bmp_16_and_cl
    000019A0 <00000000>             .DATA.L     __$zap
    000019A4 <00000000>             .DATA.L     _ML_bmp_16_or_cl
    000019A8 <00000000>             .DATA.L     _ML_horizontal_scroll
    000019AC <00000000>             .DATA.L     __$jetpack1Alpha
    000019B0 <00000000>             .DATA.L     _ML_bmp_and




SH SERIES C/C++ Compiler (Ver. 6.0C)                                                                 30-Jan-2015 21:53:33  PAGE   73


SCT OFFSET   CODE       C LABEL     INSTRUCTION OPERAND    COMMENT

    000019B4              L1847:                            
          Menu.c   620                        else ML_bmp_or(jetpack1[1],8,30,8,16); // 2eme animation du jetpack
    000019B4 D239                   MOV.L       L2299+8,R2 ; _ML_bmp_or
    000019B6 E310                   MOV         #16,R3
    000019B8 2F36                   MOV.L       R3,@-R15
    000019BA E708                   MOV         #8,R7
    000019BC E61E                   MOV         #30,R6
    000019BE 6573                   MOV         R7,R5
    000019C0 E040                   MOV         #64,R0
    000019C2 420B                   JSR         @R2
    000019C4 04FE                   MOV.L       @(R0,R15),R4
    000019C6              L2227:                            
          Menu.c   621                        ML_bmp_and_cl(barryAlpha[0],15,30,10,16); // masque alpha de barry en l'air
    000019C6 E310                   MOV         #16,R3
    000019C8 D235                   MOV.L       L2299+12,R2; _ML_bmp_and_cl
    000019CA E70A                   MOV         #10,R7
    000019CC 2F36                   MOV.L       R3,@-R15
    000019CE E61E                   MOV         #30,R6
    000019D0 E50F                   MOV         #15,R5
    000019D2 E040                   MOV         #64,R0
    000019D4 420B                   JSR         @R2
    000019D6 04FE                   MOV.L       @(R0,R15),R4
          Menu.c   622                        ML_bmp_or(barryUp[0],15,30,10,16); // affichage de barry en l'air
    000019D8 D230                   MOV.L       L2299+8,R2 ; _ML_bmp_or
    000019DA E310                   MOV         #16,R3
    000019DC 2F36                   MOV.L       R3,@-R15
    000019DE E70A                   MOV         #10,R7
    000019E0 E61E                   MOV         #30,R6
    000019E2 E50F                   MOV         #15,R5
    000019E4 E050                   MOV         #80,R0
    000019E6 420B                   JSR         @R2
    000019E8 04FE                   MOV.L       @(R0,R15),R4
          Menu.c   623    
          Menu.c   624                        ML_rectangle(0,47,127,63,1,ML_BLACK,ML_WHITE);
    000019EA E73F                   MOV         #63,R7
    000019EC D32D                   MOV.L       L2299+16,R3; _ML_rectangle
    000019EE E67F                   MOV         #127,R6
    000019F0 2FC6                   MOV.L       R12,@-R15
    000019F2 E52F                   MOV         #47,R5
    000019F4 2FE6                   MOV.L       R14,@-R15
    000019F6 2FE6                   MOV.L       R14,@-R15
    000019F8 430B                   JSR         @R3
    000019FA E400                   MOV         #0,R4
          Menu.c   625    
          Menu.c   626                        ML_line(30,52,97,52,ML_BLACK);
    000019FC 2FE6                   MOV.L       R14,@-R15
    000019FE E734                   MOV         #52,R7
    00001A00 D229                   MOV.L       L2299+20,R2; _ML_line
    00001A02 E661                   MOV         #97,R6
    00001A04 6573                   MOV         R7,R5
    00001A06 420B                   JSR         @R2
    00001A08 E41E                   MOV         #30,R4
          Menu.c   627    
          Menu.c   628                        sprintf(contrastChar,"%d",actualContrast);
    00001A0A 638C                   EXTU.B      R8,R3
    00001A0C D227                   MOV.L       L2299+24,R2; L844
    00001A0E 1F37                   MOV.L       R3,@(28,R15)




SH SERIES C/C++ Compiler (Ver. 6.0C)                                                                 30-Jan-2015 21:53:33  PAGE   74


SCT OFFSET   CODE       C LABEL     INSTRUCTION OPERAND    COMMENT

    00001A10 2F36                   MOV.L       R3,@-R15
    00001A12 2F26                   MOV.L       R2,@-R15
    00001A14 943E                   MOV.W       L2299,R4   ; H'008C
    00001A16 D126                   MOV.L       L2299+28,R1; _sprintf
    00001A18 410B                   JSR         @R1
    00001A1A 34FC                   ADD         R15,R4
          Menu.c   629                        PrintMini(67/30*(actualContrast-get_default_contrast())+127/2-6,50,contrastChar,0);
    00001A1C D325                   MOV.L       L2299+32,R3; _get_default_contrast
    00001A1E 430B                   JSR         @R3
    00001A20 7F24                   ADD         #36,R15
    00001A22 600C                   EXTU.B      R0,R0
    00001A24 62F2                   MOV.L       @R15,R2
    00001A26 E532                   MOV         #50,R5
    00001A28 3208                   SUB         R0,R2
    00001A2A 4200                   SHLL        R2
    00001A2C 6423                   MOV         R2,R4
    00001A2E 7439                   ADD         #57,R4
    00001A30 66F3                   MOV         R15,R6
    00001A32 7668                   ADD         #104,R6
    00001A34 4D0B                   JSR         @R13
    00001A36 E700                   MOV         #0,R7
          Menu.c   630                        PrintMini(5,50,"[-]",0);
    00001A38 D61F                   MOV.L       L2299+36,R6; L845
    00001A3A E532                   MOV         #50,R5
    00001A3C E700                   MOV         #0,R7
    00001A3E 4D0B                   JSR         @R13
    00001A40 E405                   MOV         #5,R4
          Menu.c   631                        PrintMini(114,50,"[+]",0);
    00001A42 E700                   MOV         #0,R7
    00001A44 D61D                   MOV.L       L2299+40,R6; L846
    00001A46 E532                   MOV         #50,R5
    00001A48 4D0B                   JSR         @R13
    00001A4A E472                   MOV         #114,R4
          Menu.c   632                        PrintMini(34,57,"[EXIT]     [EXE]",0);
    00001A4C D61C                   MOV.L       L2299+44,R6; L847
    00001A4E E539                   MOV         #57,R5
    00001A50 E700                   MOV         #0,R7
    00001A52 4D0B                   JSR         @R13
    00001A54 E422                   MOV         #34,R4
          Menu.c   633    
          Menu.c   634                        ML_display_vram();
    00001A56 D31B                   MOV.L       L2299+48,R3; _ML_display_vram
    00001A58 430B                   JSR         @R3
    00001A5A 0009                   NOP
          Menu.c   635    
          Menu.c   636                        if ((IsKeyDown(KEY_CHAR_PLUS) || IsKeyDown(KEY_CTRL_RIGHT)) && plusDown == 0 && actual
                         +Contrast < get_default_contrast() + 15) plusDown = 1, actualContrast++, ML_set_contrast(actualContrast);
    00001A5C 941B                   MOV.W       L2299+2,R4 ; H'0089
    00001A5E 490B                   JSR         @R9
    00001A60 0009                   NOP
    00001A62 2008                   TST         R0,R0
    00001A64 8B04                   BF          L1850
    00001A66 9417                   MOV.W       L2299+4,R4 ; H'7545
    00001A68 490B                   JSR         @R9
    00001A6A 0009                   NOP
    00001A6C 2008                   TST         R0,R0
    00001A6E 892D                   BT          L1849




SH SERIES C/C++ Compiler (Ver. 6.0C)                                                                 30-Jan-2015 21:53:33  PAGE   75


SCT OFFSET   CODE       C LABEL     INSTRUCTION OPERAND    COMMENT

    00001A70              L1850:                            
    00001A70 52FC                   MOV.L       @(48,R15),R2
    00001A72 2228                   TST         R2,R2
    00001A74 8B2A                   BF          L1849
    00001A76 D30F                   MOV.L       L2299+32,R3; _get_default_contrast
    00001A78 430B                   JSR         @R3
    00001A7A 0009                   NOP
    00001A7C 62F2                   MOV.L       @R15,R2
    00001A7E 600C                   EXTU.B      R0,R0
    00001A80 700F                   ADD         #15,R0
    00001A82 3203                   CMP/GE      R0,R2
    00001A84 8922                   BT          L1849
    00001A86 7801                   ADD         #1,R8
    00001A88 D30F                   MOV.L       L2299+52,R3; _ML_set_contrast
    00001A8A 1FEC                   MOV.L       R14,@(48,R15)
    00001A8C 430B                   JSR         @R3
    00001A8E 6483                   MOV         R8,R4
    00001A90 A036                   BRA         L1851
    00001A92 0009                   NOP
    00001A94              L2299:                            
    00001A94 008C                   .DATA.W     H'008C
    00001A96 0089                   .DATA.W     H'0089
    00001A98 7545                   .DATA.W     H'7545
    00001A9A 0000                   .DATA.W     0
    00001A9C <00000000>             .DATA.L     _ML_bmp_or
    00001AA0 <00000000>             .DATA.L     _ML_bmp_and_cl
    00001AA4 <00000000>             .DATA.L     _ML_rectangle
    00001AA8 <00000000>             .DATA.L     _ML_line
    00001AAC <00000000>             .DATA.L     L844
    00001AB0 <00000000>             .DATA.L     _sprintf
    00001AB4 <00000000>             .DATA.L     _get_default_contrast
    00001AB8 <00000000>             .DATA.L     L845
    00001ABC <00000000>             .DATA.L     L846
    00001AC0 <00000000>             .DATA.L     L847
    00001AC4 <00000000>             .DATA.L     _ML_display_vram
    00001AC8 <00000000>             .DATA.L     _ML_set_contrast
    00001ACC              L1849:                            
          Menu.c   637                        else if ((IsKeyDown(KEY_CHAR_MINUS) || IsKeyDown(KEY_CTRL_LEFT)) && minusDown == 0 && 
                         +actualContrast > get_default_contrast() - 15) minusDown = 1, actualContrast--, ML_set_contrast(actualContr
                         +ast);
    00001ACC 945A                   MOV.W       L2300,R4   ; H'0099
    00001ACE 490B                   JSR         @R9
    00001AD0 0009                   NOP
    00001AD2 2008                   TST         R0,R0
    00001AD4 8B04                   BF          L1853
    00001AD6 9456                   MOV.W       L2300+2,R4 ; H'7544
    00001AD8 490B                   JSR         @R9
    00001ADA 0009                   NOP
    00001ADC 2008                   TST         R0,R0
    00001ADE 890F                   BT          L1851
    00001AE0              L1853:                            
    00001AE0 53FB                   MOV.L       @(44,R15),R3
    00001AE2 2338                   TST         R3,R3
    00001AE4 8B0C                   BF          L1851
    00001AE6 D32A                   MOV.L       L2300+12,R3; _get_default_contrast
    00001AE8 430B                   JSR         @R3
    00001AEA 0009                   NOP




SH SERIES C/C++ Compiler (Ver. 6.0C)                                                                 30-Jan-2015 21:53:33  PAGE   76


SCT OFFSET   CODE       C LABEL     INSTRUCTION OPERAND    COMMENT

    00001AEC 62F2                   MOV.L       @R15,R2
    00001AEE 600C                   EXTU.B      R0,R0
    00001AF0 70F1                   ADD         #-15,R0
    00001AF2 3207                   CMP/GT      R0,R2
    00001AF4 8B04                   BF          L1851
    00001AF6 78FF                   ADD         #-1,R8
    00001AF8 D326                   MOV.L       L2300+16,R3; _ML_set_contrast
    00001AFA 1FEB                   MOV.L       R14,@(44,R15)
    00001AFC 430B                   JSR         @R3
    00001AFE 6483                   MOV         R8,R4
    00001B00              L1851:                            
          Menu.c   638    
          Menu.c   639                        if (IsKeyUp(KEY_CHAR_PLUS) && IsKeyUp(KEY_CTRL_RIGHT)) plusDown = 0;
    00001B00 9442                   MOV.W       L2300+4,R4 ; H'0089
    00001B02 4B0B                   JSR         @R11
    00001B04 0009                   NOP
    00001B06 2008                   TST         R0,R0
    00001B08 8905                   BT          L1854
    00001B0A 943E                   MOV.W       L2300+6,R4 ; H'7545
    00001B0C 4B0B                   JSR         @R11
    00001B0E 0009                   NOP
    00001B10 2008                   TST         R0,R0
    00001B12 8900                   BT          L1854
    00001B14 1FCC                   MOV.L       R12,@(48,R15)
    00001B16              L1854:                            
          Menu.c   640                        if (IsKeyUp(KEY_CHAR_MINUS) && IsKeyUp(KEY_CTRL_LEFT)) minusDown = 0;
    00001B16 9435                   MOV.W       L2300,R4   ; H'0099
    00001B18 4B0B                   JSR         @R11
    00001B1A 0009                   NOP
    00001B1C 2008                   TST         R0,R0
    00001B1E 8905                   BT          L1855
    00001B20 9431                   MOV.W       L2300+2,R4 ; H'7544
    00001B22 4B0B                   JSR         @R11
    00001B24 0009                   NOP
    00001B26 2008                   TST         R0,R0
    00001B28 8900                   BT          L1855
    00001B2A 1FCB                   MOV.L       R12,@(44,R15)
    00001B2C              L1855:                            
          Menu.c   641    
          Menu.c   642                        scrolling += 3;
    00001B2C 53F7                   MOV.L       @(28,R15),R3
    00001B2E 7303                   ADD         #3,R3
          Menu.c   643                        if (scrolling > 128) scrolling -= 128; // decalage du scrolling
    00001B30 922C                   MOV.W       L2300+8,R2 ; H'0080
    00001B32 3327                   CMP/GT      R2,R3
    00001B34 8F04                   BF/S        L1856
    00001B36 1F37                   MOV.L       R3,@(28,R15)
    00001B38 9228                   MOV.W       L2300+8,R2 ; H'0080
    00001B3A 51F7                   MOV.L       @(28,R15),R1
    00001B3C 3128                   SUB         R2,R1
    00001B3E 1F17                   MOV.L       R1,@(28,R15)
    00001B40              L1856:                            
          Menu.c   644    
          Menu.c   645                        if (IsKeyDown(KEY_CTRL_EXIT))
    00001B40 9425                   MOV.W       L2300+10,R4; H'7532
    00001B42 490B                   JSR         @R9
    00001B44 0009                   NOP




SH SERIES C/C++ Compiler (Ver. 6.0C)                                                                 30-Jan-2015 21:53:33  PAGE   77


SCT OFFSET   CODE       C LABEL     INSTRUCTION OPERAND    COMMENT

    00001B46 2008                   TST         R0,R0
    00001B48 8907                   BT          L1857
          Menu.c   646                        {
          Menu.c   647                            ML_set_contrast(sauvegarde->contrast);
    00001B4A E07C                   MOV         #124,R0
    00001B4C D211                   MOV.L       L2300+16,R2; _ML_set_contrast
    00001B4E D312                   MOV.L       L2300+20,R3; _sauvegarde
    00001B50 6432                   MOV.L       @R3,R4
    00001B52 420B                   JSR         @R2
    00001B54 044C                   MOV.B       @(R0,R4),R4
          Menu.c   648                            break;
    00001B56 A46B                   BRA         L1844
    00001B58 0009                   NOP
    00001B5A              L1857:                            
          Menu.c   649                        }
          Menu.c   650                        else if (IsKeyDown(KEY_CTRL_EXE) && exeDown == 0)
    00001B5A 490B                   JSR         @R9
    00001B5C 64A3                   MOV         R10,R4
    00001B5E 2008                   TST         R0,R0
    00001B60 8908                   BT          L1859
    00001B62 52F1                   MOV.L       @(4,R15),R2
    00001B64 2228                   TST         R2,R2
    00001B66 8B05                   BF          L1859
          Menu.c   651                        {
          Menu.c   652                            sauvegarde->contrast = actualContrast;
    00001B68 D20B                   MOV.L       L2300+20,R2; _sauvegarde
    00001B6A E07C                   MOV         #124,R0
    00001B6C 6322                   MOV.L       @R2,R3
    00001B6E 0384                   MOV.B       R8,@(R0,R3)
          Menu.c   653                            break;
    00001B70 A45E                   BRA         L1844
    00001B72 0009                   NOP
    00001B74              L1859:                            
          Menu.c   654                        }
          Menu.c   655    
          Menu.c   656                        if (IsKeyUp(KEY_CTRL_EXE)) exeDown = 0;
    00001B74 4B0B                   JSR         @R11
    00001B76 64A3                   MOV         R10,R4
    00001B78 2008                   TST         R0,R0
    00001B7A 8B01                   BF          L2301
    00001B7C AEAC                   BRA         L1845
    00001B7E 0009                   NOP
    00001B80              L2301:                            
          Menu.c   657    
          Menu.c   658                    }while (1);
    00001B80 AEAA                   BRA         L1845
    00001B82 1FC1                   MOV.L       R12,@(4,R15)
    00001B84              L2300:                            
    00001B84 0099                   .DATA.W     H'0099
    00001B86 7544                   .DATA.W     H'7544
    00001B88 0089                   .DATA.W     H'0089
    00001B8A 7545                   .DATA.W     H'7545
    00001B8C 0080                   .DATA.W     H'0080
    00001B8E 7532                   .DATA.W     H'7532
    00001B90 <00000000>             .DATA.L     _get_default_contrast
    00001B94 <00000000>             .DATA.L     _ML_set_contrast
    00001B98 <00000000>             .DATA.L     _sauvegarde




SH SERIES C/C++ Compiler (Ver. 6.0C)                                                                 30-Jan-2015 21:53:33  PAGE   78


SCT OFFSET   CODE       C LABEL     INSTRUCTION OPERAND    COMMENT

    00001B9C              L1405:                           ; case label 
          Menu.c   659                break;
          Menu.c   660                case 28:
          Menu.c   661                        a=0;
          Menu.c   662                        b=1;
    00001B9C 1FE1                   MOV.L       R14,@(4,R15)
          Menu.c   663                        exeDown = 1;
    00001B9E E054                   MOV         #84,R0
          Menu.c   664                        u = 4;
          Menu.c   665                        v = 16;
    00001BA0 D14F                   MOV.L       L2302+4,R1 ; H'41800000
    00001BA2 68C3                   MOV         R12,R8
    00001BA4 0FE6                   MOV.L       R14,@(R0,R15)
    00001BA6 E204                   MOV         #4,R2
    00001BA8 1F24                   MOV.L       R2,@(16,R15)
          Menu.c   666                        gadgetsCount = 0;
          Menu.c   667                        for (x = 0; x < 12; x++) // on regarde le nombre de gadgets deja achetes
    00001BAA 6483                   MOV         R8,R4
    00001BAC 1F15                   MOV.L       R1,@(20,R15)
    00001BAE 1FC8                   MOV.L       R12,@(32,R15)
    00001BB0              L1862:                            
          Menu.c   668                            if (sauvegarde->gadget[x] != 0) gadgetsCount++;
    00001BB0 6353                   MOV         R5,R3
    00001BB2 334C                   ADD         R4,R3
    00001BB4 6230                   MOV.B       @R3,R2
    00001BB6 2228                   TST         R2,R2
    00001BB8 8D03                   BT/S        L1863
    00001BBA 7401                   ADD         #1,R4
    00001BBC 51F8                   MOV.L       @(32,R15),R1
    00001BBE 7101                   ADD         #1,R1
    00001BC0 1F18                   MOV.L       R1,@(32,R15)
    00001BC2              L1863:                            
    00001BC2 E30C                   MOV         #12,R3
    00001BC4 3433                   CMP/GE      R3,R4
    00001BC6 8BF3                   BF          L1862
    00001BC8 51F8                   MOV.L       @(32,R15),R1
    00001BCA E048                   MOV         #72,R0
    00001BCC 7101                   ADD         #1,R1
    00001BCE 4100                   SHLL        R1
    00001BD0 0F16                   MOV.L       R1,@(R0,R15)
          Menu.c   669                        do
    00001BD2              L1864:                            
          Menu.c   670                        {
          Menu.c   671                            ML_clear_vram();
    00001BD2 D344                   MOV.L       L2302+8,R3 ; _ML_clear_vram
    00001BD4 430B                   JSR         @R3
    00001BD6 0009                   NOP
          Menu.c   672    
          Menu.c   673                            for (y = 0; y < 2; y++)
    00001BD8 1FC6                   MOV.L       R12,@(24,R15)
    00001BDA              L1865:                            
          Menu.c   674                            for (x = 0; x < 6; x++)
    00001BDA 1FC9                   MOV.L       R12,@(36,R15)
    00001BDC 1FC2                   MOV.L       R12,@(8,R15)
    00001BDE 53F6                   MOV.L       @(24,R15),R3
    00001BE0 6233                   MOV         R3,R2
    00001BE2 4300                   SHLL        R3




SH SERIES C/C++ Compiler (Ver. 6.0C)                                                                 30-Jan-2015 21:53:33  PAGE   79


SCT OFFSET   CODE       C LABEL     INSTRUCTION OPERAND    COMMENT

    00001BE4 4208                   SHLL2       R2
    00001BE6 332C                   ADD         R2,R3
    00001BE8 2F32                   MOV.L       R3,@R15
    00001BEA E203                   MOV         #3,R2
    00001BEC 1F2A                   MOV.L       R2,@(40,R15)
    00001BEE 51F6                   MOV.L       @(24,R15),R1
    00001BF0 6213                   MOV         R1,R2
    00001BF2 4108                   SHLL2       R1
    00001BF4 312C                   ADD         R2,R1
    00001BF6 4108                   SHLL2       R1
    00001BF8 1F13                   MOV.L       R1,@(12,R15)
    00001BFA 710F                   ADD         #15,R1
    00001BFC 1F1D                   MOV.L       R1,@(52,R15)
    00001BFE              L1866:                            
          Menu.c   675                            {
          Menu.c   676                                ML_bmp_16_or(gadgets[x+y*6],x*21+3,y*20+15);
    00001BFE 56FD                   MOV.L       @(52,R15),R6
    00001C00 55FA                   MOV.L       @(40,R15),R5
    00001C02 64F2                   MOV.L       @R15,R4
    00001C04 D338                   MOV.L       L2302+12,R3; __$gadgets
    00001C06 4408                   SHLL2       R4
    00001C08 D238                   MOV.L       L2302+16,R2; _ML_bmp_16_or
    00001C0A 4408                   SHLL2       R4
    00001C0C 4400                   SHLL        R4
    00001C0E 420B                   JSR         @R2
    00001C10 343C                   ADD         R3,R4
          Menu.c   677                                if (gadgetsCount < (x+y*6)/2) ML_rectangle(x*21+4,y*20+16,x*21+4+13,y*20+16+13
                         +,1,ML_CHECKER,ML_CHECKER);
    00001C12 E300                   MOV         #0,R3
    00001C14 52F8                   MOV.L       @(32,R15),R2
    00001C16 61F2                   MOV.L       @R15,R1
    00001C18 3317                   CMP/GT      R1,R3
    00001C1A 313E                   ADDC        R3,R1
    00001C1C 4121                   SHAR        R1
    00001C1E 3213                   CMP/GE      R1,R2
    00001C20 890E                   BT          L1867
    00001C22 E103                   MOV         #3,R1
    00001C24 D332                   MOV.L       L2302+20,R3; _ML_rectangle
    00001C26 2F16                   MOV.L       R1,@-R15
    00001C28 2F16                   MOV.L       R1,@-R15
    00001C2A 2FE6                   MOV.L       R14,@-R15
    00001C2C 57F6                   MOV.L       @(24,R15),R7
    00001C2E 771D                   ADD         #29,R7
    00001C30 56F5                   MOV.L       @(20,R15),R6
    00001C32 7611                   ADD         #17,R6
    00001C34 55F6                   MOV.L       @(24,R15),R5
    00001C36 7510                   ADD         #16,R5
    00001C38 54F5                   MOV.L       @(20,R15),R4
    00001C3A 430B                   JSR         @R3
    00001C3C 7404                   ADD         #4,R4
    00001C3E 7F0C                   ADD         #12,R15
    00001C40              L1867:                            
    00001C40 52F9                   MOV.L       @(36,R15),R2
    00001C42 7201                   ADD         #1,R2
    00001C44 1F29                   MOV.L       R2,@(36,R15)
    00001C46 E206                   MOV         #6,R2
    00001C48 53F2                   MOV.L       @(8,R15),R3




SH SERIES C/C++ Compiler (Ver. 6.0C)                                                                 30-Jan-2015 21:53:33  PAGE   80


SCT OFFSET   CODE       C LABEL     INSTRUCTION OPERAND    COMMENT

    00001C4A 7315                   ADD         #21,R3
    00001C4C 1F32                   MOV.L       R3,@(8,R15)
    00001C4E 61F2                   MOV.L       @R15,R1
    00001C50 7101                   ADD         #1,R1
    00001C52 2F12                   MOV.L       R1,@R15
    00001C54 53FA                   MOV.L       @(40,R15),R3
    00001C56 7315                   ADD         #21,R3
    00001C58 1F3A                   MOV.L       R3,@(40,R15)
    00001C5A 50F9                   MOV.L       @(36,R15),R0
    00001C5C 3023                   CMP/GE      R2,R0
    00001C5E 8BCE                   BF          L1866
    00001C60 51F6                   MOV.L       @(24,R15),R1
    00001C62 E302                   MOV         #2,R3
    00001C64 7101                   ADD         #1,R1
    00001C66 3133                   CMP/GE      R3,R1
    00001C68 8FB7                   BF/S        L1865
    00001C6A 1F16                   MOV.L       R1,@(24,R15)
          Menu.c   678                            }
          Menu.c   679    
          Menu.c   680                            ML_rectangle(u,v,u+13,v+13,1,ML_XOR,ML_XOR);
    00001C6C D021                   MOV.L       L2302+24,R0; H'41500000
    00001C6E E102                   MOV         #2,R1
    00001C70 D321                   MOV.L       L2302+28,R3; __adds
    00001C72 2F16                   MOV.L       R1,@-R15
    00001C74 2F16                   MOV.L       R1,@-R15
    00001C76 2FE6                   MOV.L       R14,@-R15
    00001C78 51F8                   MOV.L       @(32,R15),R1
    00001C7A 430B                   JSR         @R3
    00001C7C 0009                   NOP
    00001C7E D21F                   MOV.L       L2302+32,R2; __stoi
    00001C80 420B                   JSR         @R2
    00001C82 0009                   NOP
    00001C84 56F7                   MOV.L       @(28,R15),R6
    00001C86 6703                   MOV         R0,R7
    00001C88 D31C                   MOV.L       L2302+32,R3; __stoi
    00001C8A 760D                   ADD         #13,R6
    00001C8C 430B                   JSR         @R3
    00001C8E 50F8                   MOV.L       @(32,R15),R0
    00001C90 D317                   MOV.L       L2302+20,R3; _ML_rectangle
    00001C92 6503                   MOV         R0,R5
    00001C94 430B                   JSR         @R3
    00001C96 54F7                   MOV.L       @(28,R15),R4
          Menu.c   681    
          Menu.c   682                            ML_display_vram();
    00001C98 D219                   MOV.L       L2302+36,R2; _ML_display_vram
    00001C9A 420B                   JSR         @R2
    00001C9C 7F0C                   ADD         #12,R15
          Menu.c   683    
          Menu.c   684                            if (IsKeyDown(KEY_CTRL_LEFT) && u != 4 && leftDown == 0) u -= 21, leftDown = 1,a--
                         +;
    00001C9E 941D                   MOV.W       L2302,R4   ; H'7544
    00001CA0 490B                   JSR         @R9
    00001CA2 0009                   NOP
    00001CA4 2008                   TST         R0,R0
    00001CA6 890C                   BT          L1868
    00001CA8 50F4                   MOV.L       @(16,R15),R0
    00001CAA 8804                   CMP/EQ      #4,R0




SH SERIES C/C++ Compiler (Ver. 6.0C)                                                                 30-Jan-2015 21:53:33  PAGE   81


SCT OFFSET   CODE       C LABEL     INSTRUCTION OPERAND    COMMENT

    00001CAC 8909                   BT          L1868
    00001CAE E04C                   MOV         #76,R0
    00001CB0 02FE                   MOV.L       @(R0,R15),R2
    00001CB2 2228                   TST         R2,R2
    00001CB4 8B05                   BF          L1868
    00001CB6 E04C                   MOV         #76,R0
    00001CB8 53F4                   MOV.L       @(16,R15),R3
    00001CBA 78FF                   ADD         #-1,R8
    00001CBC 73EB                   ADD         #-21,R3
    00001CBE 1F34                   MOV.L       R3,@(16,R15)
    00001CC0 0FE6                   MOV.L       R14,@(R0,R15)
    00001CC2              L1868:                            
          Menu.c   685                            if (IsKeyDown(KEY_CTRL_RIGHT) && u != 109 && rightDown == 0) u += 21, rightDown = 
                         +1,a++;
    00001CC2 940C                   MOV.W       L2302+2,R4 ; H'7545
    00001CC4 490B                   JSR         @R9
    00001CC6 0009                   NOP
    00001CC8 2008                   TST         R0,R0
    00001CCA 8922                   BT          L1869
    00001CCC 50F4                   MOV.L       @(16,R15),R0
    00001CCE 886D                   CMP/EQ      #109,R0
    00001CD0 891F                   BT          L1869
    00001CD2 E050                   MOV         #80,R0
    00001CD4 02FE                   MOV.L       @(R0,R15),R2
    00001CD6 2228                   TST         R2,R2
    00001CD8 A014                   BRA         L2230
    00001CDA 0009                   NOP
    00001CDC              L2302:                            
    00001CDC 7544                   .DATA.W     H'7544
    00001CDE 7545                   .DATA.W     H'7545
    00001CE0 41800000               .DATA.L     H'41800000
    00001CE4 <00000000>             .DATA.L     _ML_clear_vram
    00001CE8 <00000000>             .DATA.L     __$gadgets
    00001CEC <00000000>             .DATA.L     _ML_bmp_16_or
    00001CF0 <00000000>             .DATA.L     _ML_rectangle
    00001CF4 41500000               .DATA.L     H'41500000
    00001CF8 <00000000>             .DATA.L     __adds
    00001CFC <00000000>             .DATA.L     __stoi
    00001D00 <00000000>             .DATA.L     _ML_display_vram
    00001D04              L2230:                            
    00001D04 8B05                   BF          L1869
    00001D06 E050                   MOV         #80,R0
    00001D08 53F4                   MOV.L       @(16,R15),R3
    00001D0A 7801                   ADD         #1,R8
    00001D0C 7315                   ADD         #21,R3
    00001D0E 1F34                   MOV.L       R3,@(16,R15)
    00001D10 0FE6                   MOV.L       R14,@(R0,R15)
    00001D12              L1869:                            
          Menu.c   686                            if (IsKeyDown(KEY_CTRL_UP) && v != 16 && plusDown == 0) v -= 20, plusDown = 1,b--;
    00001D12 9463                   MOV.W       L2303,R4   ; H'7542
    00001D14 490B                   JSR         @R9
    00001D16 0009                   NOP
    00001D18 2008                   TST         R0,R0
    00001D1A 8913                   BT          L1870
    00001D1C 51F5                   MOV.L       @(20,R15),R1
    00001D1E D031                   MOV.L       L2303+8,R0 ; H'41800000
    00001D20 D231                   MOV.L       L2303+12,R2; __eqs




SH SERIES C/C++ Compiler (Ver. 6.0C)                                                                 30-Jan-2015 21:53:33  PAGE   82


SCT OFFSET   CODE       C LABEL     INSTRUCTION OPERAND    COMMENT

    00001D22 420B                   JSR         @R2
    00001D24 0009                   NOP
    00001D26 8800                   CMP/EQ      #0,R0
    00001D28 8B0C                   BF          L1870
    00001D2A 53FC                   MOV.L       @(48,R15),R3
    00001D2C 2338                   TST         R3,R3
    00001D2E 8B09                   BF          L1870
    00001D30 D02E                   MOV.L       L2303+16,R0; H'41A00000
    00001D32 51F5                   MOV.L       @(20,R15),R1
    00001D34 D32E                   MOV.L       L2303+20,R3; __subs
    00001D36 430B                   JSR         @R3
    00001D38 0009                   NOP
    00001D3A 1F05                   MOV.L       R0,@(20,R15)
    00001D3C 1FEC                   MOV.L       R14,@(48,R15)
    00001D3E 53F1                   MOV.L       @(4,R15),R3
    00001D40 73FF                   ADD         #-1,R3
    00001D42 1F31                   MOV.L       R3,@(4,R15)
    00001D44              L1870:                            
          Menu.c   687                            if (IsKeyDown(KEY_CTRL_DOWN) && v != 36 && minusDown == 0) v += 20, minusDown = 1,
                         +b++;
    00001D44 944B                   MOV.W       L2303+2,R4 ; H'7547
    00001D46 490B                   JSR         @R9
    00001D48 0009                   NOP
    00001D4A 2008                   TST         R0,R0
    00001D4C 8913                   BT          L1871
    00001D4E 51F5                   MOV.L       @(20,R15),R1
    00001D50 D028                   MOV.L       L2303+24,R0; H'42100000
    00001D52 D225                   MOV.L       L2303+12,R2; __eqs
    00001D54 420B                   JSR         @R2
    00001D56 0009                   NOP
    00001D58 8800                   CMP/EQ      #0,R0
    00001D5A 8B0C                   BF          L1871
    00001D5C 53FB                   MOV.L       @(44,R15),R3
    00001D5E 2338                   TST         R3,R3
    00001D60 8B09                   BF          L1871
    00001D62 D022                   MOV.L       L2303+16,R0; H'41A00000
    00001D64 51F5                   MOV.L       @(20,R15),R1
    00001D66 D324                   MOV.L       L2303+28,R3; __adds
    00001D68 430B                   JSR         @R3
    00001D6A 0009                   NOP
    00001D6C 1F05                   MOV.L       R0,@(20,R15)
    00001D6E 1FEB                   MOV.L       R14,@(44,R15)
    00001D70 53F1                   MOV.L       @(4,R15),R3
    00001D72 7301                   ADD         #1,R3
    00001D74 1F31                   MOV.L       R3,@(4,R15)
    00001D76              L1871:                            
          Menu.c   688    
          Menu.c   689                            if (IsKeyUp(KEY_CTRL_LEFT)) leftDown = 0;
    00001D76 9433                   MOV.W       L2303+4,R4 ; H'7544
    00001D78 4B0B                   JSR         @R11
    00001D7A 0009                   NOP
    00001D7C 2008                   TST         R0,R0
    00001D7E 8901                   BT          L1872
    00001D80 E04C                   MOV         #76,R0
    00001D82 0FC6                   MOV.L       R12,@(R0,R15)
    00001D84              L1872:                            
          Menu.c   690                            if (IsKeyUp(KEY_CTRL_RIGHT)) rightDown = 0;




SH SERIES C/C++ Compiler (Ver. 6.0C)                                                                 30-Jan-2015 21:53:33  PAGE   83


SCT OFFSET   CODE       C LABEL     INSTRUCTION OPERAND    COMMENT

    00001D84 942D                   MOV.W       L2303+6,R4 ; H'7545
    00001D86 4B0B                   JSR         @R11
    00001D88 0009                   NOP
    00001D8A 2008                   TST         R0,R0
    00001D8C 8901                   BT          L1873
    00001D8E E050                   MOV         #80,R0
    00001D90 0FC6                   MOV.L       R12,@(R0,R15)
    00001D92              L1873:                            
          Menu.c   691                            if (IsKeyUp(KEY_CTRL_UP)) plusDown = 0;
    00001D92 9423                   MOV.W       L2303,R4   ; H'7542
    00001D94 4B0B                   JSR         @R11
    00001D96 0009                   NOP
    00001D98 2008                   TST         R0,R0
    00001D9A 8900                   BT          L1874
    00001D9C 1FCC                   MOV.L       R12,@(48,R15)
    00001D9E              L1874:                            
          Menu.c   692                            if (IsKeyUp(KEY_CTRL_DOWN)) minusDown = 0;
    00001D9E 941E                   MOV.W       L2303+2,R4 ; H'7547
    00001DA0 4B0B                   JSR         @R11
    00001DA2 0009                   NOP
    00001DA4 2008                   TST         R0,R0
    00001DA6 8D01                   BT/S        L1875
          Menu.c   693                            if (IsKeyUp(KEY_CTRL_EXE)) exeDown = 0;
    00001DA8 64A3                   MOV         R10,R4
    00001DAA 1FCB                   MOV.L       R12,@(44,R15)
    00001DAC              L1875:                            
    00001DAC 4B0B                   JSR         @R11
    00001DAE 0009                   NOP
    00001DB0 2008                   TST         R0,R0
    00001DB2 8D02                   BT/S        L1876
          Menu.c   694    
          Menu.c   695                            if (IsKeyDown(KEY_CTRL_EXE) && exeDown == 0 && ((b==1?a:a+6) < (gadgetsCount+1)*2)
                         +)
    00001DB4 64A3                   MOV         R10,R4
    00001DB6 E054                   MOV         #84,R0
    00001DB8 0FC6                   MOV.L       R12,@(R0,R15)
    00001DBA              L1876:                            
    00001DBA 490B                   JSR         @R9
    00001DBC 0009                   NOP
    00001DBE 2008                   TST         R0,R0
    00001DC0 8B01                   BF          L2304
    00001DC2 A089                   BRA         L1877
    00001DC4 0009                   NOP
    00001DC6              L2304:                            
    00001DC6 E054                   MOV         #84,R0
    00001DC8 02FE                   MOV.L       @(R0,R15),R2
    00001DCA 2228                   TST         R2,R2
    00001DCC 8901                   BT          L2305
    00001DCE A083                   BRA         L1877
    00001DD0 0009                   NOP
    00001DD2              L2305:                            
    00001DD2 50F1                   MOV.L       @(4,R15),R0
    00001DD4 8801                   CMP/EQ      #1,R0
    00001DD6 8B11                   BF          L1878
    00001DD8 A012                   BRA         L1879
    00001DDA 6383                   MOV         R8,R3
    00001DDC              L2303:                            




SH SERIES C/C++ Compiler (Ver. 6.0C)                                                                 30-Jan-2015 21:53:33  PAGE   84


SCT OFFSET   CODE       C LABEL     INSTRUCTION OPERAND    COMMENT

    00001DDC 7542                   .DATA.W     H'7542
    00001DDE 7547                   .DATA.W     H'7547
    00001DE0 7544                   .DATA.W     H'7544
    00001DE2 7545                   .DATA.W     H'7545
    00001DE4 41800000               .DATA.L     H'41800000
    00001DE8 <00000000>             .DATA.L     __eqs
    00001DEC 41A00000               .DATA.L     H'41A00000
    00001DF0 <00000000>             .DATA.L     __subs
    00001DF4 42100000               .DATA.L     H'42100000
    00001DF8 <00000000>             .DATA.L     __adds
    00001DFC              L1878:                            
    00001DFC 6383                   MOV         R8,R3
    00001DFE 7306                   ADD         #6,R3
    00001E00              L1879:                            
    00001E00 E048                   MOV         #72,R0
    00001E02 01FE                   MOV.L       @(R0,R15),R1
    00001E04 3313                   CMP/GE      R1,R3
    00001E06 8967                   BT          L1877
          Menu.c   696                            {
          Menu.c   697                                ML_rectangle(0,0,128,64,1,ML_BLACK,ML_BLACK);
    00001E08 2FE6                   MOV.L       R14,@-R15
    00001E0A E740                   MOV         #64,R7
    00001E0C D239                   MOV.L       L2306+10,R2; _ML_rectangle
    00001E0E E500                   MOV         #0,R5
    00001E10 2FE6                   MOV.L       R14,@-R15
    00001E12 6673                   MOV         R7,R6
    00001E14 2FE6                   MOV.L       R14,@-R15
    00001E16 7640                   ADD         #64,R6
    00001E18 420B                   JSR         @R2
    00001E1A 6453                   MOV         R5,R4
          Menu.c   698                                exeDown = 1;
    00001E1C 1FE3                   MOV.L       R14,@(12,R15)
          Menu.c   699                                ML_rectangle(5,5,123,59,1,ML_BLACK,ML_WHITE);
    00001E1E E300                   MOV         #0,R3
    00001E20 D234                   MOV.L       L2306+10,R2; _ML_rectangle
    00001E22 E73B                   MOV         #59,R7
    00001E24 2F36                   MOV.L       R3,@-R15
    00001E26 E67B                   MOV         #123,R6
    00001E28 2FE6                   MOV.L       R14,@-R15
    00001E2A E505                   MOV         #5,R5
    00001E2C 2FE6                   MOV.L       R14,@-R15
    00001E2E 420B                   JSR         @R2
    00001E30 6453                   MOV         R5,R4
    00001E32 7F18                   ADD         #24,R15
          Menu.c   700                                PrintMini(10,10,gadgetsNames[b==1?a:a+6],0);
    00001E34 50F1                   MOV.L       @(4,R15),R0
    00001E36 8801                   CMP/EQ      #1,R0
    00001E38 8F02                   BF/S        L1880
    00001E3A E700                   MOV         #0,R7
    00001E3C A002                   BRA         L1881
    00001E3E 6683                   MOV         R8,R6
    00001E40              L1880:                            
    00001E40 6683                   MOV         R8,R6
    00001E42 7606                   ADD         #6,R6
    00001E44              L1881:                            
    00001E44 9251                   MOV.W       L2306,R2   ; H'00FC
    00001E46 E50A                   MOV         #10,R5




SH SERIES C/C++ Compiler (Ver. 6.0C)                                                                 30-Jan-2015 21:53:33  PAGE   85


SCT OFFSET   CODE       C LABEL     INSTRUCTION OPERAND    COMMENT

    00001E48 4608                   SHLL2       R6
    00001E4A 32FC                   ADD         R15,R2
    00001E4C 362C                   ADD         R2,R6
    00001E4E 6662                   MOV.L       @R6,R6
    00001E50 4D0B                   JSR         @R13
    00001E52 6453                   MOV         R5,R4
          Menu.c   701                                PrintMini(10,25,gadgetDesc1[b==1?a:a+6],0);
    00001E54 50F1                   MOV.L       @(4,R15),R0
    00001E56 8801                   CMP/EQ      #1,R0
    00001E58 8F02                   BF/S        L1882
    00001E5A E700                   MOV         #0,R7
    00001E5C A002                   BRA         L1883
    00001E5E 6683                   MOV         R8,R6
    00001E60              L1882:                            
    00001E60 6683                   MOV         R8,R6
    00001E62 7606                   ADD         #6,R6
    00001E64              L1883:                            
    00001E64 9242                   MOV.W       L2306+2,R2 ; H'00CC
    00001E66 E519                   MOV         #25,R5
    00001E68 4608                   SHLL2       R6
    00001E6A 32FC                   ADD         R15,R2
    00001E6C 362C                   ADD         R2,R6
    00001E6E 6662                   MOV.L       @R6,R6
    00001E70 4D0B                   JSR         @R13
    00001E72 E40A                   MOV         #10,R4
          Menu.c   702                                PrintMini(10,35,gadgetDesc2[b==1?a:a+6],0);
    00001E74 50F1                   MOV.L       @(4,R15),R0
    00001E76 8801                   CMP/EQ      #1,R0
    00001E78 8F02                   BF/S        L1884
    00001E7A E700                   MOV         #0,R7
    00001E7C A002                   BRA         L1885
    00001E7E 6683                   MOV         R8,R6
    00001E80              L1884:                            
    00001E80 6683                   MOV         R8,R6
    00001E82 7606                   ADD         #6,R6
    00001E84              L1885:                            
    00001E84 9233                   MOV.W       L2306+4,R2 ; H'009C
    00001E86 E523                   MOV         #35,R5
    00001E88 4608                   SHLL2       R6
    00001E8A 32FC                   ADD         R15,R2
    00001E8C 362C                   ADD         R2,R6
    00001E8E 6662                   MOV.L       @R6,R6
    00001E90 4D0B                   JSR         @R13
    00001E92 E40A                   MOV         #10,R4
          Menu.c   703                                PrintMini(10,45,gadgetDesc3[b==1?a:a+6],0);
    00001E94 50F1                   MOV.L       @(4,R15),R0
    00001E96 8801                   CMP/EQ      #1,R0
    00001E98 8F02                   BF/S        L1886
    00001E9A E700                   MOV         #0,R7
    00001E9C A002                   BRA         L1887
    00001E9E 6683                   MOV         R8,R6
    00001EA0              L1886:                            
    00001EA0 6683                   MOV         R8,R6
    00001EA2 7606                   ADD         #6,R6
    00001EA4              L1887:                            
    00001EA4 4608                   SHLL2       R6
    00001EA6 62F3                   MOV         R15,R2




SH SERIES C/C++ Compiler (Ver. 6.0C)                                                                 30-Jan-2015 21:53:33  PAGE   86


SCT OFFSET   CODE       C LABEL     INSTRUCTION OPERAND    COMMENT

    00001EA8 726C                   ADD         #108,R2
    00001EAA 362C                   ADD         R2,R6
    00001EAC 6662                   MOV.L       @R6,R6
    00001EAE E52D                   MOV         #45,R5
    00001EB0 4D0B                   JSR         @R13
    00001EB2 E40A                   MOV         #10,R4
          Menu.c   704                                ML_display_vram();
    00001EB4 D310                   MOV.L       L2306+14,R3; _ML_display_vram
    00001EB6 430B                   JSR         @R3
    00001EB8 0009                   NOP
          Menu.c   705                                do
    00001EBA              L1888:                            
          Menu.c   706                                {
          Menu.c   707                                    if (IsKeyUp(KEY_CTRL_EXE)) exeDown = 0;
    00001EBA 4B0B                   JSR         @R11
    00001EBC 64A3                   MOV         R10,R4
    00001EBE 2008                   TST         R0,R0
    00001EC0 8D01                   BT/S        L1889
          Menu.c   708                                }while(IsKeyUp(KEY_CTRL_EXE) || exeDown == 1);
    00001EC2 64A3                   MOV         R10,R4
    00001EC4 2FC2                   MOV.L       R12,@R15
    00001EC6              L1889:                            
    00001EC6 4B0B                   JSR         @R11
    00001EC8 0009                   NOP
    00001ECA 2008                   TST         R0,R0
    00001ECC 8BF5                   BF          L1888
    00001ECE 60F2                   MOV.L       @R15,R0
    00001ED0 8801                   CMP/EQ      #1,R0
    00001ED2 89F2                   BT          L1888
          Menu.c   709                                exeDown = 1;
    00001ED4 E054                   MOV         #84,R0
    00001ED6 0FE6                   MOV.L       R14,@(R0,R15)
    00001ED8              L1877:                            
          Menu.c   710                            }
          Menu.c   711    
          Menu.c   712                        }while (IsKeyUp(KEY_CTRL_EXIT));
    00001ED8 940A                   MOV.W       L2306+6,R4 ; H'7532
    00001EDA 4B0B                   JSR         @R11
    00001EDC 0009                   NOP
    00001EDE 2008                   TST         R0,R0
    00001EE0 8901                   BT          L2307
    00001EE2 AE76                   BRA         L1864
    00001EE4 0009                   NOP
    00001EE6              L2307:                            
          Menu.c   713                break;
    00001EE6 A2A3                   BRA         L1844
    00001EE8 0009                   NOP
    00001EEA              L2306:                            
    00001EEA 00FC                   .DATA.W     H'00FC
    00001EEC 00CC                   .DATA.W     H'00CC
    00001EEE 009C                   .DATA.W     H'009C
    00001EF0 7532                   .DATA.W     H'7532
    00001EF2 0000                   .DATA.W     0
    00001EF4 <00000000>             .DATA.L     _ML_rectangle
    00001EF8 <00000000>             .DATA.L     _ML_display_vram
    00001EFC              L1406:                           ; case label 
          Menu.c   714                case 40:




SH SERIES C/C++ Compiler (Ver. 6.0C)                                                                 30-Jan-2015 21:53:33  PAGE   87


SCT OFFSET   CODE       C LABEL     INSTRUCTION OPERAND    COMMENT

          Menu.c   715                    v = 0.0;
    00001EFC E800                   MOV         #0,R8
          Menu.c   716                    do
    00001EFE              L1890:                            
          Menu.c   717                    {
          Menu.c   718                        ML_clear_vram();
    00001EFE D38E                   MOV.L       L2308,R3   ; _ML_clear_vram
    00001F00 430B                   JSR         @R3
    00001F02 0009                   NOP
          Menu.c   719    
          Menu.c   720                        PrintMini(35,v+5,"=== CREDITS ===",0);
    00001F04 D68D                   MOV.L       L2308+4,R6 ; L855
    00001F06 E700                   MOV         #0,R7
    00001F08 D08D                   MOV.L       L2308+8,R0 ; H'40A00000
    00001F0A D28E                   MOV.L       L2308+12,R2; __adds
    00001F0C 420B                   JSR         @R2
    00001F0E 6183                   MOV         R8,R1
    00001F10 D38D                   MOV.L       L2308+16,R3; __stoi
    00001F12 430B                   JSR         @R3
    00001F14 0009                   NOP
    00001F16 6503                   MOV         R0,R5
    00001F18 4D0B                   JSR         @R13
    00001F1A E423                   MOV         #35,R4
          Menu.c   721                        PrintMini(0,v+20,"PROJET :",0);
    00001F1C D68B                   MOV.L       L2308+20,R6; L856
    00001F1E E700                   MOV         #0,R7
    00001F20 D08B                   MOV.L       L2308+24,R0; H'41A00000
    00001F22 D288                   MOV.L       L2308+12,R2; __adds
    00001F24 420B                   JSR         @R2
    00001F26 6183                   MOV         R8,R1
    00001F28 D387                   MOV.L       L2308+16,R3; __stoi
    00001F2A 430B                   JSR         @R3
    00001F2C 0009                   NOP
    00001F2E 6503                   MOV         R0,R5
    00001F30 4D0B                   JSR         @R13
    00001F32 6473                   MOV         R7,R4
          Menu.c   722                        PrintMini(0,v+35,"DEVELOPPEUR : DRAKALEX007",0);
    00001F34 D687                   MOV.L       L2308+28,R6; L857
    00001F36 E700                   MOV         #0,R7
    00001F38 D087                   MOV.L       L2308+32,R0; H'420C0000
    00001F3A D282                   MOV.L       L2308+12,R2; __adds
    00001F3C 420B                   JSR         @R2
    00001F3E 6183                   MOV         R8,R1
    00001F40 D381                   MOV.L       L2308+16,R3; __stoi
    00001F42 430B                   JSR         @R3
    00001F44 0009                   NOP
    00001F46 6503                   MOV         R0,R5
    00001F48 4D0B                   JSR         @R13
    00001F4A 6473                   MOV         R7,R4
          Menu.c   723                        PrintMini(0,v+45,"GRAPHISTE : DRAKALEX007",0);
    00001F4C D683                   MOV.L       L2308+36,R6; L858
    00001F4E E700                   MOV         #0,R7
    00001F50 D083                   MOV.L       L2308+40,R0; H'42340000
    00001F52 D27C                   MOV.L       L2308+12,R2; __adds
    00001F54 420B                   JSR         @R2
    00001F56 6183                   MOV         R8,R1
    00001F58 D37B                   MOV.L       L2308+16,R3; __stoi




SH SERIES C/C++ Compiler (Ver. 6.0C)                                                                 30-Jan-2015 21:53:33  PAGE   88


SCT OFFSET   CODE       C LABEL     INSTRUCTION OPERAND    COMMENT

    00001F5A 430B                   JSR         @R3
    00001F5C 0009                   NOP
    00001F5E 6503                   MOV         R0,R5
    00001F60 4D0B                   JSR         @R13
    00001F62 6473                   MOV         R7,R4
          Menu.c   724                        PrintMini(0,v+55,"LANCEMENT DU PROJET : 06/06/14",0);
    00001F64 D67F                   MOV.L       L2308+44,R6; L859
    00001F66 E700                   MOV         #0,R7
    00001F68 D07F                   MOV.L       L2308+48,R0; H'425C0000
    00001F6A D276                   MOV.L       L2308+12,R2; __adds
    00001F6C 420B                   JSR         @R2
    00001F6E 6183                   MOV         R8,R1
    00001F70 D375                   MOV.L       L2308+16,R3; __stoi
    00001F72 430B                   JSR         @R3
    00001F74 0009                   NOP
    00001F76 6503                   MOV         R0,R5
    00001F78 4D0B                   JSR         @R13
    00001F7A 6473                   MOV         R7,R4
          Menu.c   725                        PrintMini(0,v+65,"SORTIE DU JEU : 20/01/2015",0);
    00001F7C D67B                   MOV.L       L2308+52,R6; L860
    00001F7E E700                   MOV         #0,R7
    00001F80 D07B                   MOV.L       L2308+56,R0; H'42820000
    00001F82 D270                   MOV.L       L2308+12,R2; __adds
    00001F84 420B                   JSR         @R2
    00001F86 6183                   MOV         R8,R1
    00001F88 D36F                   MOV.L       L2308+16,R3; __stoi
    00001F8A 430B                   JSR         @R3
    00001F8C 0009                   NOP
    00001F8E 6503                   MOV         R0,R5
    00001F90 4D0B                   JSR         @R13
    00001F92 6473                   MOV         R7,R4
          Menu.c   726                        PrintMini(0,v+80,"INFORMATIONS :",0);
    00001F94 D677                   MOV.L       L2308+60,R6; L861
    00001F96 E700                   MOV         #0,R7
    00001F98 D077                   MOV.L       L2308+64,R0; H'42A00000
    00001F9A D26A                   MOV.L       L2308+12,R2; __adds
    00001F9C 420B                   JSR         @R2
    00001F9E 6183                   MOV         R8,R1
    00001FA0 D369                   MOV.L       L2308+16,R3; __stoi
    00001FA2 430B                   JSR         @R3
    00001FA4 0009                   NOP
    00001FA6 6503                   MOV         R0,R5
    00001FA8 4D0B                   JSR         @R13
    00001FAA 6473                   MOV         R7,R4
          Menu.c   727                        PrintMini(0,v+95,"LIGNES DE CODE : 3692",0);
    00001FAC D673                   MOV.L       L2308+68,R6; L862
    00001FAE E700                   MOV         #0,R7
    00001FB0 D073                   MOV.L       L2308+72,R0; H'42BE0000
    00001FB2 D264                   MOV.L       L2308+12,R2; __adds
    00001FB4 420B                   JSR         @R2
    00001FB6 6183                   MOV         R8,R1
    00001FB8 D363                   MOV.L       L2308+16,R3; __stoi
    00001FBA 430B                   JSR         @R3
    00001FBC 0009                   NOP
    00001FBE 6503                   MOV         R0,R5
    00001FC0 4D0B                   JSR         @R13
    00001FC2 6473                   MOV         R7,R4




SH SERIES C/C++ Compiler (Ver. 6.0C)                                                                 30-Jan-2015 21:53:33  PAGE   89


SCT OFFSET   CODE       C LABEL     INSTRUCTION OPERAND    COMMENT

          Menu.c   728                        PrintMini(0,v+105,"SPRITES : 364",0);
    00001FC4 D66F                   MOV.L       L2308+76,R6; L863
    00001FC6 E700                   MOV         #0,R7
    00001FC8 D06F                   MOV.L       L2308+80,R0; H'42D20000
    00001FCA D25E                   MOV.L       L2308+12,R2; __adds
    00001FCC 420B                   JSR         @R2
    00001FCE 6183                   MOV         R8,R1
    00001FD0 D35D                   MOV.L       L2308+16,R3; __stoi
    00001FD2 430B                   JSR         @R3
    00001FD4 0009                   NOP
    00001FD6 6503                   MOV         R0,R5
    00001FD8 4D0B                   JSR         @R13
    00001FDA 6473                   MOV         R7,R4
          Menu.c   729                        PrintMini(0,v+120,"REMERCIEMENTS SPECIAUX :",0);
    00001FDC D66B                   MOV.L       L2308+84,R6; L864
    00001FDE E700                   MOV         #0,R7
    00001FE0 D06B                   MOV.L       L2308+88,R0; H'42F00000
    00001FE2 D258                   MOV.L       L2308+12,R2; __adds
    00001FE4 420B                   JSR         @R2
    00001FE6 6183                   MOV         R8,R1
    00001FE8 D357                   MOV.L       L2308+16,R3; __stoi
    00001FEA 430B                   JSR         @R3
    00001FEC 0009                   NOP
    00001FEE 6503                   MOV         R0,R5
    00001FF0 4D0B                   JSR         @R13
    00001FF2 6473                   MOV         R7,R4
          Menu.c   730                        PrintMini(0,v+135,"LEPHENIXNOIR !",0);
    00001FF4 D667                   MOV.L       L2308+92,R6; L865
    00001FF6 E700                   MOV         #0,R7
    00001FF8 D067                   MOV.L       L2308+96,R0; H'43070000
    00001FFA D252                   MOV.L       L2308+12,R2; __adds
    00001FFC 420B                   JSR         @R2
    00001FFE 6183                   MOV         R8,R1
    00002000 D351                   MOV.L       L2308+16,R3; __stoi
    00002002 430B                   JSR         @R3
    00002004 0009                   NOP
    00002006 6503                   MOV         R0,R5
    00002008 4D0B                   JSR         @R13
    0000200A 6473                   MOV         R7,R4
          Menu.c   731                        PrintMini(0,v+145,"DARKSTORM",0);
    0000200C D663                   MOV.L       L2308+100,R6; L866
    0000200E E700                   MOV         #0,R7
    00002010 D063                   MOV.L       L2308+104,R0; H'43110000
    00002012 D24C                   MOV.L       L2308+12,R2; __adds
    00002014 420B                   JSR         @R2
    00002016 6183                   MOV         R8,R1
    00002018 D34B                   MOV.L       L2308+16,R3; __stoi
    0000201A 430B                   JSR         @R3
    0000201C 0009                   NOP
    0000201E 6503                   MOV         R0,R5
    00002020 4D0B                   JSR         @R13
    00002022 6473                   MOV         R7,R4
          Menu.c   732                        PrintMini(0,v+155,"EIYERON",0);
    00002024 D65F                   MOV.L       L2308+108,R6; L867
    00002026 E700                   MOV         #0,R7
    00002028 D05F                   MOV.L       L2308+112,R0; H'431B0000
    0000202A D246                   MOV.L       L2308+12,R2; __adds




SH SERIES C/C++ Compiler (Ver. 6.0C)                                                                 30-Jan-2015 21:53:33  PAGE   90


SCT OFFSET   CODE       C LABEL     INSTRUCTION OPERAND    COMMENT

    0000202C 420B                   JSR         @R2
    0000202E 6183                   MOV         R8,R1
    00002030 D345                   MOV.L       L2308+16,R3; __stoi
    00002032 430B                   JSR         @R3
    00002034 0009                   NOP
    00002036 6503                   MOV         R0,R5
    00002038 4D0B                   JSR         @R13
    0000203A 6473                   MOV         R7,R4
          Menu.c   733                        PrintMini(0,v+165,"LA COMMUNAUTE PLANETE CASIO",0);
    0000203C D65B                   MOV.L       L2308+116,R6; L868
    0000203E E700                   MOV         #0,R7
    00002040 D05B                   MOV.L       L2308+120,R0; H'43250000
    00002042 D240                   MOV.L       L2308+12,R2; __adds
    00002044 420B                   JSR         @R2
    00002046 6183                   MOV         R8,R1
    00002048 D33F                   MOV.L       L2308+16,R3; __stoi
    0000204A 430B                   JSR         @R3
    0000204C 0009                   NOP
    0000204E 6503                   MOV         R0,R5
    00002050 4D0B                   JSR         @R13
    00002052 6473                   MOV         R7,R4
          Menu.c   734                        PrintMini(0,v+175,"POUR SON SOUTIEN :",0);
    00002054 D657                   MOV.L       L2308+124,R6; L869
    00002056 E700                   MOV         #0,R7
    00002058 D057                   MOV.L       L2308+128,R0; H'432F0000
    0000205A D23A                   MOV.L       L2308+12,R2; __adds
    0000205C 420B                   JSR         @R2
    0000205E 6183                   MOV         R8,R1
    00002060 D339                   MOV.L       L2308+16,R3; __stoi
    00002062 430B                   JSR         @R3
    00002064 0009                   NOP
    00002066 6503                   MOV         R0,R5
    00002068 4D0B                   JSR         @R13
    0000206A 6473                   MOV         R7,R4
          Menu.c   735                        PrintMini(0,v+185,"WWW.PLANET-CASIO.COM",0);
    0000206C D653                   MOV.L       L2308+132,R6; L870
    0000206E E700                   MOV         #0,R7
    00002070 D053                   MOV.L       L2308+136,R0; H'43390000
    00002072 D234                   MOV.L       L2308+12,R2; __adds
    00002074 420B                   JSR         @R2
    00002076 6183                   MOV         R8,R1
    00002078 D333                   MOV.L       L2308+16,R3; __stoi
    0000207A 430B                   JSR         @R3
    0000207C 0009                   NOP
    0000207E 6503                   MOV         R0,R5
    00002080 4D0B                   JSR         @R13
    00002082 6473                   MOV         R7,R4
          Menu.c   736                        PrintMini(0,v+200,"N'HESITEZ PAS A ALLER NOTER",0);
    00002084 D64F                   MOV.L       L2308+140,R6; L871
    00002086 E700                   MOV         #0,R7
    00002088 D04F                   MOV.L       L2308+144,R0; H'43480000
    0000208A D22E                   MOV.L       L2308+12,R2; __adds
    0000208C 420B                   JSR         @R2
    0000208E 6183                   MOV         R8,R1
    00002090 D32D                   MOV.L       L2308+16,R3; __stoi
    00002092 430B                   JSR         @R3
    00002094 0009                   NOP




SH SERIES C/C++ Compiler (Ver. 6.0C)                                                                 30-Jan-2015 21:53:33  PAGE   91


SCT OFFSET   CODE       C LABEL     INSTRUCTION OPERAND    COMMENT

    00002096 6503                   MOV         R0,R5
    00002098 4D0B                   JSR         @R13
    0000209A 6473                   MOV         R7,R4
          Menu.c   737                        PrintMini(0,v+210,"MON JEU SUR LE SITE !",0);
    0000209C D64B                   MOV.L       L2308+148,R6; L872
    0000209E E700                   MOV         #0,R7
    000020A0 D04B                   MOV.L       L2308+152,R0; H'43520000
    000020A2 D228                   MOV.L       L2308+12,R2; __adds
    000020A4 420B                   JSR         @R2
    000020A6 6183                   MOV         R8,R1
    000020A8 D327                   MOV.L       L2308+16,R3; __stoi
    000020AA 430B                   JSR         @R3
    000020AC 0009                   NOP
    000020AE 6503                   MOV         R0,R5
    000020B0 4D0B                   JSR         @R13
    000020B2 6473                   MOV         R7,R4
          Menu.c   738                        PrintMini(0,v+220,"AN ENGLISH VERSION OF THE",0);
    000020B4 D647                   MOV.L       L2308+156,R6; L873
    000020B6 E700                   MOV         #0,R7
    000020B8 D047                   MOV.L       L2308+160,R0; H'435C0000
    000020BA D222                   MOV.L       L2308+12,R2; __adds
    000020BC 420B                   JSR         @R2
    000020BE 6183                   MOV         R8,R1
    000020C0 D321                   MOV.L       L2308+16,R3; __stoi
    000020C2 430B                   JSR         @R3
    000020C4 0009                   NOP
    000020C6 6503                   MOV         R0,R5
    000020C8 4D0B                   JSR         @R13
    000020CA 6473                   MOV         R7,R4
          Menu.c   739                        PrintMini(0,v+230,"GAME AVAILABLE ON THE SITE !",0);
    000020CC D643                   MOV.L       L2308+164,R6; L874
    000020CE E700                   MOV         #0,R7
    000020D0 D043                   MOV.L       L2308+168,R0; H'43660000
    000020D2 D21C                   MOV.L       L2308+12,R2; __adds
    000020D4 420B                   JSR         @R2
    000020D6 6183                   MOV         R8,R1
    000020D8 D31B                   MOV.L       L2308+16,R3; __stoi
    000020DA 430B                   JSR         @R3
    000020DC 0009                   NOP
    000020DE 6503                   MOV         R0,R5
    000020E0 4D0B                   JSR         @R13
    000020E2 6473                   MOV         R7,R4
          Menu.c   740                        PrintMini(0,v+250,"BON COURS DE MATHS !",0);
    000020E4 D63F                   MOV.L       L2308+172,R6; L875
    000020E6 E700                   MOV         #0,R7
    000020E8 D03F                   MOV.L       L2308+176,R0; H'437A0000
    000020EA D216                   MOV.L       L2308+12,R2; __adds
    000020EC 420B                   JSR         @R2
    000020EE 6183                   MOV         R8,R1
    000020F0 D315                   MOV.L       L2308+16,R3; __stoi
    000020F2 430B                   JSR         @R3
    000020F4 0009                   NOP
    000020F6 6503                   MOV         R0,R5
    000020F8 4D0B                   JSR         @R13
    000020FA 6473                   MOV         R7,R4
          Menu.c   741                        PrintMini(98,v+260,"[EXIT]",0);
    000020FC D63B                   MOV.L       L2308+180,R6; L876




SH SERIES C/C++ Compiler (Ver. 6.0C)                                                                 30-Jan-2015 21:53:33  PAGE   92


SCT OFFSET   CODE       C LABEL     INSTRUCTION OPERAND    COMMENT

    000020FE E700                   MOV         #0,R7
    00002100 D03B                   MOV.L       L2308+184,R0; H'43820000
    00002102 D210                   MOV.L       L2308+12,R2; __adds
    00002104 420B                   JSR         @R2
    00002106 6183                   MOV         R8,R1
    00002108 D30F                   MOV.L       L2308+16,R3; __stoi
    0000210A 430B                   JSR         @R3
    0000210C 0009                   NOP
    0000210E 6503                   MOV         R0,R5
    00002110 4D0B                   JSR         @R13
    00002112 E462                   MOV         #98,R4
          Menu.c   742    
          Menu.c   743                        ML_display_vram();
    00002114 D237                   MOV.L       L2308+188,R2; _ML_display_vram
    00002116 420B                   JSR         @R2
    00002118 0009                   NOP
          Menu.c   744    
          Menu.c   745                        if (v>-205) v-=(IsKeyDown(KEY_CTRL_EXE)||IsKeyDown((KEY_CTRL_DOWN))?0.8:0.2);
    0000211A D037                   MOV.L       L2308+192,R0; H'C34D0000
    0000211C D337                   MOV.L       L2308+196,R3; __gts
    0000211E 430B                   JSR         @R3
    00002120 6183                   MOV         R8,R1
    00002122 8800                   CMP/EQ      #0,R0
    00002124 8B01                   BF          L2309
    00002126 A089                   BRA         L1891
    00002128 0009                   NOP
    0000212A              L2309:                            
    0000212A 7FF8                   ADD         #-8,R15
    0000212C 490B                   JSR         @R9
    0000212E 64A3                   MOV         R10,R4
    00002130 2008                   TST         R0,R0
    00002132 8B6A                   BF          L1893
    00002134 A064                   BRA         L2231
    00002136 0009                   NOP
    00002138              L2308:                            
    00002138 <00000000>             .DATA.L     _ML_clear_vram
    0000213C <00000000>             .DATA.L     L855
    00002140 40A00000               .DATA.L     H'40A00000
    00002144 <00000000>             .DATA.L     __adds
    00002148 <00000000>             .DATA.L     __stoi
    0000214C <00000000>             .DATA.L     L856
    00002150 41A00000               .DATA.L     H'41A00000
    00002154 <00000000>             .DATA.L     L857
    00002158 420C0000               .DATA.L     H'420C0000
    0000215C <00000000>             .DATA.L     L858
    00002160 42340000               .DATA.L     H'42340000
    00002164 <00000000>             .DATA.L     L859
    00002168 425C0000               .DATA.L     H'425C0000
    0000216C <00000000>             .DATA.L     L860
    00002170 42820000               .DATA.L     H'42820000
    00002174 <00000000>             .DATA.L     L861
    00002178 42A00000               .DATA.L     H'42A00000
    0000217C <00000000>             .DATA.L     L862
    00002180 42BE0000               .DATA.L     H'42BE0000
    00002184 <00000000>             .DATA.L     L863
    00002188 42D20000               .DATA.L     H'42D20000
    0000218C <00000000>             .DATA.L     L864




SH SERIES C/C++ Compiler (Ver. 6.0C)                                                                 30-Jan-2015 21:53:33  PAGE   93


SCT OFFSET   CODE       C LABEL     INSTRUCTION OPERAND    COMMENT

    00002190 42F00000               .DATA.L     H'42F00000
    00002194 <00000000>             .DATA.L     L865
    00002198 43070000               .DATA.L     H'43070000
    0000219C <00000000>             .DATA.L     L866
    000021A0 43110000               .DATA.L     H'43110000
    000021A4 <00000000>             .DATA.L     L867
    000021A8 431B0000               .DATA.L     H'431B0000
    000021AC <00000000>             .DATA.L     L868
    000021B0 43250000               .DATA.L     H'43250000
    000021B4 <00000000>             .DATA.L     L869
    000021B8 432F0000               .DATA.L     H'432F0000
    000021BC <00000000>             .DATA.L     L870
    000021C0 43390000               .DATA.L     H'43390000
    000021C4 <00000000>             .DATA.L     L871
    000021C8 43480000               .DATA.L     H'43480000
    000021CC <00000000>             .DATA.L     L872
    000021D0 43520000               .DATA.L     H'43520000
    000021D4 <00000000>             .DATA.L     L873
    000021D8 435C0000               .DATA.L     H'435C0000
    000021DC <00000000>             .DATA.L     L874
    000021E0 43660000               .DATA.L     H'43660000
    000021E4 <00000000>             .DATA.L     L875
    000021E8 437A0000               .DATA.L     H'437A0000
    000021EC <00000000>             .DATA.L     L876
    000021F0 43820000               .DATA.L     H'43820000
    000021F4 <00000000>             .DATA.L     _ML_display_vram
    000021F8 C34D0000               .DATA.L     H'C34D0000
    000021FC <00000000>             .DATA.L     __gts
    00002200              L2231:                            
    00002200 943F                   MOV.W       L2310,R4   ; H'7547
    00002202 490B                   JSR         @R9
    00002204 0009                   NOP
    00002206 2008                   TST         R0,R0
    00002208 8905                   BT          L1892
    0000220A              L1893:                            
    0000220A D21F                   MOV.L       L2310+6,R2 ; H'9999999A
    0000220C 2F26                   MOV.L       R2,@-R15
    0000220E D21F                   MOV.L       L2310+10,R2; H'3FE99999
    00002210 2F26                   MOV.L       R2,@-R15
    00002212 A004                   BRA         L1894
    00002214 0009                   NOP
    00002216              L1892:                            
    00002216 D31C                   MOV.L       L2310+6,R3 ; H'9999999A
    00002218 2F36                   MOV.L       R3,@-R15
    0000221A D31D                   MOV.L       L2310+14,R3; H'3FC99999
    0000221C 2F36                   MOV.L       R3,@-R15
    0000221E              L1894:                            
    0000221E 7FF8                   ADD         #-8,R15
    00002220 D11C                   MOV.L       L2310+18,R1; __stod
    00002222 6083                   MOV         R8,R0
    00002224 410B                   JSR         @R1
    00002226 2FF6                   MOV.L       R15,@-R15
    00002228 61F3                   MOV         R15,R1
    0000222A 7110                   ADD         #16,R1
    0000222C 2F16                   MOV.L       R1,@-R15
    0000222E D11A                   MOV.L       L2310+22,R1; __subd
    00002230 410B                   JSR         @R1




SH SERIES C/C++ Compiler (Ver. 6.0C)                                                                 30-Jan-2015 21:53:33  PAGE   94


SCT OFFSET   CODE       C LABEL     INSTRUCTION OPERAND    COMMENT

    00002232 0009                   NOP
    00002234 D119                   MOV.L       L2310+26,R1; __dtos
    00002236 410B                   JSR         @R1
    00002238 0009                   NOP
    0000223A 6803                   MOV         R0,R8
    0000223C              L1891:                            
          Menu.c   746                        if (IsKeyUp(KEY_CTRL_EXE)) exeDown = 0;
    0000223C 4B0B                   JSR         @R11
    0000223E 64A3                   MOV         R10,R4
    00002240 2008                   TST         R0,R0
    00002242 8901                   BT          L1895
    00002244 A001                   BRA         L1896
    00002246 2FC2                   MOV.L       R12,@R15
    00002248              L1895:                            
          Menu.c   747                        else exeDown = 1;
    00002248 2FE2                   MOV.L       R14,@R15
    0000224A              L1896:                            
          Menu.c   748                        if (IsKeyDown(KEY_CTRL_EXIT)) break;
    0000224A 941B                   MOV.W       L2310+2,R4 ; H'7532
    0000224C 490B                   JSR         @R9
    0000224E 0009                   NOP
    00002250 2008                   TST         R0,R0
    00002252 8901                   BT          L2311
    00002254 A0EC                   BRA         L1844
    00002256 0009                   NOP
    00002258              L2311:                            
          Menu.c   749                    }
          Menu.c   750                    while (IsKeyUp(KEY_CTRL_EXE) || exeDown == 1 || v>-175);
    00002258 4B0B                   JSR         @R11
    0000225A 64A3                   MOV         R10,R4
    0000225C 2008                   TST         R0,R0
    0000225E 8901                   BT          L2312
    00002260 AE4D                   BRA         L1890
    00002262 0009                   NOP
    00002264              L2312:                            
    00002264 60F2                   MOV.L       @R15,R0
    00002266 8801                   CMP/EQ      #1,R0
    00002268 8B01                   BF          L2313
    0000226A AE48                   BRA         L1890
    0000226C 0009                   NOP
    0000226E              L2313:                            
    0000226E D00C                   MOV.L       L2310+30,R0; H'C32F0000
    00002270 D20C                   MOV.L       L2310+34,R2; __gts
    00002272 420B                   JSR         @R2
    00002274 6183                   MOV         R8,R1
    00002276 8800                   CMP/EQ      #0,R0
    00002278 8901                   BT          L2314
    0000227A AE40                   BRA         L1890
    0000227C 0009                   NOP
    0000227E              L2314:                            
          Menu.c   751                    break;
    0000227E A0D7                   BRA         L1844
    00002280 0009                   NOP
    00002282              L2310:                            
    00002282 7547                   .DATA.W     H'7547
    00002284 7532                   .DATA.W     H'7532
    00002286 0000                   .DATA.W     0




SH SERIES C/C++ Compiler (Ver. 6.0C)                                                                 30-Jan-2015 21:53:33  PAGE   95


SCT OFFSET   CODE       C LABEL     INSTRUCTION OPERAND    COMMENT

    00002288 9999999A               .DATA.L     H'9999999A
    0000228C 3FE99999               .DATA.L     H'3FE99999
    00002290 3FC99999               .DATA.L     H'3FC99999
    00002294 <00000000>             .DATA.L     __stod
    00002298 <00000000>             .DATA.L     __subd
    0000229C <00000000>             .DATA.L     __dtos
    000022A0 C32F0000               .DATA.L     H'C32F0000
    000022A4 <00000000>             .DATA.L     __gts
    000022A8              L1429:                           ; case label 
          Menu.c   752                case 52:
          Menu.c   753                    u = 16;
    000022A8 E810                   MOV         #16,R8
          Menu.c   754                    do
    000022AA              L1899:                            
          Menu.c   755                    {
          Menu.c   756                        ML_clear_vram();
    000022AA D231                   MOV.L       L2315+4,R2 ; _ML_clear_vram
    000022AC 420B                   JSR         @R2
    000022AE 0009                   NOP
          Menu.c   757    
          Menu.c   758                        PrintMini(8,5,"ATTENTION: ETES VOUS SUR DE",0);
    000022B0 D630                   MOV.L       L2315+8,R6 ; L878
    000022B2 E505                   MOV         #5,R5
    000022B4 E700                   MOV         #0,R7
    000022B6 4D0B                   JSR         @R13
    000022B8 E408                   MOV         #8,R4
          Menu.c   759                        PrintMini(8,13,"  VOULOIR TOUT SUPPRIMER ?",0);
    000022BA E700                   MOV         #0,R7
    000022BC D62E                   MOV.L       L2315+12,R6; L879
    000022BE E50D                   MOV         #13,R5
    000022C0 4D0B                   JSR         @R13
    000022C2 E408                   MOV         #8,R4
          Menu.c   760                        PrintMini(8,21," TOUTES VOS DONNEES SERONT",0);
    000022C4 D62D                   MOV.L       L2315+16,R6; L880
    000022C6 E515                   MOV         #21,R5
    000022C8 E700                   MOV         #0,R7
    000022CA 4D0B                   JSR         @R13
    000022CC E408                   MOV         #8,R4
          Menu.c   761                        PrintMini(8,29,"      REINITIALISEES.",0);
    000022CE E700                   MOV         #0,R7
    000022D0 D62B                   MOV.L       L2315+20,R6; L881
    000022D2 E51D                   MOV         #29,R5
    000022D4 4D0B                   JSR         @R13
    000022D6 E408                   MOV         #8,R4
          Menu.c   762                        PrintMini(20,47,"ANNULER",0);
    000022D8 D62A                   MOV.L       L2315+24,R6; L882
    000022DA E52F                   MOV         #47,R5
    000022DC E700                   MOV         #0,R7
    000022DE 4D0B                   JSR         @R13
    000022E0 E414                   MOV         #20,R4
          Menu.c   763                        PrintMini(89,47,"OUI",0);
    000022E2 E700                   MOV         #0,R7
    000022E4 D628                   MOV.L       L2315+28,R6; L883
    000022E6 E52F                   MOV         #47,R5
    000022E8 4D0B                   JSR         @R13
    000022EA E459                   MOV         #89,R4
          Menu.c   764    




SH SERIES C/C++ Compiler (Ver. 6.0C)                                                                 30-Jan-2015 21:53:33  PAGE   96


SCT OFFSET   CODE       C LABEL     INSTRUCTION OPERAND    COMMENT

          Menu.c   765                        ML_rectangle(3,2,124,36,1,ML_BLACK,ML_TRANSPARENT);
    000022EC D227                   MOV.L       L2315+32,R2; _ML_rectangle
    000022EE E3FF                   MOV         #-1,R3
    000022F0 2F36                   MOV.L       R3,@-R15
    000022F2 E724                   MOV         #36,R7
    000022F4 2FE6                   MOV.L       R14,@-R15
    000022F6 E67C                   MOV         #124,R6
    000022F8 2FE6                   MOV.L       R14,@-R15
    000022FA E502                   MOV         #2,R5
    000022FC 420B                   JSR         @R2
    000022FE E403                   MOV         #3,R4
          Menu.c   766                        ML_rectangle(15,45,55,53,1,ML_BLACK,ML_TRANSPARENT);
    00002300 D222                   MOV.L       L2315+32,R2; _ML_rectangle
    00002302 E3FF                   MOV         #-1,R3
    00002304 2F36                   MOV.L       R3,@-R15
    00002306 E735                   MOV         #53,R7
    00002308 2FE6                   MOV.L       R14,@-R15
    0000230A E637                   MOV         #55,R6
    0000230C 2FE6                   MOV.L       R14,@-R15
    0000230E E52D                   MOV         #45,R5
    00002310 420B                   JSR         @R2
    00002312 E40F                   MOV         #15,R4
          Menu.c   767                        ML_rectangle(74,45,114,53,1,ML_BLACK,ML_TRANSPARENT);
    00002314 D21D                   MOV.L       L2315+32,R2; _ML_rectangle
    00002316 E3FF                   MOV         #-1,R3
    00002318 2F36                   MOV.L       R3,@-R15
    0000231A E735                   MOV         #53,R7
    0000231C 2FE6                   MOV.L       R14,@-R15
    0000231E E672                   MOV         #114,R6
    00002320 2FE6                   MOV.L       R14,@-R15
    00002322 E52D                   MOV         #45,R5
    00002324 420B                   JSR         @R2
    00002326 E44A                   MOV         #74,R4
          Menu.c   768                        ML_rectangle(u,46,u+38,52,1,ML_XOR,ML_XOR);
    00002328 D218                   MOV.L       L2315+32,R2; _ML_rectangle
    0000232A E302                   MOV         #2,R3
    0000232C 2F36                   MOV.L       R3,@-R15
    0000232E E734                   MOV         #52,R7
    00002330 2F36                   MOV.L       R3,@-R15
    00002332 6683                   MOV         R8,R6
    00002334 2FE6                   MOV.L       R14,@-R15
    00002336 E52E                   MOV         #46,R5
    00002338 7626                   ADD         #38,R6
    0000233A 420B                   JSR         @R2
    0000233C 6483                   MOV         R8,R4
          Menu.c   769    
          Menu.c   770                        ML_display_vram();
    0000233E D314                   MOV.L       L2315+36,R3; _ML_display_vram
    00002340 430B                   JSR         @R3
    00002342 7F30                   ADD         #48,R15
          Menu.c   771    
          Menu.c   772                        if (IsKeyDown(KEY_CTRL_RIGHT) && u == 16) u += 59;
    00002344 9412                   MOV.W       L2315,R4   ; H'7545
    00002346 490B                   JSR         @R9
    00002348 0009                   NOP
    0000234A 2008                   TST         R0,R0
    0000234C 8904                   BT          L1900




SH SERIES C/C++ Compiler (Ver. 6.0C)                                                                 30-Jan-2015 21:53:33  PAGE   97


SCT OFFSET   CODE       C LABEL     INSTRUCTION OPERAND    COMMENT

    0000234E 6083                   MOV         R8,R0
    00002350 8810                   CMP/EQ      #16,R0
    00002352 8B01                   BF          L1900
    00002354 A064                   BRA         L1901
    00002356 783B                   ADD         #59,R8
    00002358              L1900:                            
          Menu.c   773                        else if (IsKeyDown(KEY_CTRL_LEFT) && u != 16) u -= 59;
    00002358 9409                   MOV.W       L2315+2,R4 ; H'7544
    0000235A 490B                   JSR         @R9
    0000235C 0009                   NOP
    0000235E 2008                   TST         R0,R0
    00002360 8918                   BT          L1902
    00002362 6083                   MOV         R8,R0
    00002364 8810                   CMP/EQ      #16,R0
    00002366 8915                   BT          L1902
    00002368 A05A                   BRA         L1901
    0000236A 78C5                   ADD         #-59,R8
    0000236C              L2315:                            
    0000236C 7545                   .DATA.W     H'7545
    0000236E 7544                   .DATA.W     H'7544
    00002370 <00000000>             .DATA.L     _ML_clear_vram
    00002374 <00000000>             .DATA.L     L878
    00002378 <00000000>             .DATA.L     L879
    0000237C <00000000>             .DATA.L     L880
    00002380 <00000000>             .DATA.L     L881
    00002384 <00000000>             .DATA.L     L882
    00002388 <00000000>             .DATA.L     L883
    0000238C <00000000>             .DATA.L     _ML_rectangle
    00002390 <00000000>             .DATA.L     _ML_display_vram
    00002394              L1902:                            
          Menu.c   774                        else if (IsKeyDown(KEY_CTRL_EXE) && exeDown == 0)
    00002394 490B                   JSR         @R9
    00002396 64A3                   MOV         R10,R4
    00002398 2008                   TST         R0,R0
    0000239A 8941                   BT          L1901
    0000239C 53F1                   MOV.L       @(4,R15),R3
    0000239E 2338                   TST         R3,R3
    000023A0 8B3E                   BF          L1901
          Menu.c   775                        {
          Menu.c   776                            if (u != 16)
    000023A2 6083                   MOV         R8,R0
    000023A4 8810                   CMP/EQ      #16,R0
    000023A6 8943                   BT          L1844
          Menu.c   777                            {
          Menu.c   778                                exeDown = 1;
          Menu.c   779    
          Menu.c   780                                ML_clear_vram(); // on efface l'cran
    000023A8 D237                   MOV.L       L2316+4,R2 ; _ML_clear_vram
    000023AA 420B                   JSR         @R2
    000023AC 68E3                   MOV         R14,R8
          Menu.c   781                                Bfile_DeleteFile(PathName); // on supprime le fichier de sauvegarde existant
    000023AE D437                   MOV.L       L2316+8,R4 ; _PathName
    000023B0 D337                   MOV.L       L2316+12,R3; _Bfile_DeleteFile
    000023B2 430B                   JSR         @R3
    000023B4 0009                   NOP
          Menu.c   782                                sauvegarde = loadSaveFile(); // on rcrit un fichier de sauvegarde vierge et 
                         +on le charge




SH SERIES C/C++ Compiler (Ver. 6.0C)                                                                 30-Jan-2015 21:53:33  PAGE   98


SCT OFFSET   CODE       C LABEL     INSTRUCTION OPERAND    COMMENT

    000023B6 D237                   MOV.L       L2316+16,R2; _loadSaveFile
    000023B8 420B                   JSR         @R2
    000023BA 0009                   NOP
    000023BC D336                   MOV.L       L2316+20,R3; _sauvegarde
          Menu.c   783                                PrintMini(30,20,"JEU REINITIALISE",0);
    000023BE E700                   MOV         #0,R7
    000023C0 D636                   MOV.L       L2316+24,R6; L886
    000023C2 E514                   MOV         #20,R5
    000023C4 2302                   MOV.L       R0,@R3
    000023C6 4D0B                   JSR         @R13
    000023C8 E41E                   MOV         #30,R4
          Menu.c   784                                ML_rectangle(22,12,103,32,1,ML_BLACK,ML_TRANSPARENT);
    000023CA E2FF                   MOV         #-1,R2
    000023CC D334                   MOV.L       L2316+28,R3; _ML_rectangle
    000023CE E720                   MOV         #32,R7
    000023D0 2F26                   MOV.L       R2,@-R15
    000023D2 E667                   MOV         #103,R6
    000023D4 2F86                   MOV.L       R8,@-R15
    000023D6 E50C                   MOV         #12,R5
    000023D8 2F86                   MOV.L       R8,@-R15
    000023DA 430B                   JSR         @R3
    000023DC E416                   MOV         #22,R4
          Menu.c   785                                PrintMini(58,44,"OK",0);
    000023DE E700                   MOV         #0,R7
    000023E0 D630                   MOV.L       L2316+32,R6; L887
    000023E2 E52C                   MOV         #44,R5
    000023E4 4D0B                   JSR         @R13
    000023E6 E43A                   MOV         #58,R4
          Menu.c   786                                ML_rectangle(52,41,71,51,1,ML_BLACK,ML_XOR);
    000023E8 D32D                   MOV.L       L2316+28,R3; _ML_rectangle
    000023EA E202                   MOV         #2,R2
    000023EC 2F26                   MOV.L       R2,@-R15
    000023EE E733                   MOV         #51,R7
    000023F0 2F86                   MOV.L       R8,@-R15
    000023F2 E647                   MOV         #71,R6
    000023F4 2F86                   MOV.L       R8,@-R15
    000023F6 E529                   MOV         #41,R5
    000023F8 430B                   JSR         @R3
    000023FA E434                   MOV         #52,R4
          Menu.c   787                                ML_display_vram();
    000023FC D22A                   MOV.L       L2316+36,R2; _ML_display_vram
    000023FE 420B                   JSR         @R2
    00002400 7F18                   ADD         #24,R15
          Menu.c   788    
          Menu.c   789                                do
    00002402              L1906:                            
          Menu.c   790                                {
          Menu.c   791                                    if (IsKeyUp(KEY_CTRL_EXE)) exeDown = 0;
    00002402 4B0B                   JSR         @R11
    00002404 64A3                   MOV         R10,R4
    00002406 2008                   TST         R0,R0
    00002408 8D01                   BT/S        L1907
          Menu.c   792                                }
          Menu.c   793                                while(IsKeyUp(KEY_CTRL_EXE) || exeDown == 1);
    0000240A 64A3                   MOV         R10,R4
    0000240C 68C3                   MOV         R12,R8
    0000240E              L1907:                            




SH SERIES C/C++ Compiler (Ver. 6.0C)                                                                 30-Jan-2015 21:53:33  PAGE   99


SCT OFFSET   CODE       C LABEL     INSTRUCTION OPERAND    COMMENT

    0000240E 4B0B                   JSR         @R11
    00002410 0009                   NOP
    00002412 2008                   TST         R0,R0
    00002414 8BF5                   BF          L1906
    00002416 6083                   MOV         R8,R0
    00002418 8801                   CMP/EQ      #1,R0
    0000241A 89F2                   BT          L1906
          Menu.c   794                            }
          Menu.c   795                            break;
    0000241C A008                   BRA         L1844
    0000241E 0009                   NOP
    00002420              L1901:                            
          Menu.c   796                        }
          Menu.c   797    
          Menu.c   798                        if (IsKeyUp(KEY_CTRL_EXE)) exeDown = 0;
    00002420 4B0B                   JSR         @R11
    00002422 64A3                   MOV         R10,R4
    00002424 2008                   TST         R0,R0
    00002426 8B01                   BF          L2317
    00002428 AF3F                   BRA         L1899
    0000242A 0009                   NOP
    0000242C              L2317:                            
          Menu.c   799                    }
          Menu.c   800                    while (1);
    0000242C AF3D                   BRA         L1899
    0000242E 1FC1                   MOV.L       R12,@(4,R15)
    00002430              L1844:                            
          Menu.c   801                    break;
          Menu.c   802                }
          Menu.c   803                exeDown = 1;
    00002430 1FE1                   MOV.L       R14,@(4,R15)
          Menu.c   804                exitDown = 1;
          Menu.c   805                u=16;
    00002432 E310                   MOV         #16,R3
    00002434 1FE3                   MOV.L       R14,@(12,R15)
    00002436 2F32                   MOV.L       R3,@R15
    00002438              L1840:                            
          Menu.c   806            }
          Menu.c   807    
          Menu.c   808            if (IsKeyUp(KEY_CTRL_EXE)) exeDown = 0;
    00002438 4B0B                   JSR         @R11
    0000243A 64A3                   MOV         R10,R4
    0000243C 2008                   TST         R0,R0
    0000243E 8900                   BT          L1910
    00002440 1FC1                   MOV.L       R12,@(4,R15)
    00002442              L1910:                            
          Menu.c   809            if (IsKeyUp(KEY_CTRL_EXIT)) exitDown = 0;
    00002442 941F                   MOV.W       L2316,R4   ; H'7532
    00002444 4B0B                   JSR         @R11
    00002446 0009                   NOP
    00002448 2008                   TST         R0,R0
    0000244A 8D01                   BT/S        L1911
          Menu.c   810    
          Menu.c   811            Sleep(100);
    0000244C E464                   MOV         #100,R4
    0000244E 1FC3                   MOV.L       R12,@(12,R15)
    00002450              L1911:                            




SH SERIES C/C++ Compiler (Ver. 6.0C)                                                                 30-Jan-2015 21:53:33  PAGE  100


SCT OFFSET   CODE       C LABEL     INSTRUCTION OPERAND    COMMENT

    00002450 D316                   MOV.L       L2316+40,R3; _Sleep
    00002452 430B                   JSR         @R3
    00002454 0009                   NOP
          Menu.c   812    
          Menu.c   813        }while (IsKeyUp(KEY_CTRL_EXIT) || exitDown == 1);
    00002456 9415                   MOV.W       L2316,R4   ; H'7532
    00002458 4B0B                   JSR         @R11
    0000245A 0009                   NOP
    0000245C 2008                   TST         R0,R0
    0000245E 8901                   BT          L2318
    00002460 A981                   BRA         L1831
    00002462 0009                   NOP
    00002464              L2318:                            
    00002464 50F3                   MOV.L       @(12,R15),R0
    00002466 8801                   CMP/EQ      #1,R0
    00002468 8B01                   BF          L2319
    0000246A A97C                   BRA         L1831
    0000246C 0009                   NOP
    0000246E              L2319:                            
          Menu.c   814    }
    0000246E 910A                   MOV.W       L2316+2,R1 ; H'012C
    00002470 3F1C                   ADD         R1,R15
    00002472 4F26                   LDS.L       @R15+,PR
    00002474 68F6                   MOV.L       @R15+,R8
    00002476 69F6                   MOV.L       @R15+,R9
    00002478 6AF6                   MOV.L       @R15+,R10
    0000247A 6BF6                   MOV.L       @R15+,R11
    0000247C 6CF6                   MOV.L       @R15+,R12
    0000247E 6DF6                   MOV.L       @R15+,R13
    00002480 000B                   RTS
    00002482 6EF6                   MOV.L       @R15+,R14
    00002484              L2316:                            
    00002484 7532                   .DATA.W     H'7532
    00002486 012C                   .DATA.W     H'012C
    00002488 <00000000>             .DATA.L     _ML_clear_vram
    0000248C <00000000>             .DATA.L     _PathName
    00002490 <00000000>             .DATA.L     _Bfile_DeleteFile
    00002494 <00000000>             .DATA.L     _loadSaveFile
    00002498 <00000000>             .DATA.L     _sauvegarde
    0000249C <00000000>             .DATA.L     L886
    000024A0 <00000000>             .DATA.L     _ML_rectangle
    000024A4 <00000000>             .DATA.L     L887
    000024A8 <00000000>             .DATA.L     _ML_display_vram
    000024AC <00000000>             .DATA.L     _Sleep
          Menu.c   815    
          Menu.c   816    void gadgetMenu()
    000024B0              _gadgetMenu:                     ; function: gadgetMenu
                                                           ; frame size=284
                                                           ; used runtime library name:
                                                           ; __quick_evn_mvn
    000024B0 2FE6                   MOV.L       R14,@-R15
          Menu.c   817    {
          Menu.c   818        int x, u = 22, v = 14, vNext = 14, position = 0, selection = 1, exeDown = 1, keyDown = 0, animation = 
                         +0;
    000024B2 E316                   MOV         #22,R3
          Menu.c   819    
          Menu.c   820        int gadgetsCount = 0;




SH SERIES C/C++ Compiler (Ver. 6.0C)                                                                 30-Jan-2015 21:53:33  PAGE  101


SCT OFFSET   CODE       C LABEL     INSTRUCTION OPERAND    COMMENT

          Menu.c   821        int gadgetsCost[12] = {2000,2500,3000,4000,5000,3000,7500,4500,5000,6000,5500,6000};
    000024B4 914B                   MOV.W       L2320+2,R1 ; H'00AC
    000024B6 EE01                   MOV         #1,R14
    000024B8 D225                   MOV.L       L2320+4,R2 ; L901
    000024BA 2FD6                   MOV.L       R13,@-R15
    000024BC 2FC6                   MOV.L       R12,@-R15
    000024BE 2FB6                   MOV.L       R11,@-R15
    000024C0 2FA6                   MOV.L       R10,@-R15
    000024C2 EB00                   MOV         #0,R11
    000024C4 9042                   MOV.W       L2320,R0   ; H'FF24
    000024C6 6AE3                   MOV         R14,R10
    000024C8 2F96                   MOV.L       R9,@-R15
    000024CA 2F86                   MOV.L       R8,@-R15
    000024CC 4F22                   STS.L       PR,@-R15
    000024CE E80E                   MOV         #14,R8
    000024D0 4F12                   STS.L       MACL,@-R15
    000024D2 3F0C                   ADD         R0,R15
    000024D4 2F32                   MOV.L       R3,@R15
    000024D6 31FC                   ADD         R15,R1
    000024D8 6383                   MOV         R8,R3
    000024DA 1F33                   MOV.L       R3,@(12,R15)
    000024DC 1FB6                   MOV.L       R11,@(24,R15)
    000024DE 1FE8                   MOV.L       R14,@(32,R15)
    000024E0 1FB5                   MOV.L       R11,@(20,R15)
    000024E2 1FB7                   MOV.L       R11,@(28,R15)
    000024E4 D31B                   MOV.L       L2320+8,R3 ; __quick_evn_mvn
    000024E6 430B                   JSR         @R3
    000024E8 E030                   MOV         #48,R0
          Menu.c   822        char *gadgetsCostText[12] = {"2000$","2500$","3000$","4000$","5000$","3000$","7500$","4500$","5000$","
                         +6000$","5500$","6000$"};
    000024EA 61F3                   MOV         R15,R1
    000024EC D21A                   MOV.L       L2320+12,R2; L903
    000024EE 717C                   ADD         #124,R1
    000024F0 D318                   MOV.L       L2320+8,R3 ; __quick_evn_mvn
    000024F2 430B                   JSR         @R3
    000024F4 E030                   MOV         #48,R0
          Menu.c   823        char *secteurs[6] = {"Secteur 1: Preparation", "Secteur 2: Recherche", "Secteur 3: Developpement", "Se
                         +cteur 4: Production", "Secteur 5: Amelioration", "Secteur 6: Extermination"};
    000024F6 61F3                   MOV         R15,R1
    000024F8 D218                   MOV.L       L2320+16,R2; L913
    000024FA 7164                   ADD         #100,R1
    000024FC D315                   MOV.L       L2320+8,R3 ; __quick_evn_mvn
    000024FE 430B                   JSR         @R3
    00002500 E018                   MOV         #24,R0
          Menu.c   824        char *gadgetsNames[14] = {"AIR BARRYS", "INSTA-BALLE", "CEINTURE DE GRAVITE", "BROUILLEUR DE MISSI..",
                         + "JETON OFFERT", "GLACOMATIQUE", "GEMMOLOGIE", "JETONS MAGNETIQUES", "TOUR GRATUIT", "AIMANT A PIECES", "D
                         +ERNIERE CHANCE", "DEZAPPEUR", "BROUILLEUR DE MIS..", "BROUILLEUR DE MISSILES"};
    00002502 61F3                   MOV         R15,R1
    00002504 D216                   MOV.L       L2320+20,R2; L921
    00002506 712C                   ADD         #44,R1
    00002508 D312                   MOV.L       L2320+8,R3 ; __quick_evn_mvn
    0000250A 430B                   JSR         @R3
    0000250C E038                   MOV         #56,R0
          Menu.c   825        char totalMoney[7];
          Menu.c   826    
          Menu.c   827        do
    0000250E              L1912:                            




SH SERIES C/C++ Compiler (Ver. 6.0C)                                                                 30-Jan-2015 21:53:33  PAGE  102


SCT OFFSET   CODE       C LABEL     INSTRUCTION OPERAND    COMMENT

          Menu.c   828        {
          Menu.c   829            gadgetsCount = 0;
    0000250E 1FB4                   MOV.L       R11,@(16,R15)
          Menu.c   830            for (x = 0; x < 12; x++) // on regarde le nombre de gadgets deja achetes
    00002510 A009                   BRA         L1913
    00002512 64B3                   MOV         R11,R4
    00002514              L1914:                            
          Menu.c   831                if (sauvegarde->gadget[x] != 0) gadgetsCount++;
    00002514 62C3                   MOV         R12,R2
    00002516 324C                   ADD         R4,R2
    00002518 6320                   MOV.B       @R2,R3
    0000251A 2338                   TST         R3,R3
    0000251C 8D03                   BT/S        L1915
    0000251E 7401                   ADD         #1,R4
    00002520 51F4                   MOV.L       @(16,R15),R1
    00002522 7101                   ADD         #1,R1
    00002524 1F14                   MOV.L       R1,@(16,R15)
    00002526              L1915:                            
    00002526              L1913:                            
    00002526 E50C                   MOV         #12,R5
    00002528 DD0E                   MOV.L       L2320+24,R13; _sauvegarde
    0000252A 3453                   CMP/GE      R5,R4
    0000252C 8FF2                   BF/S        L1914
    0000252E 6CD2                   MOV.L       @R13,R12
          Menu.c   832    
          Menu.c   833            sprintf(totalMoney,"%d$",sauvegarde->argent); // on transforme notre argent en texte pour pouvoir 
                         +l'afficher
    00002530 D90D                   MOV.L       L2320+28,R9; L647
    00002532 E078                   MOV         #120,R0
    00002534 D30D                   MOV.L       L2320+32,R3; _sprintf
    00002536 02CE                   MOV.L       @(R0,R12),R2
    00002538 2F26                   MOV.L       R2,@-R15
    0000253A 2F96                   MOV.L       R9,@-R15
    0000253C 64F3                   MOV         R15,R4
    0000253E 430B                   JSR         @R3
    00002540 742C                   ADD         #44,R4
          Menu.c   834    
          Menu.c   835            ML_clear_vram();
    00002542 DC0B                   MOV.L       L2320+36,R12; _ML_clear_vram
    00002544 4C0B                   JSR         @R12
    00002546 7F08                   ADD         #8,R15
          Menu.c   836    
          Menu.c   837            for(x = 0; x < 6; x++) // il y a 6 secteurs
    00002548 A11F                   BRA         L1916
    0000254A 1FB1                   MOV.L       R11,@(4,R15)
    0000254C              L2320:                            
    0000254C FF24                   .DATA.W     H'FF24
    0000254E 00AC                   .DATA.W     H'00AC
    00002550 <00000000>             .DATA.L     L901
    00002554 <00000000>             .DATA.L     __quick_evn_mvn
    00002558 <00000000>             .DATA.L     L903
    0000255C <00000000>             .DATA.L     L913
    00002560 <00000000>             .DATA.L     L921
    00002564 <00000000>             .DATA.L     _sauvegarde
    00002568 <00000000>             .DATA.L     L647
    0000256C <00000000>             .DATA.L     _sprintf
    00002570 <00000000>             .DATA.L     _ML_clear_vram




SH SERIES C/C++ Compiler (Ver. 6.0C)                                                                 30-Jan-2015 21:53:33  PAGE  103


SCT OFFSET   CODE       C LABEL     INSTRUCTION OPERAND    COMMENT

    00002574              L1917:                            
          Menu.c   838            {
          Menu.c   839    
          Menu.c   840                ML_rectangle(0,v+46*x,127,v+8+46*x,1,ML_BLACK,ML_WHITE); // le rectange "secteur"
    00002574 2FB6                   MOV.L       R11,@-R15
    00002576 E67F                   MOV         #127,R6
    00002578 D353                   MOV.L       L2321+2,R3 ; _ML_rectangle
    0000257A E92E                   MOV         #46,R9
    0000257C 2FE6                   MOV.L       R14,@-R15
    0000257E 2FE6                   MOV.L       R14,@-R15
    00002580 5CF4                   MOV.L       @(16,R15),R12
    00002582 0C97                   MUL.L       R9,R12
    00002584 0C1A                   STS         MACL,R12
    00002586 3C8C                   ADD         R8,R12
    00002588 67C3                   MOV         R12,R7
    0000258A 7708                   ADD         #8,R7
    0000258C 65C3                   MOV         R12,R5
    0000258E 430B                   JSR         @R3
    00002590 E400                   MOV         #0,R4
    00002592 7F0C                   ADD         #12,R15
    00002594 59F1                   MOV.L       @(4,R15),R9
    00002596 4900                   SHLL        R9
    00002598 53F1                   MOV.L       @(4,R15),R3
    0000259A 52F4                   MOV.L       @(16,R15),R2
    0000259C 3233                   CMP/GE      R3,R2
    0000259E 8901                   BT          L2322
    000025A0 A09A                   BRA         L1918
    000025A2 0009                   NOP
    000025A4              L2322:                            
          Menu.c   841    
          Menu.c   842                if (gadgetsCount >= x) // si le secteur est debloque
          Menu.c   843                {
          Menu.c   844                    PrintMini(2,v+2+46*x,secteurs[x],0); // on affiche le nom du secteur
    000025A4 D149                   MOV.L       L2321+6,R1 ; _PrintMini
    000025A6 E700                   MOV         #0,R7
    000025A8 6633                   MOV         R3,R6
    000025AA 4608                   SHLL2       R6
    000025AC 62F3                   MOV         R15,R2
    000025AE 7264                   ADD         #100,R2
    000025B0 362C                   ADD         R2,R6
    000025B2 65C3                   MOV         R12,R5
    000025B4 6662                   MOV.L       @R6,R6
    000025B6 7502                   ADD         #2,R5
    000025B8 410B                   JSR         @R1
    000025BA E402                   MOV         #2,R4
          Menu.c   845                    ML_rectangle(0,v+8+46*x,127,v+27+46*x,1,ML_BLACK,ML_WHITE); // premier rectangle "gadget"
    000025BC D242                   MOV.L       L2321+2,R2 ; _ML_rectangle
    000025BE E300                   MOV         #0,R3
    000025C0 2F36                   MOV.L       R3,@-R15
    000025C2 67C3                   MOV         R12,R7
    000025C4 2FE6                   MOV.L       R14,@-R15
    000025C6 E67F                   MOV         #127,R6
    000025C8 2FE6                   MOV.L       R14,@-R15
    000025CA 771B                   ADD         #27,R7
    000025CC 1F75                   MOV.L       R7,@(20,R15)
    000025CE 65C3                   MOV         R12,R5
    000025D0 7508                   ADD         #8,R5




SH SERIES C/C++ Compiler (Ver. 6.0C)                                                                 30-Jan-2015 21:53:33  PAGE  104


SCT OFFSET   CODE       C LABEL     INSTRUCTION OPERAND    COMMENT

    000025D2 420B                   JSR         @R2
    000025D4 6433                   MOV         R3,R4
          Menu.c   846                    ML_rectangle(0,v+27+46*x,127,v+46+46*x,1,ML_BLACK,ML_WHITE); // deuxieme rectange "gadget"
    000025D6 E100                   MOV         #0,R1
    000025D8 D33B                   MOV.L       L2321+2,R3 ; _ML_rectangle
    000025DA 67C3                   MOV         R12,R7
    000025DC 2F16                   MOV.L       R1,@-R15
    000025DE E67F                   MOV         #127,R6
    000025E0 2FE6                   MOV.L       R14,@-R15
    000025E2 772E                   ADD         #46,R7
    000025E4 2FE6                   MOV.L       R14,@-R15
    000025E6 55F8                   MOV.L       @(32,R15),R5
    000025E8 430B                   JSR         @R3
    000025EA 6413                   MOV         R1,R4
          Menu.c   847                    PrintMini(20,v+15+46*x,gadgetsNames[2*x],0); // nom du premier gadget
    000025EC D237                   MOV.L       L2321+6,R2 ; _PrintMini
    000025EE 7F18                   ADD         #24,R15
    000025F0 E700                   MOV         #0,R7
    000025F2 6693                   MOV         R9,R6
    000025F4 4608                   SHLL2       R6
    000025F6 63F3                   MOV         R15,R3
    000025F8 732C                   ADD         #44,R3
    000025FA 363C                   ADD         R3,R6
    000025FC 6662                   MOV.L       @R6,R6
    000025FE 65C3                   MOV         R12,R5
    00002600 750F                   ADD         #15,R5
    00002602 420B                   JSR         @R2
    00002604 E414                   MOV         #20,R4
          Menu.c   848                    PrintMini(20,v+34+46*x,gadgetsNames[2*x+1==3&&sauvegarde->gadget[3]?sauvegarde->gadget[3]=
                         +=1?12:13:2*x+1],0); // nom du deuxieme gadget
    00002606 E700                   MOV         #0,R7
    00002608 6093                   MOV         R9,R0
    0000260A 7001                   ADD         #1,R0
    0000260C 8803                   CMP/EQ      #3,R0
    0000260E 8F0F                   BF/S        L1919
    00002610 1F02                   MOV.L       R0,@(8,R15)
    00002612 D32F                   MOV.L       L2321+10,R3; _sauvegarde
    00002614 6632                   MOV.L       @R3,R6
    00002616 8463                   MOV.B       @(3,R6),R0
    00002618 2008                   TST         R0,R0
    0000261A 8909                   BT          L1919
    0000261C D22C                   MOV.L       L2321+10,R2; _sauvegarde
    0000261E 6022                   MOV.L       @R2,R0
    00002620 8403                   MOV.B       @(3,R0),R0
    00002622 600C                   EXTU.B      R0,R0
    00002624 8801                   CMP/EQ      #1,R0
    00002626 8B01                   BF          L1920
    00002628 A003                   BRA         L1922
    0000262A E60C                   MOV         #12,R6
    0000262C              L1920:                            
    0000262C A001                   BRA         L1922
    0000262E E60D                   MOV         #13,R6
    00002630              L1919:                            
    00002630 56F2                   MOV.L       @(8,R15),R6
    00002632              L1922:                            
    00002632 4608                   SHLL2       R6
    00002634 D325                   MOV.L       L2321+6,R3 ; _PrintMini




SH SERIES C/C++ Compiler (Ver. 6.0C)                                                                 30-Jan-2015 21:53:33  PAGE  105


SCT OFFSET   CODE       C LABEL     INSTRUCTION OPERAND    COMMENT

    00002636 62F3                   MOV         R15,R2
    00002638 722C                   ADD         #44,R2
    0000263A 362C                   ADD         R2,R6
    0000263C 6662                   MOV.L       @R6,R6
    0000263E 65C3                   MOV         R12,R5
    00002640 7522                   ADD         #34,R5
    00002642 430B                   JSR         @R3
    00002644 E414                   MOV         #20,R4
          Menu.c   849    
          Menu.c   850                    if (sauvegarde->gadget[2*x] == 0) PrintMini(105,v+15+46*x,gadgetsCostText[2*x],0); // si o
                         +n n'a pas achete le premier gadget
    00002646 60D2                   MOV.L       @R13,R0
    00002648 039C                   MOV.B       @(R0,R9),R3
    0000264A 633C                   EXTU.B      R3,R3
    0000264C 2338                   TST         R3,R3
    0000264E 8B0D                   BF          L1923
    00002650 D21E                   MOV.L       L2321+6,R2 ; _PrintMini
    00002652 E700                   MOV         #0,R7
    00002654 6693                   MOV         R9,R6
    00002656 4608                   SHLL2       R6
    00002658 63F3                   MOV         R15,R3
    0000265A 737C                   ADD         #124,R3
    0000265C 363C                   ADD         R3,R6
    0000265E 65C3                   MOV         R12,R5
    00002660 6662                   MOV.L       @R6,R6
    00002662 750F                   ADD         #15,R5
    00002664 420B                   JSR         @R2
    00002666 E469                   MOV         #105,R4
    00002668 A00B                   BRA         L1924
    0000266A 0009                   NOP
    0000266C              L1923:                            
          Menu.c   851                    else if (sauvegarde->gadget[2*x] == 1) PrintMini(100,v+15+46*x,"Equiper",0); // si on a ac
                         +hete le premier gadget
    0000266C 009C                   MOV.B       @(R0,R9),R0
    0000266E 600C                   EXTU.B      R0,R0
    00002670 8801                   CMP/EQ      #1,R0
    00002672 8B06                   BF          L1924
    00002674 D617                   MOV.L       L2321+14,R6; L649
    00002676 65C3                   MOV         R12,R5
    00002678 D214                   MOV.L       L2321+6,R2 ; _PrintMini
    0000267A E700                   MOV         #0,R7
    0000267C 750F                   ADD         #15,R5
    0000267E 420B                   JSR         @R2
    00002680 E464                   MOV         #100,R4
    00002682              L1924:                            
          Menu.c   852                    if (sauvegarde->gadget[2*x+1] == 0) PrintMini(105,v+34+46*x,gadgetsCostText[2*x+1],0); // 
                         +si on n'a pas achete le deuxieme gadget
    00002682 62D2                   MOV.L       @R13,R2
    00002684 329C                   ADD         R9,R2
    00002686 8421                   MOV.B       @(1,R2),R0
    00002688 2008                   TST         R0,R0
    0000268A 8B0D                   BF          L1926
    0000268C D20F                   MOV.L       L2321+6,R2 ; _PrintMini
    0000268E E700                   MOV         #0,R7
    00002690 6693                   MOV         R9,R6
    00002692 4608                   SHLL2       R6
    00002694 63F3                   MOV         R15,R3




SH SERIES C/C++ Compiler (Ver. 6.0C)                                                                 30-Jan-2015 21:53:33  PAGE  106


SCT OFFSET   CODE       C LABEL     INSTRUCTION OPERAND    COMMENT

    00002696 737C                   ADD         #124,R3
    00002698 363C                   ADD         R3,R6
    0000269A 65C3                   MOV         R12,R5
    0000269C 5661                   MOV.L       @(4,R6),R6
    0000269E 7522                   ADD         #34,R5
    000026A0 420B                   JSR         @R2
    000026A2 E469                   MOV         #105,R4
    000026A4 A038                   BRA         L1929
    000026A6 0009                   NOP
    000026A8              L1926:                            
          Menu.c   853                    else if (sauvegarde->gadget[2*x+1] == 1) PrintMini(100,v+34+46*x,"Equiper",0); // si on a 
                         +achete le deuxieme gadget
    000026A8 60D2                   MOV.L       @R13,R0
    000026AA 309C                   ADD         R9,R0
    000026AC 8401                   MOV.B       @(1,R0),R0
    000026AE 600C                   EXTU.B      R0,R0
    000026B0 8801                   CMP/EQ      #1,R0
    000026B2 8B31                   BF          L1929
    000026B4 D607                   MOV.L       L2321+14,R6; L649
    000026B6 65C3                   MOV         R12,R5
    000026B8 D204                   MOV.L       L2321+6,R2 ; _PrintMini
    000026BA E700                   MOV         #0,R7
    000026BC 7522                   ADD         #34,R5
    000026BE 420B                   JSR         @R2
    000026C0 E464                   MOV         #100,R4
    000026C2 A029                   BRA         L1929
    000026C4 0009                   NOP
    000026C6              L2321:                            
    000026C6 0000                   .DATA.W     0
    000026C8 <00000000>             .DATA.L     _ML_rectangle
    000026CC <00000000>             .DATA.L     _PrintMini
    000026D0 <00000000>             .DATA.L     _sauvegarde
    000026D4 <00000000>             .DATA.L     L649
    000026D8              L1918:                            
          Menu.c   854                }
          Menu.c   855                else // sinon
          Menu.c   856                {
          Menu.c   857                    PrintMini(2,v+2+46*x,"Achetez plus de gadgets",0); // on indique qu'il faut plus de gadget
                         +s
    000026D8 D659                   MOV.L       L2323+2,R6 ; L929
    000026DA 65C3                   MOV         R12,R5
    000026DC D259                   MOV.L       L2323+6,R2 ; _PrintMini
    000026DE E700                   MOV         #0,R7
    000026E0 7502                   ADD         #2,R5
    000026E2 420B                   JSR         @R2
    000026E4 E402                   MOV         #2,R4
          Menu.c   858                    ML_rectangle(0,v+8+46*x,127,v+27+46*x,1,ML_BLACK,ML_CHECKER); // on barre le nom et le pri
                         +x des deux gadgets
    000026E6 E303                   MOV         #3,R3
    000026E8 D257                   MOV.L       L2323+10,R2; _ML_rectangle
    000026EA 67C3                   MOV         R12,R7
    000026EC 2F36                   MOV.L       R3,@-R15
    000026EE E67F                   MOV         #127,R6
    000026F0 2FE6                   MOV.L       R14,@-R15
    000026F2 771B                   ADD         #27,R7
    000026F4 2FE6                   MOV.L       R14,@-R15
    000026F6 65C3                   MOV         R12,R5




SH SERIES C/C++ Compiler (Ver. 6.0C)                                                                 30-Jan-2015 21:53:33  PAGE  107


SCT OFFSET   CODE       C LABEL     INSTRUCTION OPERAND    COMMENT

    000026F8 1F75                   MOV.L       R7,@(20,R15)
    000026FA 7508                   ADD         #8,R5
    000026FC 420B                   JSR         @R2
    000026FE E400                   MOV         #0,R4
          Menu.c   859                    ML_rectangle(0,v+27+46*x,127,v+46+46*x,1,ML_BLACK,ML_CHECKER);
    00002700 D251                   MOV.L       L2323+10,R2; _ML_rectangle
    00002702 E303                   MOV         #3,R3
    00002704 2F36                   MOV.L       R3,@-R15
    00002706 67C3                   MOV         R12,R7
    00002708 2FE6                   MOV.L       R14,@-R15
    0000270A E67F                   MOV         #127,R6
    0000270C 2FE6                   MOV.L       R14,@-R15
    0000270E 772E                   ADD         #46,R7
    00002710 55F8                   MOV.L       @(32,R15),R5
    00002712 420B                   JSR         @R2
    00002714 E400                   MOV         #0,R4
    00002716 7F18                   ADD         #24,R15
    00002718              L1929:                            
          Menu.c   860                }
          Menu.c   861    
          Menu.c   862                ML_bmp_16_or(gadgets[2*x],2,v+10+46*x); // on affiche les sprites des gadgets
    00002718 D34C                   MOV.L       L2323+14,R3; __$gadgets
    0000271A 66C3                   MOV         R12,R6
    0000271C D24C                   MOV.L       L2323+18,R2; _ML_bmp_16_or
    0000271E E502                   MOV         #2,R5
    00002720 760A                   ADD         #10,R6
    00002722 6493                   MOV         R9,R4
    00002724 4408                   SHLL2       R4
    00002726 4408                   SHLL2       R4
    00002728 4400                   SHLL        R4
    0000272A 343C                   ADD         R3,R4
    0000272C 420B                   JSR         @R2
    0000272E 1F42                   MOV.L       R4,@(8,R15)
          Menu.c   863                ML_bmp_16_or(gadgets[2*x+1],2,v+29+46*x);
    00002730 54F2                   MOV.L       @(8,R15),R4
    00002732 66C3                   MOV         R12,R6
    00002734 D346                   MOV.L       L2323+18,R3; _ML_bmp_16_or
    00002736 E502                   MOV         #2,R5
    00002738 761D                   ADD         #29,R6
    0000273A 430B                   JSR         @R3
    0000273C 7420                   ADD         #32,R4
          Menu.c   864    
          Menu.c   865                if (sauvegarde->gadget[2*x] == 2) // si le premier gadget est equipe
    0000273E 60D2                   MOV.L       @R13,R0
    00002740 009C                   MOV.B       @(R0,R9),R0
    00002742 600C                   EXTU.B      R0,R0
    00002744 8802                   CMP/EQ      #2,R0
    00002746 8B0B                   BF          L1930
          Menu.c   866                {
          Menu.c   867                    ML_bmp_8_and(gadgetOKAlpha,13,v+18+46*x); // on affiche un petit signe
    00002748 D442                   MOV.L       L2323+22,R4; __$gadgetOKAlpha
    0000274A 66C3                   MOV         R12,R6
    0000274C D342                   MOV.L       L2323+26,R3; _ML_bmp_8_and
    0000274E 7612                   ADD         #18,R6
    00002750 1F62                   MOV.L       R6,@(8,R15)
    00002752 430B                   JSR         @R3
    00002754 E50D                   MOV         #13,R5




SH SERIES C/C++ Compiler (Ver. 6.0C)                                                                 30-Jan-2015 21:53:33  PAGE  108


SCT OFFSET   CODE       C LABEL     INSTRUCTION OPERAND    COMMENT

          Menu.c   868                    ML_bmp_8_or(gadgetOK,13,v+18+46*x);
    00002756 56F2                   MOV.L       @(8,R15),R6
    00002758 D440                   MOV.L       L2323+30,R4; __$gadgetOK
    0000275A D341                   MOV.L       L2323+34,R3; _ML_bmp_8_or
    0000275C 430B                   JSR         @R3
    0000275E E50D                   MOV         #13,R5
    00002760              L1930:                            
          Menu.c   869                }
          Menu.c   870                if (sauvegarde->gadget[2*x+1] == 2) // si le deuxieme gadget est equipe
    00002760 60D2                   MOV.L       @R13,R0
    00002762 309C                   ADD         R9,R0
    00002764 8401                   MOV.B       @(1,R0),R0
    00002766 600C                   EXTU.B      R0,R0
    00002768 8802                   CMP/EQ      #2,R0
    0000276A 8B0B                   BF          L1931
          Menu.c   871                {
          Menu.c   872                    ML_bmp_8_and(gadgetOKAlpha,13,v+37+46*x); // on affiche le petit signe
    0000276C D439                   MOV.L       L2323+22,R4; __$gadgetOKAlpha
    0000276E 69C3                   MOV         R12,R9
    00002770 D239                   MOV.L       L2323+26,R2; _ML_bmp_8_and
    00002772 7925                   ADD         #37,R9
    00002774 6693                   MOV         R9,R6
    00002776 420B                   JSR         @R2
    00002778 E50D                   MOV         #13,R5
          Menu.c   873                    ML_bmp_8_or(gadgetOK,13,v+37+46*x);
    0000277A 6693                   MOV         R9,R6
    0000277C D437                   MOV.L       L2323+30,R4; __$gadgetOK
    0000277E D338                   MOV.L       L2323+34,R3; _ML_bmp_8_or
    00002780 430B                   JSR         @R3
    00002782 E50D                   MOV         #13,R5
    00002784              L1931:                            
    00002784 52F1                   MOV.L       @(4,R15),R2
    00002786 7201                   ADD         #1,R2
    00002788 1F21                   MOV.L       R2,@(4,R15)
    0000278A              L1916:                            
    0000278A E306                   MOV         #6,R3
    0000278C 51F1                   MOV.L       @(4,R15),R1
    0000278E 3133                   CMP/GE      R3,R1
    00002790 8901                   BT          L2324
    00002792 AEEF                   BRA         L1917
    00002794 0009                   NOP
    00002796              L2324:                            
          Menu.c   874                }
          Menu.c   875            }
          Menu.c   876    
          Menu.c   877            ML_rectangle(0,u,127,u+19,1,ML_BLACK,ML_XOR); // on affiche la position du curseur
    00002796 EC02                   MOV         #2,R12
    00002798 D32B                   MOV.L       L2323+10,R3; _ML_rectangle
    0000279A E67F                   MOV         #127,R6
    0000279C 2FC6                   MOV.L       R12,@-R15
    0000279E 2FE6                   MOV.L       R14,@-R15
    000027A0 2FE6                   MOV.L       R14,@-R15
    000027A2 57F3                   MOV.L       @(12,R15),R7
    000027A4 55F3                   MOV.L       @(12,R15),R5
    000027A6 7713                   ADD         #19,R7
    000027A8 430B                   JSR         @R3
    000027AA E400                   MOV         #0,R4




SH SERIES C/C++ Compiler (Ver. 6.0C)                                                                 30-Jan-2015 21:53:33  PAGE  109


SCT OFFSET   CODE       C LABEL     INSTRUCTION OPERAND    COMMENT

          Menu.c   878    
          Menu.c   879            ML_rectangle(27,0,98,13,1,ML_WHITE,ML_WHITE); // on gere la transparence de l'en-tete
    000027AC D326                   MOV.L       L2323+10,R3; _ML_rectangle
    000027AE E200                   MOV         #0,R2
    000027B0 2F26                   MOV.L       R2,@-R15
    000027B2 E70D                   MOV         #13,R7
    000027B4 2F26                   MOV.L       R2,@-R15
    000027B6 E662                   MOV         #98,R6
    000027B8 2FE6                   MOV.L       R14,@-R15
    000027BA 6523                   MOV         R2,R5
    000027BC 430B                   JSR         @R3
    000027BE E41B                   MOV         #27,R4
          Menu.c   880    
          Menu.c   881            ML_bmp_or(gadgetTop,0,0,128,16); // on affiche le sprite de l'entete
    000027C0 993D                   MOV.W       L2323,R9   ; H'0080
    000027C2 E210                   MOV         #16,R2
    000027C4 D427                   MOV.L       L2323+38,R4; __$gadgetTop
    000027C6 E600                   MOV         #0,R6
    000027C8 D327                   MOV.L       L2323+42,R3; _ML_bmp_or
    000027CA 6793                   MOV         R9,R7
    000027CC 2F26                   MOV.L       R2,@-R15
    000027CE 430B                   JSR         @R3
    000027D0 6563                   MOV         R6,R5
          Menu.c   882            if (sauvegarde->gadgetEquipe[0] != 0) ML_bmp_16_or(gadgets[sauvegarde->gadgetEquipe[0]-1],69,0); /
                         +/ on affiche les sprites des objets equipes
    000027D2 62D2                   MOV.L       @R13,R2
    000027D4 842C                   MOV.B       @(12,R2),R0
    000027D6 2008                   TST         R0,R0
    000027D8 8D0D                   BT/S        L1932
    000027DA 7F1C                   ADD         #28,R15
    000027DC 64D2                   MOV.L       @R13,R4
    000027DE E600                   MOV         #0,R6
    000027E0 D31A                   MOV.L       L2323+14,R3; __$gadgets
    000027E2 E545                   MOV         #69,R5
    000027E4 D21A                   MOV.L       L2323+18,R2; _ML_bmp_16_or
    000027E6 844C                   MOV.B       @(12,R4),R0
    000027E8 640C                   EXTU.B      R0,R4
    000027EA 74FF                   ADD         #-1,R4
    000027EC 4408                   SHLL2       R4
    000027EE 4408                   SHLL2       R4
    000027F0 4400                   SHLL        R4
    000027F2 420B                   JSR         @R2
    000027F4 343C                   ADD         R3,R4
    000027F6              L1932:                            
    000027F6 69D2                   MOV.L       @R13,R9
    000027F8 849D                   MOV.B       @(13,R9),R0
    000027FA 2008                   TST         R0,R0
    000027FC 890B                   BT          L1933
          Menu.c   883            if (sauvegarde->gadgetEquipe[1] != 0) ML_bmp_16_or(gadgets[sauvegarde->gadgetEquipe[1]-1],84,0);
    000027FE E600                   MOV         #0,R6
    00002800 849D                   MOV.B       @(13,R9),R0
    00002802 E554                   MOV         #84,R5
    00002804 D311                   MOV.L       L2323+14,R3; __$gadgets
    00002806 640C                   EXTU.B      R0,R4
    00002808 D211                   MOV.L       L2323+18,R2; _ML_bmp_16_or
    0000280A 74FF                   ADD         #-1,R4
    0000280C 4408                   SHLL2       R4




SH SERIES C/C++ Compiler (Ver. 6.0C)                                                                 30-Jan-2015 21:53:33  PAGE  110


SCT OFFSET   CODE       C LABEL     INSTRUCTION OPERAND    COMMENT

    0000280E 4408                   SHLL2       R4
    00002810 4400                   SHLL        R4
    00002812 420B                   JSR         @R2
    00002814 343C                   ADD         R3,R4
    00002816              L1933:                            
          Menu.c   884    
          Menu.c   885            ML_line(71,14,83,14,ML_WHITE); ML_line(86,14,98,14,ML_WHITE);// on fait des petits dessins
    00002816 E70E                   MOV         #14,R7
    00002818 D914                   MOV.L       L2323+46,R9; _ML_line
    0000281A E653                   MOV         #83,R6
    0000281C 2FB6                   MOV.L       R11,@-R15
    0000281E 6573                   MOV         R7,R5
    00002820 490B                   JSR         @R9
    00002822 E447                   MOV         #71,R4
    00002824 2FB6                   MOV.L       R11,@-R15
    00002826 E70E                   MOV         #14,R7
    00002828 E662                   MOV         #98,R6
    0000282A 6573                   MOV         R7,R5
    0000282C 490B                   JSR         @R9
    0000282E E456                   MOV         #86,R4
    00002830 7F08                   ADD         #8,R15
          Menu.c   886    
          Menu.c   887            PrintMini(102,2,totalMoney,2); // on affiche notre argent
    00002832 E702                   MOV         #2,R7
    00002834 66F3                   MOV         R15,R6
    00002836 7624                   ADD         #36,R6
    00002838 6573                   MOV         R7,R5
    0000283A A019                   BRA         L2232
    0000283C E466                   MOV         #102,R4
    0000283E              L2323:                            
    0000283E 0080                   .DATA.W     H'0080
    00002840 <00000000>             .DATA.L     L929
    00002844 <00000000>             .DATA.L     _PrintMini
    00002848 <00000000>             .DATA.L     _ML_rectangle
    0000284C <00000000>             .DATA.L     __$gadgets
    00002850 <00000000>             .DATA.L     _ML_bmp_16_or
    00002854 <00000000>             .DATA.L     __$gadgetOKAlpha
    00002858 <00000000>             .DATA.L     _ML_bmp_8_and
    0000285C <00000000>             .DATA.L     __$gadgetOK
    00002860 <00000000>             .DATA.L     _ML_bmp_8_or
    00002864 <00000000>             .DATA.L     __$gadgetTop
    00002868 <00000000>             .DATA.L     _ML_bmp_or
    0000286C <00000000>             .DATA.L     _ML_line
    00002870              L2232:                            
    00002870 D32F                   MOV.L       L2325+6,R3 ; _PrintMini
    00002872 430B                   JSR         @R3
    00002874 0009                   NOP
          Menu.c   888    
          Menu.c   889            if (animation != 0)
    00002876 52F7                   MOV.L       @(28,R15),R2
    00002878 2228                   TST         R2,R2
    0000287A 890D                   BT          L1934
          Menu.c   890            {
          Menu.c   891                if (animationSucces(animation == 2?-1:1) == 1) animation = 0;
    0000287C D92D                   MOV.L       L2325+10,R9; _animationSucces
    0000287E 50F7                   MOV.L       @(28,R15),R0
    00002880 8802                   CMP/EQ      #2,R0




SH SERIES C/C++ Compiler (Ver. 6.0C)                                                                 30-Jan-2015 21:53:33  PAGE  111


SCT OFFSET   CODE       C LABEL     INSTRUCTION OPERAND    COMMENT

    00002882 8B01                   BF          L1936
    00002884 A001                   BRA         L1937
    00002886 E4FF                   MOV         #-1,R4
    00002888              L1936:                            
    00002888 E401                   MOV         #1,R4
    0000288A              L1937:                            
    0000288A 490B                   JSR         @R9
    0000288C 0009                   NOP
    0000288E 8801                   CMP/EQ      #1,R0
    00002890 8B01                   BF          L1935
    00002892 A001                   BRA         L1934
    00002894 1FB7                   MOV.L       R11,@(28,R15)
    00002896              L1935:                            
          Menu.c   892                else animation = 1;
    00002896 1FE7                   MOV.L       R14,@(28,R15)
    00002898              L1934:                            
          Menu.c   893            }
          Menu.c   894    
          Menu.c   895            ML_display_vram();
    00002898 D927                   MOV.L       L2325+14,R9; _ML_display_vram
    0000289A 490B                   JSR         @R9
    0000289C 0009                   NOP
          Menu.c   896    
          Menu.c   897            if (vNext == v && keyDown == 0) // on gere le clavier ainsi que la position des elements a l'ecran
    0000289E 53F3                   MOV.L       @(12,R15),R3
    000028A0 3380                   CMP/EQ      R8,R3
    000028A2 8901                   BT          L2326
    000028A4 A118                   BRA         L1939
    000028A6 0009                   NOP
    000028A8              L2326:                            
    000028A8 51F5                   MOV.L       @(20,R15),R1
    000028AA 2118                   TST         R1,R1
    000028AC 8901                   BT          L2327
    000028AE A113                   BRA         L1939
    000028B0 0009                   NOP
    000028B2              L2327:                            
    000028B2 60A3                   MOV         R10,R0
    000028B4 4011                   CMP/PZ      R0
    000028B6 8B01                   BF          L1941
    000028B8 A005                   BRA         L1942
    000028BA C901                   AND         #1,R0
    000028BC              L1941:                            
    000028BC 6007                   NOT         R0,R0
    000028BE 7001                   ADD         #1,R0
    000028C0 C901                   AND         #1,R0
    000028C2 6007                   NOT         R0,R0
    000028C4 7001                   ADD         #1,R0
    000028C6              L1942:                            
    000028C6 9430                   MOV.W       L2325,R4   ; H'7547
    000028C8 D31C                   MOV.L       L2325+18,R3; _IsKeyDown
    000028CA 430B                   JSR         @R3
    000028CC 6903                   MOV         R0,R9
    000028CE 2008                   TST         R0,R0
    000028D0 8936                   BT          L1940
          Menu.c   898            {
          Menu.c   899                if (IsKeyDown(KEY_CTRL_DOWN))
          Menu.c   900                {




SH SERIES C/C++ Compiler (Ver. 6.0C)                                                                 30-Jan-2015 21:53:33  PAGE  112


SCT OFFSET   CODE       C LABEL     INSTRUCTION OPERAND    COMMENT

          Menu.c   901                    if (position == 0)
    000028D2 53F6                   MOV.L       @(24,R15),R3
    000028D4 2338                   TST         R3,R3
    000028D6 8B11                   BF          L1943
          Menu.c   902                    {
          Menu.c   903                        if (selection%2<1)
    000028D8 39E3                   CMP/GE      R14,R9
    000028DA 8903                   BT          L1944
          Menu.c   904                            vNext = v-8;
    000028DC 6283                   MOV         R8,R2
    000028DE 72F8                   ADD         #-8,R2
    000028E0 A002                   BRA         L1945
    000028E2 1F23                   MOV.L       R2,@(12,R15)
    000028E4              L1944:                            
          Menu.c   905                        else keyDown = 6;
    000028E4 E106                   MOV         #6,R1
    000028E6 1F15                   MOV.L       R1,@(20,R15)
    000028E8              L1945:                            
          Menu.c   906    
          Menu.c   907                        u += (selection%2<1?27:19);
    000028E8 39E3                   CMP/GE      R14,R9
    000028EA 8901                   BT          L1946
    000028EC A001                   BRA         L1947
    000028EE E31B                   MOV         #27,R3
    000028F0              L1946:                            
    000028F0 E313                   MOV         #19,R3
    000028F2              L1947:                            
    000028F2 62F2                   MOV.L       @R15,R2
    000028F4 323C                   ADD         R3,R2
    000028F6 2F22                   MOV.L       R2,@R15
    000028F8 A015                   BRA         L1172
          Menu.c   908                        position = 1;
    000028FA 1FE6                   MOV.L       R14,@(24,R15)
    000028FC              L1943:                            
          Menu.c   909                        selection++;
          Menu.c   910                    }
          Menu.c   911                    else if (v > -201)
    000028FC 9416                   MOV.W       L2325+2,R4 ; H'FF37
    000028FE 3847                   CMP/GT      R4,R8
    00002900 8901                   BT          L2328
    00002902 A118                   BRA         L1983
    00002904 0009                   NOP
    00002906              L2328:                            
          Menu.c   912                    {
          Menu.c   913                        vNext = v-(selection%2<1?27:19);
    00002906 39E3                   CMP/GE      R14,R9
    00002908 8901                   BT          L1950
    0000290A A001                   BRA         L1951
    0000290C E21B                   MOV         #27,R2
    0000290E              L1950:                            
    0000290E E213                   MOV         #19,R2
    00002910              L1951:                            
    00002910 6383                   MOV         R8,R3
    00002912 3328                   SUB         R2,R3
          Menu.c   914                        u += (selection%2<1?27:19);
    00002914 39E3                   CMP/GE      R14,R9
    00002916 8D02                   BT/S        L1952




SH SERIES C/C++ Compiler (Ver. 6.0C)                                                                 30-Jan-2015 21:53:33  PAGE  113


SCT OFFSET   CODE       C LABEL     INSTRUCTION OPERAND    COMMENT

    00002918 1F33                   MOV.L       R3,@(12,R15)
    0000291A A001                   BRA         L1953
    0000291C E21B                   MOV         #27,R2
    0000291E              L1952:                            
    0000291E E213                   MOV         #19,R2
    00002920              L1953:                            
    00002920 61F2                   MOV.L       @R15,R1
    00002922 312C                   ADD         R2,R1
    00002924 2F12                   MOV.L       R1,@R15
    00002926              L1172:
          Menu.c   915                        selection++;
    00002926 A106                   BRA         L1983
    00002928 7A01                   ADD         #1,R10
    0000292A              L2325:                            
    0000292A 7547                   .DATA.W     H'7547
    0000292C FF37                   .DATA.W     H'FF37
    0000292E 0000                   .DATA.W     0
    00002930 <00000000>             .DATA.L     _PrintMini
    00002934 <00000000>             .DATA.L     _animationSucces
    00002938 <00000000>             .DATA.L     _ML_display_vram
    0000293C <00000000>             .DATA.L     _IsKeyDown
    00002940              L1940:                            
          Menu.c   916                    }
          Menu.c   917                }
          Menu.c   918                else if (IsKeyDown(KEY_CTRL_UP))
    00002940 942F                   MOV.W       L2329,R4   ; H'7542
    00002942 D218                   MOV.L       L2329+2,R2 ; _IsKeyDown
    00002944 420B                   JSR         @R2
    00002946 0009                   NOP
    00002948 2008                   TST         R0,R0
    0000294A 892D                   BT          L1955
          Menu.c   919                {
          Menu.c   920                    if (position == 1)
    0000294C 50F6                   MOV.L       @(24,R15),R0
    0000294E 8801                   CMP/EQ      #1,R0
    00002950 8B11                   BF          L1956
          Menu.c   921                    {
          Menu.c   922                        if (selection%2>=1)
    00002952 39E3                   CMP/GE      R14,R9
    00002954 8B03                   BF          L1957
          Menu.c   923                            vNext = v+8;
    00002956 6383                   MOV         R8,R3
    00002958 7308                   ADD         #8,R3
    0000295A A002                   BRA         L1958
    0000295C 1F33                   MOV.L       R3,@(12,R15)
    0000295E              L1957:                            
          Menu.c   924                        else keyDown = 6;
    0000295E E106                   MOV         #6,R1
    00002960 1F15                   MOV.L       R1,@(20,R15)
    00002962              L1958:                            
          Menu.c   925    
          Menu.c   926                        u -= (selection%2<1?19:27);
    00002962 39E3                   CMP/GE      R14,R9
    00002964 8901                   BT          L1959
    00002966 A001                   BRA         L1960
    00002968 E313                   MOV         #19,R3
    0000296A              L1959:                            




SH SERIES C/C++ Compiler (Ver. 6.0C)                                                                 30-Jan-2015 21:53:33  PAGE  114


SCT OFFSET   CODE       C LABEL     INSTRUCTION OPERAND    COMMENT

    0000296A E31B                   MOV         #27,R3
    0000296C              L1960:                            
    0000296C 62F2                   MOV.L       @R15,R2
    0000296E 3238                   SUB         R3,R2
    00002970 2F22                   MOV.L       R2,@R15
    00002972 A014                   BRA         L1171
          Menu.c   927                        position = 0;
    00002974 1FB6                   MOV.L       R11,@(24,R15)
    00002976              L1956:                            
          Menu.c   928                        selection--;
          Menu.c   929                    }
          Menu.c   930                    else if (v < 14)
    00002976 E30E                   MOV         #14,R3
    00002978 3833                   CMP/GE      R3,R8
    0000297A 8B01                   BF          L2330
    0000297C A0DB                   BRA         L1983
    0000297E 0009                   NOP
    00002980              L2330:                            
          Menu.c   931                    {
          Menu.c   932                        vNext = v+(selection%2<1?19:27);
    00002980 39E3                   CMP/GE      R14,R9
    00002982 8901                   BT          L1963
    00002984 A001                   BRA         L1964
    00002986 E113                   MOV         #19,R1
    00002988              L1963:                            
    00002988 E11B                   MOV         #27,R1
    0000298A              L1964:                            
    0000298A 318C                   ADD         R8,R1
          Menu.c   933                        u -= (selection%2<1?19:27);
    0000298C 39E3                   CMP/GE      R14,R9
    0000298E 8D02                   BT/S        L1965
    00002990 1F13                   MOV.L       R1,@(12,R15)
    00002992 A001                   BRA         L1966
    00002994 E313                   MOV         #19,R3
    00002996              L1965:                            
    00002996 E31B                   MOV         #27,R3
    00002998              L1966:                            
    00002998 62F2                   MOV.L       @R15,R2
    0000299A 3238                   SUB         R3,R2
    0000299C 2F22                   MOV.L       R2,@R15
    0000299E              L1171:
          Menu.c   934                        selection--;
    0000299E A0CA                   BRA         L1983
    000029A0 7AFF                   ADD         #-1,R10
    000029A2              L2329:                            
    000029A2 7542                   .DATA.W     H'7542
    000029A4 <00000000>             .DATA.L     _IsKeyDown
    000029A8              L1955:                            
          Menu.c   935                    }
          Menu.c   936                }
          Menu.c   937                else if (IsKeyDown(KEY_CTRL_EXE) && exeDown == 0) // si on appuie sur EXE
    000029A8 948D                   MOV.W       L2331,R4   ; H'7534
    000029AA D248                   MOV.L       L2331+6,R2 ; _IsKeyDown
    000029AC 420B                   JSR         @R2
    000029AE 0009                   NOP
    000029B0 2008                   TST         R0,R0
    000029B2 8B01                   BF          L2332




SH SERIES C/C++ Compiler (Ver. 6.0C)                                                                 30-Jan-2015 21:53:33  PAGE  115


SCT OFFSET   CODE       C LABEL     INSTRUCTION OPERAND    COMMENT

    000029B4 A0BF                   BRA         L1983
    000029B6 0009                   NOP
    000029B8              L2332:                            
    000029B8 52F8                   MOV.L       @(32,R15),R2
    000029BA 2228                   TST         R2,R2
    000029BC 8901                   BT          L2333
    000029BE A0BA                   BRA         L1983
    000029C0 0009                   NOP
    000029C2              L2333:                            
    000029C2 63A3                   MOV         R10,R3
          Menu.c   938                {
          Menu.c   939                    exeDown = 1; // pour viter l'appui constant sur EXE
    000029C4 1FE8                   MOV.L       R14,@(32,R15)
    000029C6 73FF                   ADD         #-1,R3
    000029C8 64D2                   MOV.L       @R13,R4
    000029CA 6243                   MOV         R4,R2
    000029CC 332C                   ADD         R2,R3
    000029CE 6130                   MOV.B       @R3,R1
    000029D0 2118                   TST         R1,R1
    000029D2 8B43                   BF          L1969
    000029D4 9378                   MOV.W       L2331+2,R3 ; H'00AC
    000029D6 E078                   MOV         #120,R0
    000029D8 014E                   MOV.L       @(R0,R4),R1
    000029DA 69A3                   MOV         R10,R9
    000029DC 79FF                   ADD         #-1,R9
    000029DE 4908                   SHLL2       R9
    000029E0 33FC                   ADD         R15,R3
    000029E2 393C                   ADD         R3,R9
    000029E4 6292                   MOV.L       @R9,R2
    000029E6 3123                   CMP/GE      R2,R1
    000029E8 8901                   BT          L2334
    000029EA A0A4                   BRA         L1983
    000029EC 0009                   NOP
    000029EE              L2334:                            
    000029EE 52F4                   MOV.L       @(16,R15),R2
    000029F0 4200                   SHLL        R2
    000029F2 7202                   ADD         #2,R2
    000029F4 32A3                   CMP/GE      R10,R2
    000029F6 8901                   BT          L2335
    000029F8 A09D                   BRA         L1983
    000029FA 0009                   NOP
    000029FC              L2335:                            
          Menu.c   940    
          Menu.c   941                    if (sauvegarde->gadget[selection-1] == 0) // si on a pas achete le gadget
          Menu.c   942                    {
          Menu.c   943                        if (sauvegarde->argent >= gadgetsCost[selection-1] && gadgetsCount*2+2 >= selection) /
                         +/ si on a assez d'argent et si il est debloque
          Menu.c   944                        {
          Menu.c   945                            sauvegarde->statTotal[6] += gadgetsCost[selection-1];
    000029FC 6392                   MOV.L       @R9,R3
    000029FE E050                   MOV         #80,R0
    00002A00 024E                   MOV.L       @(R0,R4),R2
    00002A02 323C                   ADD         R3,R2
    00002A04 0426                   MOV.L       R2,@(R0,R4)
          Menu.c   946                            sauvegarde->argent -= gadgetsCost[selection-1]; // on paye
    00002A06 E078                   MOV         #120,R0
    00002A08 6392                   MOV.L       @R9,R3




SH SERIES C/C++ Compiler (Ver. 6.0C)                                                                 30-Jan-2015 21:53:33  PAGE  116


SCT OFFSET   CODE       C LABEL     INSTRUCTION OPERAND    COMMENT

    00002A0A 61D2                   MOV.L       @R13,R1
          Menu.c   947                            sauvegarde->gadget[selection-1] = 1; // on indique qu'il est debloque
          Menu.c   948    
          Menu.c   949                            if (sauvegarde->statTotal[6] >= 50000 && sauvegarde->succes[21] != -1) sauvegarde-
                         +>succes[21] = -1, animation = 2;
    00002A0C D430                   MOV.L       L2331+10,R4; H'0000C350
    00002A0E 021E                   MOV.L       @(R0,R1),R2
    00002A10 3238                   SUB         R3,R2
    00002A12 63A3                   MOV         R10,R3
    00002A14 0126                   MOV.L       R2,@(R0,R1)
    00002A16 73FF                   ADD         #-1,R3
    00002A18 60D2                   MOV.L       @R13,R0
    00002A1A 03E4                   MOV.B       R14,@(R0,R3)
    00002A1C 62D2                   MOV.L       @R13,R2
    00002A1E E050                   MOV         #80,R0
    00002A20 032E                   MOV.L       @(R0,R2),R3
    00002A22 3343                   CMP/GE      R4,R3
    00002A24 8F09                   BF/S        L1971
    00002A26 E9FF                   MOV         #-1,R9
    00002A28 60D2                   MOV.L       @R13,R0
    00002A2A E175                   MOV         #117,R1
    00002A2C 001C                   MOV.B       @(R0,R1),R0
    00002A2E 88FF                   CMP/EQ      #-1,R0
    00002A30 8903                   BT          L1971
    00002A32 E075                   MOV         #117,R0
    00002A34 62D2                   MOV.L       @R13,R2
    00002A36 0294                   MOV.B       R9,@(R0,R2)
    00002A38 1FC7                   MOV.L       R12,@(28,R15)
    00002A3A              L1971:                            
          Menu.c   950                            if (sauvegarde->succes[3] != -1 && isAllBought() == 1) sauvegarde->succes[3] = -1,
                         + animation = 2;
    00002A3A E163                   MOV         #99,R1
    00002A3C 60D2                   MOV.L       @R13,R0
    00002A3E 001C                   MOV.B       @(R0,R1),R0
    00002A40 88FF                   CMP/EQ      #-1,R0
    00002A42 8B01                   BF          L2336
    00002A44 A077                   BRA         L1983
    00002A46 0009                   NOP
    00002A48              L2336:                            
    00002A48 D222                   MOV.L       L2331+14,R2; _isAllBought
    00002A4A 420B                   JSR         @R2
    00002A4C 0009                   NOP
    00002A4E 8801                   CMP/EQ      #1,R0
    00002A50 8B71                   BF          L1983
    00002A52 E063                   MOV         #99,R0
    00002A54 62D2                   MOV.L       @R13,R2
    00002A56 0294                   MOV.B       R9,@(R0,R2)
    00002A58 A06D                   BRA         L1983
    00002A5A 1FC7                   MOV.L       R12,@(28,R15)
    00002A5C              L1969:                            
          Menu.c   951                        }
          Menu.c   952                    }
          Menu.c   953                    else if (sauvegarde->gadget[selection-1] == 1) // si il est debloque
    00002A5C 60A3                   MOV         R10,R0
    00002A5E 70FF                   ADD         #-1,R0
    00002A60 004C                   MOV.B       @(R0,R4),R0
    00002A62 600C                   EXTU.B      R0,R0




SH SERIES C/C++ Compiler (Ver. 6.0C)                                                                 30-Jan-2015 21:53:33  PAGE  117


SCT OFFSET   CODE       C LABEL     INSTRUCTION OPERAND    COMMENT

    00002A64 8801                   CMP/EQ      #1,R0
    00002A66 8B17                   BF          L1974
          Menu.c   954                    {
          Menu.c   955                        if (sauvegarde->gadgetEquipe[0] == 0)
    00002A68 844C                   MOV.B       @(12,R4),R0
    00002A6A 2008                   TST         R0,R0
    00002A6C 8B08                   BF          L1975
          Menu.c   956                        {
          Menu.c   957                           sauvegarde->gadget[selection-1] = 2;
    00002A6E 62A3                   MOV         R10,R2
    00002A70 72FF                   ADD         #-1,R2
    00002A72 6343                   MOV         R4,R3
    00002A74 323C                   ADD         R3,R2
          Menu.c   958                           sauvegarde->gadgetEquipe[0] = selection;
    00002A76 60A3                   MOV         R10,R0
    00002A78 22C0                   MOV.B       R12,@R2
    00002A7A 62D2                   MOV.L       @R13,R2
    00002A7C A05B                   BRA         L1983
    00002A7E 802C                   MOV.B       R0,@(12,R2)
    00002A80              L1975:                            
          Menu.c   959                        }
          Menu.c   960                        else if (sauvegarde->gadgetEquipe[1] == 0)
    00002A80 844D                   MOV.B       @(13,R4),R0
    00002A82 2008                   TST         R0,R0
    00002A84 8B57                   BF          L1983
          Menu.c   961                        {
          Menu.c   962                           sauvegarde->gadget[selection-1] = 2;
    00002A86 62A3                   MOV         R10,R2
    00002A88 72FF                   ADD         #-1,R2
    00002A8A 6343                   MOV         R4,R3
    00002A8C 323C                   ADD         R3,R2
          Menu.c   963                           sauvegarde->gadgetEquipe[1] = selection;
    00002A8E 60A3                   MOV         R10,R0
    00002A90 22C0                   MOV.B       R12,@R2
    00002A92 62D2                   MOV.L       @R13,R2
    00002A94 A04F                   BRA         L1983
    00002A96 802D                   MOV.B       R0,@(13,R2)
    00002A98              L1974:                            
          Menu.c   964                        }
          Menu.c   965                    }
          Menu.c   966                    else if (sauvegarde->gadget[selection-1] == 2) // si il est equipe
    00002A98 8802                   CMP/EQ      #2,R0
    00002A9A 8B4C                   BF          L1983
          Menu.c   967                    {
          Menu.c   968                        sauvegarde->gadget[selection-1] = 1; // on l'enleve
    00002A9C 62A3                   MOV         R10,R2
    00002A9E 72FF                   ADD         #-1,R2
    00002AA0 6343                   MOV         R4,R3
    00002AA2 323C                   ADD         R3,R2
    00002AA4 22E0                   MOV.B       R14,@R2
    00002AA6 64D2                   MOV.L       @R13,R4
    00002AA8 6243                   MOV         R4,R2
    00002AAA 842C                   MOV.B       @(12,R2),R0
    00002AAC 600C                   EXTU.B      R0,R0
    00002AAE 30A0                   CMP/EQ      R10,R0
    00002AB0 8B02                   BF          L1980
          Menu.c   969    




SH SERIES C/C++ Compiler (Ver. 6.0C)                                                                 30-Jan-2015 21:53:33  PAGE  118


SCT OFFSET   CODE       C LABEL     INSTRUCTION OPERAND    COMMENT

          Menu.c   970                        if (sauvegarde->gadgetEquipe[0] == selection) sauvegarde->gadgetEquipe[0] = 0;
    00002AB2 60B3                   MOV         R11,R0
    00002AB4 A03F                   BRA         L1983
    00002AB6 804C                   MOV.B       R0,@(12,R4)
    00002AB8              L1980:                            
          Menu.c   971                        else if (sauvegarde->gadgetEquipe[1] == selection) sauvegarde->gadgetEquipe[1] = 0;
    00002AB8 844D                   MOV.B       @(13,R4),R0
    00002ABA 600C                   EXTU.B      R0,R0
    00002ABC 30A0                   CMP/EQ      R10,R0
    00002ABE 8B3A                   BF          L1983
    00002AC0 60B3                   MOV         R11,R0
    00002AC2 A038                   BRA         L1983
    00002AC4 804D                   MOV.B       R0,@(13,R4)
    00002AC6              L2331:                            
    00002AC6 7534                   .DATA.W     H'7534
    00002AC8 00AC                   .DATA.W     H'00AC
    00002ACA 0000                   .DATA.W     0
    00002ACC <00000000>             .DATA.L     _IsKeyDown
    00002AD0 0000C350               .DATA.L     H'0000C350
    00002AD4 <00000000>             .DATA.L     _isAllBought
    00002AD8              L1939:                            
          Menu.c   972                    }
          Menu.c   973                }
          Menu.c   974            }
          Menu.c   975            else
          Menu.c   976            {
          Menu.c   977                if (v < vNext) u += (vNext-v>2?3:1), v += (vNext-v>2?3:1);
    00002AD8 52F3                   MOV.L       @(12,R15),R2
    00002ADA 3823                   CMP/GE      R2,R8
    00002ADC 8911                   BT          L1984
    00002ADE 54F3                   MOV.L       @(12,R15),R4
    00002AE0 3488                   SUB         R8,R4
    00002AE2 34C7                   CMP/GT      R12,R4
    00002AE4 8B01                   BF          L1985
    00002AE6 A001                   BRA         L1987
    00002AE8 E103                   MOV         #3,R1
    00002AEA              L1985:                            
    00002AEA E101                   MOV         #1,R1
    00002AEC              L1987:                            
    00002AEC 63F2                   MOV.L       @R15,R3
    00002AEE 34C7                   CMP/GT      R12,R4
    00002AF0 331C                   ADD         R1,R3
    00002AF2 8F02                   BF/S        L1986
    00002AF4 2F32                   MOV.L       R3,@R15
    00002AF6 A001                   BRA         L1988
    00002AF8 E203                   MOV         #3,R2
    00002AFA              L1986:                            
    00002AFA E201                   MOV         #1,R2
    00002AFC              L1988:                            
    00002AFC 382C                   ADD         R2,R8
    00002AFE A014                   BRA         L1989
    00002B00 0009                   NOP
    00002B02              L1984:                            
          Menu.c   978                else if (v > vNext) u -= (v-vNext>2?3:1), v -= (v-vNext>2?3:1);
    00002B02 53F3                   MOV.L       @(12,R15),R3
    00002B04 3837                   CMP/GT      R3,R8
    00002B06 8B10                   BF          L1989




SH SERIES C/C++ Compiler (Ver. 6.0C)                                                                 30-Jan-2015 21:53:33  PAGE  119


SCT OFFSET   CODE       C LABEL     INSTRUCTION OPERAND    COMMENT

    00002B08 53F3                   MOV.L       @(12,R15),R3
    00002B0A 6483                   MOV         R8,R4
    00002B0C 3438                   SUB         R3,R4
    00002B0E 34C7                   CMP/GT      R12,R4
    00002B10 8B01                   BF          L1991
    00002B12 A001                   BRA         L1993
    00002B14 E103                   MOV         #3,R1
    00002B16              L1991:                            
    00002B16 E101                   MOV         #1,R1
    00002B18              L1993:                            
    00002B18 62F2                   MOV.L       @R15,R2
    00002B1A 34C7                   CMP/GT      R12,R4
    00002B1C 3218                   SUB         R1,R2
    00002B1E 8F02                   BF/S        L1992
    00002B20 2F22                   MOV.L       R2,@R15
    00002B22 A001                   BRA         L1994
    00002B24 E303                   MOV         #3,R3
    00002B26              L1992:                            
    00002B26 E301                   MOV         #1,R3
    00002B28              L1994:                            
    00002B28 3838                   SUB         R3,R8
    00002B2A              L1989:                            
          Menu.c   979    
          Menu.c   980                if (keyDown > 0) keyDown--;
    00002B2A 53F5                   MOV.L       @(20,R15),R3
    00002B2C 4315                   CMP/PL      R3
    00002B2E 8B02                   BF          L1983
    00002B30 51F5                   MOV.L       @(20,R15),R1
    00002B32 71FF                   ADD         #-1,R1
    00002B34 1F15                   MOV.L       R1,@(20,R15)
    00002B36              L1983:                            
          Menu.c   981            }
          Menu.c   982    
          Menu.c   983            if (IsKeyUp(KEY_CTRL_EXE)) exeDown = 0;
    00002B36 DD0E                   MOV.L       L2337+6,R13; _IsKeyUp
    00002B38 9417                   MOV.W       L2337,R4   ; H'7534
    00002B3A 4D0B                   JSR         @R13
    00002B3C 0009                   NOP
    00002B3E 2008                   TST         R0,R0
    00002B40 8900                   BT          L1996
    00002B42 1FB8                   MOV.L       R11,@(32,R15)
    00002B44              L1996:                            
          Menu.c   984    
          Menu.c   985        }while (IsKeyUp(KEY_CTRL_EXIT));
    00002B44 9C12                   MOV.W       L2337+2,R12; H'7532
    00002B46 4D0B                   JSR         @R13
    00002B48 64C3                   MOV         R12,R4
    00002B4A 2008                   TST         R0,R0
    00002B4C 8901                   BT          L2338
    00002B4E ACDE                   BRA         L1912
    00002B50 0009                   NOP
    00002B52              L2338:                            
          Menu.c   986    }
    00002B52 910C                   MOV.W       L2337+4,R1 ; H'00DC
    00002B54 3F1C                   ADD         R1,R15
    00002B56 4F16                   LDS.L       @R15+,MACL
    00002B58 4F26                   LDS.L       @R15+,PR




SH SERIES C/C++ Compiler (Ver. 6.0C)                                                                 30-Jan-2015 21:53:33  PAGE  120


SCT OFFSET   CODE       C LABEL     INSTRUCTION OPERAND    COMMENT

    00002B5A 68F6                   MOV.L       @R15+,R8
    00002B5C 69F6                   MOV.L       @R15+,R9
    00002B5E 6AF6                   MOV.L       @R15+,R10
    00002B60 6BF6                   MOV.L       @R15+,R11
    00002B62 6CF6                   MOV.L       @R15+,R12
    00002B64 6DF6                   MOV.L       @R15+,R13
    00002B66 000B                   RTS
    00002B68 6EF6                   MOV.L       @R15+,R14
    00002B6A              L2337:                            
    00002B6A 7534                   .DATA.W     H'7534
    00002B6C 7532                   .DATA.W     H'7532
    00002B6E 00DC                   .DATA.W     H'00DC
    00002B70 <00000000>             .DATA.L     _IsKeyUp
          Menu.c   987    
          Menu.c   988    void statMenu()
    00002B74              _statMenu:                       ; function: statMenu
                                                           ; frame size=212
                                                           ; used runtime library name:
                                                           ; __quick_mvn, __slow_mvn, __quick_evn_mvn
    00002B74 2FE6                   MOV.L       R14,@-R15
          Menu.c   989    {
          Menu.c   990        int x, y, u = 22, v = 14, vNext = 14, selection = 0, actualPos = 0, totalCount = 0, waitTime = 0;
    00002B76 E40E                   MOV         #14,R4
          Menu.c   991    
          Menu.c   992        char *secteurs[4] = {"MEILLEURS SCORES", "MEILLEURS SCORES EN VEHICULES", "TOTAL", "MORTS"};
    00002B78 917D                   MOV.W       L2339+2,R1 ; H'0088
    00002B7A 2FD6                   MOV.L       R13,@-R15
    00002B7C 2FC6                   MOV.L       R12,@-R15
    00002B7E 2FB6                   MOV.L       R11,@-R15
    00002B80 2FA6                   MOV.L       R10,@-R15
    00002B82 EB00                   MOV         #0,R11
    00002B84 D23C                   MOV.L       L2339+4,R2 ; L959
    00002B86 6A43                   MOV         R4,R10
    00002B88 D33C                   MOV.L       L2339+8,R3 ; __quick_evn_mvn
    00002B8A 2F96                   MOV.L       R9,@-R15
    00002B8C 2F86                   MOV.L       R8,@-R15
    00002B8E 69B3                   MOV         R11,R9
    00002B90 9070                   MOV.W       L2339,R0   ; H'FF68
    00002B92 E816                   MOV         #22,R8
    00002B94 4F22                   STS.L       PR,@-R15
    00002B96 3F0C                   ADD         R0,R15
    00002B98 1F42                   MOV.L       R4,@(8,R15)
    00002B9A 31FC                   ADD         R15,R1
    00002B9C 2FB2                   MOV.L       R11,@R15
    00002B9E 1FB4                   MOV.L       R11,@(16,R15)
    00002BA0 430B                   JSR         @R3
    00002BA2 E010                   MOV         #16,R0
          Menu.c   993        char *statNames[22] = {"Meilleur Score", "Max pieces collectees", "Max jetons collectes", "Becane d'en
                         +fer", "Teleporteur", "Gravity Guy",  "Oiseau Benef", "P'tit Ecraseur", "Mr Calin", "Total de parties", "Di
                         +stance parcourue", "Total de pieces", "Total de jetons", "Total de vehicules", "Prix du tirage final", "Pi
                         +eces depensees", "Mort par zappeur", "Mort par laser", "Mort par missile", "Distance etant mort", "Pieces 
                         +etant mort", "Jetons etant mort"};
    00002BA4 D236                   MOV.L       L2339+12,R2; L965
    00002BA6 61F3                   MOV         R15,R1
    00002BA8 D336                   MOV.L       L2339+16,R3; __quick_mvn
    00002BAA 7130                   ADD         #48,R1
    00002BAC 430B                   JSR         @R3




SH SERIES C/C++ Compiler (Ver. 6.0C)                                                                 30-Jan-2015 21:53:33  PAGE  121


SCT OFFSET   CODE       C LABEL     INSTRUCTION OPERAND    COMMENT

    00002BAE E058                   MOV         #88,R0
          Menu.c   994        char statCount[4] = {3,6,7,6};
    00002BB0 D235                   MOV.L       L2339+20,R2; L984
    00002BB2 61F3                   MOV         R15,R1
    00002BB4 D335                   MOV.L       L2339+24,R3; __slow_mvn
    00002BB6 712C                   ADD         #44,R1
    00002BB8 430B                   JSR         @R3
    00002BBA E004                   MOV         #4,R0
    00002BBC EE01                   MOV         #1,R14
          Menu.c   995        char stat[8];
          Menu.c   996    
          Menu.c   997        do
    00002BBE              L1997:                            
          Menu.c   998        {
          Menu.c   999            totalCount = 0;
          Menu.c  1000    
          Menu.c  1001            ML_clear_vram();
    00002BBE D334                   MOV.L       L2339+28,R3; _ML_clear_vram
    00002BC0 430B                   JSR         @R3
    00002BC2 1FB1                   MOV.L       R11,@(4,R15)
          Menu.c  1002    
          Menu.c  1003            for(x = 0; x < 4; x++) // il y a 6 secteurs
    00002BC4 6CB3                   MOV         R11,R12
    00002BC6              L1998:                            
          Menu.c  1004            {
          Menu.c  1005                if (x != 0) totalCount += statCount[x-1];
    00002BC6 2CC8                   TST         R12,R12
    00002BC8 8908                   BT          L1999
    00002BCA 63C3                   MOV         R12,R3
    00002BCC 73FF                   ADD         #-1,R3
    00002BCE 62F3                   MOV         R15,R2
    00002BD0 722C                   ADD         #44,R2
    00002BD2 332C                   ADD         R2,R3
    00002BD4 6130                   MOV.B       @R3,R1
    00002BD6 53F1                   MOV.L       @(4,R15),R3
    00002BD8 331C                   ADD         R1,R3
    00002BDA 1F31                   MOV.L       R3,@(4,R15)
    00002BDC              L1999:                            
          Menu.c  1006    
          Menu.c  1007                ML_rectangle(0,v+8*(totalCount+2*x),127,v+8*(totalCount+2*x+1),1,ML_BLACK,ML_WHITE); // le rec
                         +tange "secteur"
    00002BDC 2FB6                   MOV.L       R11,@-R15
    00002BDE 6DC3                   MOV         R12,R13
    00002BE0 D22C                   MOV.L       L2339+32,R2; _ML_rectangle
    00002BE2 E67F                   MOV         #127,R6
    00002BE4 2FE6                   MOV.L       R14,@-R15
    00002BE6 4D00                   SHLL        R13
    00002BE8 2FE6                   MOV.L       R14,@-R15
    00002BEA 1FD8                   MOV.L       R13,@(32,R15)
    00002BEC 53F4                   MOV.L       @(16,R15),R3
    00002BEE 3D3C                   ADD         R3,R13
    00002BF0 67D3                   MOV         R13,R7
    00002BF2 7701                   ADD         #1,R7
    00002BF4 4708                   SHLL2       R7
    00002BF6 4700                   SHLL        R7
    00002BF8 37AC                   ADD         R10,R7
    00002BFA 65D3                   MOV         R13,R5




SH SERIES C/C++ Compiler (Ver. 6.0C)                                                                 30-Jan-2015 21:53:33  PAGE  122


SCT OFFSET   CODE       C LABEL     INSTRUCTION OPERAND    COMMENT

    00002BFC 4508                   SHLL2       R5
    00002BFE 4500                   SHLL        R5
    00002C00 35AC                   ADD         R10,R5
    00002C02 1F56                   MOV.L       R5,@(24,R15)
    00002C04 420B                   JSR         @R2
    00002C06 E400                   MOV         #0,R4
          Menu.c  1008                PrintMini(2,v+2+8*(totalCount+2*x),secteurs[x],0); // on affiche le nom du secteur
    00002C08 9335                   MOV.W       L2339+2,R3 ; H'0088
    00002C0A 7F0C                   ADD         #12,R15
    00002C0C D222                   MOV.L       L2339+36,R2; _PrintMini
    00002C0E E700                   MOV         #0,R7
    00002C10 55F3                   MOV.L       @(12,R15),R5
    00002C12 66C3                   MOV         R12,R6
    00002C14 4608                   SHLL2       R6
    00002C16 33FC                   ADD         R15,R3
    00002C18 363C                   ADD         R3,R6
    00002C1A 7502                   ADD         #2,R5
    00002C1C 6662                   MOV.L       @R6,R6
    00002C1E 420B                   JSR         @R2
    00002C20 E402                   MOV         #2,R4
          Menu.c  1009    
          Menu.c  1010                for (y = 0; y < statCount[x]; y++)
    00002C22 6DB3                   MOV         R11,R13
    00002C24 63F3                   MOV         R15,R3
    00002C26 732C                   ADD         #44,R3
    00002C28 33CC                   ADD         R12,R3
    00002C2A 2CC8                   TST         R12,R12
    00002C2C 1F36                   MOV.L       R3,@(24,R15)
    00002C2E 0029                   MOVT        R0
    00002C30 A072                   BRA         L2001
    00002C32 1F07                   MOV.L       R0,@(28,R15)
    00002C34              L2002:                            
          Menu.c  1011                {
          Menu.c  1012                    sprintf(stat,"%d",x==0?sauvegarde->statScore[y]:x==1?sauvegarde->statVehicule[y]:x==2?sauv
                         +egarde->statTotal[y]:sauvegarde->statMort[y]);
    00002C34 53F7                   MOV.L       @(28,R15),R3
    00002C36 2338                   TST         R3,R3
    00002C38 8905                   BT          L2003
    00002C3A 62D3                   MOV         R13,R2
    00002C3C D317                   MOV.L       L2339+40,R3; _sauvegarde
    00002C3E 4200                   SHLL        R2
    00002C40 6132                   MOV.L       @R3,R1
    00002C42 A008                   BRA         L2234
    00002C44 7126                   ADD         #38,R1
    00002C46              L2003:                            
    00002C46 60C3                   MOV         R12,R0
    00002C48 8801                   CMP/EQ      #1,R0
    00002C4A 8B09                   BF          L2004
    00002C4C D313                   MOV.L       L2339+40,R3; _sauvegarde
    00002C4E 62D3                   MOV         R13,R2
    00002C50 6132                   MOV.L       @R3,R1
    00002C52 4200                   SHLL        R2
    00002C54 712C                   ADD         #44,R1
    00002C56              L2234:                            
    00002C56 321C                   ADD         R1,R2
    00002C58 6021                   MOV.W       @R2,R0
    00002C5A 600D                   EXTU.W      R0,R0




SH SERIES C/C++ Compiler (Ver. 6.0C)                                                                 30-Jan-2015 21:53:33  PAGE  123


SCT OFFSET   CODE       C LABEL     INSTRUCTION OPERAND    COMMENT

    00002C5C A029                   BRA         L2006
    00002C5E 2F06                   MOV.L       R0,@-R15
    00002C60              L2004:                            
    00002C60 8802                   CMP/EQ      #2,R0
    00002C62 8B1D                   BF          L2005
    00002C64 D30D                   MOV.L       L2339+40,R3; _sauvegarde
    00002C66 62D3                   MOV         R13,R2
    00002C68 6132                   MOV.L       @R3,R1
    00002C6A 4208                   SHLL2       R2
    00002C6C 7138                   ADD         #56,R1
    00002C6E 321C                   ADD         R1,R2
    00002C70 A01E                   BRA         L2233
    00002C72 6022                   MOV.L       @R2,R0
    00002C74              L2339:                            
    00002C74 FF68                   .DATA.W     H'FF68
    00002C76 0088                   .DATA.W     H'0088
    00002C78 <00000000>             .DATA.L     L959
    00002C7C <00000000>             .DATA.L     __quick_evn_mvn
    00002C80 <00000000>             .DATA.L     L965
    00002C84 <00000000>             .DATA.L     __quick_mvn
    00002C88 <00000000>             .DATA.L     L984
    00002C8C <00000000>             .DATA.L     __slow_mvn
    00002C90 <00000000>             .DATA.L     _ML_clear_vram
    00002C94 <00000000>             .DATA.L     _ML_rectangle
    00002C98 <00000000>             .DATA.L     _PrintMini
    00002C9C <00000000>             .DATA.L     _sauvegarde
    00002CA0              L2005:                            
    00002CA0 D346                   MOV.L       L2340+6,R3 ; _sauvegarde
    00002CA2 62D3                   MOV         R13,R2
    00002CA4 6132                   MOV.L       @R3,R1
    00002CA6 4200                   SHLL        R2
    00002CA8 7154                   ADD         #84,R1
    00002CAA 321C                   ADD         R1,R2
    00002CAC 6021                   MOV.W       @R2,R0
    00002CAE 600D                   EXTU.W      R0,R0
    00002CB0              L2233:                            
    00002CB0 2F06                   MOV.L       R0,@-R15
    00002CB2              L2006:                            
    00002CB2 D243                   MOV.L       L2340+10,R2; L844
    00002CB4 D343                   MOV.L       L2340+14,R3; _sprintf
    00002CB6 2F26                   MOV.L       R2,@-R15
    00002CB8 64F3                   MOV         R15,R4
    00002CBA 430B                   JSR         @R3
    00002CBC 742C                   ADD         #44,R4
          Menu.c  1013    
          Menu.c  1014                    ML_rectangle(0,v+8*(totalCount+2*x+y+1),127,v+8*(totalCount+2*x+y+2),1,ML_BLACK,ML_WHITE);
    00002CBE E67F                   MOV         #127,R6
    00002CC0 D241                   MOV.L       L2340+18,R2; _ML_rectangle
    00002CC2 2FB6                   MOV.L       R11,@-R15
    00002CC4 2FE6                   MOV.L       R14,@-R15
    00002CC6 2FE6                   MOV.L       R14,@-R15
    00002CC8 57FA                   MOV.L       @(40,R15),R7
    00002CCA 37DC                   ADD         R13,R7
    00002CCC 53F6                   MOV.L       @(24,R15),R3
    00002CCE 373C                   ADD         R3,R7
    00002CD0 1F78                   MOV.L       R7,@(32,R15)
    00002CD2 7702                   ADD         #2,R7




SH SERIES C/C++ Compiler (Ver. 6.0C)                                                                 30-Jan-2015 21:53:33  PAGE  124


SCT OFFSET   CODE       C LABEL     INSTRUCTION OPERAND    COMMENT

    00002CD4 55F8                   MOV.L       @(32,R15),R5
    00002CD6 4708                   SHLL2       R7
    00002CD8 4700                   SHLL        R7
    00002CDA 37AC                   ADD         R10,R7
    00002CDC 7501                   ADD         #1,R5
    00002CDE 4508                   SHLL2       R5
    00002CE0 4500                   SHLL        R5
    00002CE2 35AC                   ADD         R10,R5
    00002CE4 1F5D                   MOV.L       R5,@(52,R15)
    00002CE6 420B                   JSR         @R2
    00002CE8 E400                   MOV         #0,R4
    00002CEA 7F14                   ADD         #20,R15
          Menu.c  1015                    PrintMini(99,v+2+8*(totalCount+2*x+y+1),stat,0);
    00002CEC D337                   MOV.L       L2340+22,R3; _PrintMini
    00002CEE E700                   MOV         #0,R7
    00002CF0 55F8                   MOV.L       @(32,R15),R5
    00002CF2 66F3                   MOV         R15,R6
    00002CF4 7624                   ADD         #36,R6
    00002CF6 7502                   ADD         #2,R5
    00002CF8 1F53                   MOV.L       R5,@(12,R15)
    00002CFA 430B                   JSR         @R3
    00002CFC E463                   MOV         #99,R4
          Menu.c  1016                    PrintMini(2,v+2+8*(totalCount+2*x+y+1),statNames[totalCount+y],0);
    00002CFE E700                   MOV         #0,R7
    00002D00 56F1                   MOV.L       @(4,R15),R6
    00002D02 63F3                   MOV         R15,R3
    00002D04 55F3                   MOV.L       @(12,R15),R5
    00002D06 36DC                   ADD         R13,R6
    00002D08 D230                   MOV.L       L2340+22,R2; _PrintMini
    00002D0A 7330                   ADD         #48,R3
    00002D0C 4608                   SHLL2       R6
    00002D0E 363C                   ADD         R3,R6
    00002D10 6662                   MOV.L       @R6,R6
    00002D12 420B                   JSR         @R2
    00002D14 E402                   MOV         #2,R4
    00002D16 7D01                   ADD         #1,R13
    00002D18              L2001:                            
    00002D18 53F6                   MOV.L       @(24,R15),R3
    00002D1A 6230                   MOV.B       @R3,R2
    00002D1C 3D23                   CMP/GE      R2,R13
    00002D1E 8B89                   BF          L2002
    00002D20 7C01                   ADD         #1,R12
    00002D22 E204                   MOV         #4,R2
    00002D24 3C23                   CMP/GE      R2,R12
    00002D26 8901                   BT          L2341
    00002D28 AF4D                   BRA         L1998
    00002D2A 0009                   NOP
    00002D2C              L2341:                            
          Menu.c  1017                }
          Menu.c  1018            }
          Menu.c  1019    
          Menu.c  1020            ML_rectangle(0,u,127,u+8,1,ML_BLACK,ML_XOR); // on affiche la position du curseur
    00002D2C D326                   MOV.L       L2340+18,R3; _ML_rectangle
    00002D2E E102                   MOV         #2,R1
    00002D30 2F16                   MOV.L       R1,@-R15
    00002D32 6783                   MOV         R8,R7
    00002D34 2FE6                   MOV.L       R14,@-R15




SH SERIES C/C++ Compiler (Ver. 6.0C)                                                                 30-Jan-2015 21:53:33  PAGE  125


SCT OFFSET   CODE       C LABEL     INSTRUCTION OPERAND    COMMENT

    00002D36 E67F                   MOV         #127,R6
    00002D38 2FE6                   MOV.L       R14,@-R15
    00002D3A 7708                   ADD         #8,R7
    00002D3C 6583                   MOV         R8,R5
    00002D3E 430B                   JSR         @R3
    00002D40 E400                   MOV         #0,R4
          Menu.c  1021    
          Menu.c  1022            ML_rectangle(26,0,100,13,1,ML_WHITE,ML_WHITE); // on gere la transparence de l'en-tete
    00002D42 E200                   MOV         #0,R2
    00002D44 D320                   MOV.L       L2340+18,R3; _ML_rectangle
    00002D46 E70D                   MOV         #13,R7
    00002D48 2F26                   MOV.L       R2,@-R15
    00002D4A E664                   MOV         #100,R6
    00002D4C 2F26                   MOV.L       R2,@-R15
    00002D4E 6523                   MOV         R2,R5
    00002D50 2FE6                   MOV.L       R14,@-R15
    00002D52 430B                   JSR         @R3
    00002D54 E41A                   MOV         #26,R4
          Menu.c  1023    
          Menu.c  1024            ML_bmp_or(statistiquesTop,0,0,128,16); // on affiche le sprite de l'entete
    00002D56 E210                   MOV         #16,R2
    00002D58 972D                   MOV.W       L2340,R7   ; H'0080
    00002D5A E600                   MOV         #0,R6
    00002D5C D41C                   MOV.L       L2340+26,R4; __$statistiquesTop
    00002D5E 2F26                   MOV.L       R2,@-R15
    00002D60 D31C                   MOV.L       L2340+30,R3; _ML_bmp_or
    00002D62 430B                   JSR         @R3
    00002D64 6563                   MOV         R6,R5
          Menu.c  1025    
          Menu.c  1026            ML_display_vram();
    00002D66 D21C                   MOV.L       L2340+34,R2; _ML_display_vram
    00002D68 420B                   JSR         @R2
    00002D6A 7F1C                   ADD         #28,R15
          Menu.c  1027    
          Menu.c  1028            if (vNext == v) // on gere le clavier ainsi que la position des elements a l'ecran
    00002D6C 53F2                   MOV.L       @(8,R15),R3
    00002D6E 33A0                   CMP/EQ      R10,R3
    00002D70 8901                   BT          L2342
    00002D72 A07B                   BRA         L2009
    00002D74 0009                   NOP
    00002D76              L2342:                            
          Menu.c  1029            {
          Menu.c  1030                if (IsKeyDown(KEY_CTRL_DOWN) && !(actualPos == 3 && statCount[actualPos]-1 == selection) && wa
                         +itTime == 0)
    00002D76 941F                   MOV.W       L2340+2,R4 ; H'7547
    00002D78 D318                   MOV.L       L2340+38,R3; _IsKeyDown
    00002D7A 430B                   JSR         @R3
    00002D7C 0009                   NOP
    00002D7E 2008                   TST         R0,R0
    00002D80 8948                   BT          L2010
    00002D82 60F2                   MOV.L       @R15,R0
    00002D84 8803                   CMP/EQ      #3,R0
    00002D86 8B07                   BF          L2011
    00002D88 62F2                   MOV.L       @R15,R2
    00002D8A 63F3                   MOV         R15,R3
    00002D8C 732C                   ADD         #44,R3
    00002D8E 323C                   ADD         R3,R2




SH SERIES C/C++ Compiler (Ver. 6.0C)                                                                 30-Jan-2015 21:53:33  PAGE  126


SCT OFFSET   CODE       C LABEL     INSTRUCTION OPERAND    COMMENT

    00002D90 6120                   MOV.B       @R2,R1
    00002D92 71FF                   ADD         #-1,R1
    00002D94 3190                   CMP/EQ      R9,R1
    00002D96 893D                   BT          L2010
    00002D98              L2011:                            
    00002D98 53F4                   MOV.L       @(16,R15),R3
    00002D9A 2338                   TST         R3,R3
    00002D9C 8B3A                   BF          L2010
          Menu.c  1031                {
          Menu.c  1032                    waitTime = 8;
    00002D9E E308                   MOV         #8,R3
    00002DA0 1F34                   MOV.L       R3,@(16,R15)
          Menu.c  1033                    u += (selection==statCount[actualPos]-1?24:8);
    00002DA2 63F3                   MOV         R15,R3
    00002DA4 64F2                   MOV.L       @R15,R4
    00002DA6 732C                   ADD         #44,R3
    00002DA8 343C                   ADD         R3,R4
    00002DAA 6240                   MOV.B       @R4,R2
    00002DAC 72FF                   ADD         #-1,R2
    00002DAE 3920                   CMP/EQ      R2,R9
    00002DB0 8B16                   BF          L2012
    00002DB2 A016                   BRA         L2013
    00002DB4 E218                   MOV         #24,R2
    00002DB6              L2340:                            
    00002DB6 0080                   .DATA.W     H'0080
    00002DB8 7547                   .DATA.W     H'7547
    00002DBA 0000                   .DATA.W     0
    00002DBC <00000000>             .DATA.L     _sauvegarde
    00002DC0 <00000000>             .DATA.L     L844
    00002DC4 <00000000>             .DATA.L     _sprintf
    00002DC8 <00000000>             .DATA.L     _ML_rectangle
    00002DCC <00000000>             .DATA.L     _PrintMini
    00002DD0 <00000000>             .DATA.L     __$statistiquesTop
    00002DD4 <00000000>             .DATA.L     _ML_bmp_or
    00002DD8 <00000000>             .DATA.L     _ML_display_vram
    00002DDC <00000000>             .DATA.L     _IsKeyDown
    00002DE0              L2012:                            
    00002DE0 E208                   MOV         #8,R2
    00002DE2              L2013:                            
    00002DE2 382C                   ADD         R2,R8
          Menu.c  1034                    if (u > 40 && !(actualPos == 3 && selection > 3))
    00002DE4 E228                   MOV         #40,R2
    00002DE6 3827                   CMP/GT      R2,R8
    00002DE8 8B0A                   BF          L2014
    00002DEA 60F2                   MOV.L       @R15,R0
    00002DEC 8803                   CMP/EQ      #3,R0
    00002DEE 8B02                   BF          L2015
    00002DF0 E103                   MOV         #3,R1
    00002DF2 3917                   CMP/GT      R1,R9
    00002DF4 8904                   BT          L2014
    00002DF6              L2015:                            
          Menu.c  1035                    {
          Menu.c  1036                        vNext += 40 - u;
    00002DF6 E228                   MOV         #40,R2
    00002DF8 53F2                   MOV.L       @(8,R15),R3
    00002DFA 3288                   SUB         R8,R2
    00002DFC 332C                   ADD         R2,R3




SH SERIES C/C++ Compiler (Ver. 6.0C)                                                                 30-Jan-2015 21:53:33  PAGE  127


SCT OFFSET   CODE       C LABEL     INSTRUCTION OPERAND    COMMENT

    00002DFE 1F32                   MOV.L       R3,@(8,R15)
    00002E00              L2014:                            
          Menu.c  1037                    }
          Menu.c  1038                    selection++;
          Menu.c  1039    
          Menu.c  1040                    if (statCount[actualPos]-1 < selection) selection = 0, actualPos++;
    00002E00 6340                   MOV.B       @R4,R3
    00002E02 7901                   ADD         #1,R9
    00002E04 73FF                   ADD         #-1,R3
    00002E06 3393                   CMP/GE      R9,R3
    00002E08 8958                   BT          L2024
    00002E0A 69B3                   MOV         R11,R9
    00002E0C 63F2                   MOV.L       @R15,R3
    00002E0E 7301                   ADD         #1,R3
    00002E10 A054                   BRA         L2024
    00002E12 2F32                   MOV.L       R3,@R15
    00002E14              L2010:                            
          Menu.c  1041                }
          Menu.c  1042                else if (IsKeyDown(KEY_CTRL_UP) && !(actualPos == 0 && selection == 0) && waitTime == 0)
    00002E14 944D                   MOV.W       L2343,R4   ; H'7542
    00002E16 D327                   MOV.L       L2343+2,R3 ; _IsKeyDown
    00002E18 430B                   JSR         @R3
    00002E1A 0009                   NOP
    00002E1C 2008                   TST         R0,R0
    00002E1E 894D                   BT          L2024
    00002E20 63F2                   MOV.L       @R15,R3
    00002E22 2338                   TST         R3,R3
    00002E24 8B01                   BF          L2019
    00002E26 2998                   TST         R9,R9
    00002E28 8948                   BT          L2024
    00002E2A              L2019:                            
    00002E2A 52F4                   MOV.L       @(16,R15),R2
    00002E2C 2228                   TST         R2,R2
    00002E2E 8B45                   BF          L2024
          Menu.c  1043                {
          Menu.c  1044                    waitTime = 8;
    00002E30 E308                   MOV         #8,R3
          Menu.c  1045                    u -= (selection == 0?24:8);
    00002E32 2998                   TST         R9,R9
    00002E34 8F02                   BF/S        L2020
    00002E36 1F34                   MOV.L       R3,@(16,R15)
    00002E38 A001                   BRA         L2021
    00002E3A E218                   MOV         #24,R2
    00002E3C              L2020:                            
    00002E3C E208                   MOV         #8,R2
    00002E3E              L2021:                            
    00002E3E 3828                   SUB         R2,R8
          Menu.c  1046    
          Menu.c  1047                    if (u < 22)
    00002E40 E216                   MOV         #22,R2
    00002E42 3823                   CMP/GE      R2,R8
    00002E44 8D05                   BT/S        L2022
          Menu.c  1048                    {
          Menu.c  1049                        vNext -= u - 22;
          Menu.c  1050                    }
          Menu.c  1051                    selection--;
    00002E46 79FF                   ADD         #-1,R9




SH SERIES C/C++ Compiler (Ver. 6.0C)                                                                 30-Jan-2015 21:53:33  PAGE  128


SCT OFFSET   CODE       C LABEL     INSTRUCTION OPERAND    COMMENT

    00002E48 53F2                   MOV.L       @(8,R15),R3
    00002E4A 6183                   MOV         R8,R1
    00002E4C 71EA                   ADD         #-22,R1
    00002E4E 3318                   SUB         R1,R3
    00002E50 1F32                   MOV.L       R3,@(8,R15)
    00002E52              L2022:                            
          Menu.c  1052    
          Menu.c  1053                    if (selection < 0) selection = statCount[actualPos-1]-1, actualPos--;
    00002E52 4911                   CMP/PZ      R9
    00002E54 8932                   BT          L2024
    00002E56 63F3                   MOV         R15,R3
    00002E58 62F2                   MOV.L       @R15,R2
    00002E5A 732C                   ADD         #44,R3
    00002E5C 69F2                   MOV.L       @R15,R9
    00002E5E 72FF                   ADD         #-1,R2
    00002E60 79FF                   ADD         #-1,R9
    00002E62 393C                   ADD         R3,R9
    00002E64 6990                   MOV.B       @R9,R9
    00002E66 79FF                   ADD         #-1,R9
    00002E68 A028                   BRA         L2024
    00002E6A 2F22                   MOV.L       R2,@R15
    00002E6C              L2009:                            
          Menu.c  1054                }
          Menu.c  1055            }
          Menu.c  1056            else
          Menu.c  1057            {
          Menu.c  1058                if (v < vNext) u += (vNext-v>1?2:1), v += (vNext-v>1?2:1);
    00002E6C 51F2                   MOV.L       @(8,R15),R1
    00002E6E 3A13                   CMP/GE      R1,R10
    00002E70 890F                   BT          L2025
    00002E72 54F2                   MOV.L       @(8,R15),R4
    00002E74 34A8                   SUB         R10,R4
    00002E76 34E7                   CMP/GT      R14,R4
    00002E78 8B01                   BF          L2026
    00002E7A A001                   BRA         L2028
    00002E7C E202                   MOV         #2,R2
    00002E7E              L2026:                            
    00002E7E 62E3                   MOV         R14,R2
    00002E80              L2028:                            
    00002E80 382C                   ADD         R2,R8
    00002E82 34E7                   CMP/GT      R14,R4
    00002E84 8B01                   BF          L2027
    00002E86 A001                   BRA         L2029
    00002E88 E302                   MOV         #2,R3
    00002E8A              L2027:                            
    00002E8A 63E3                   MOV         R14,R3
    00002E8C              L2029:                            
    00002E8C 3A3C                   ADD         R3,R10
    00002E8E A015                   BRA         L2024
    00002E90 0009                   NOP
    00002E92              L2025:                            
          Menu.c  1059                else if (v > vNext) u -= (v-vNext>1?2:1), v -= (v-vNext>1?2:1);
    00002E92 52F2                   MOV.L       @(8,R15),R2
    00002E94 3A27                   CMP/GT      R2,R10
    00002E96 8B11                   BF          L2024
    00002E98 53F2                   MOV.L       @(8,R15),R3
    00002E9A 64A3                   MOV         R10,R4




SH SERIES C/C++ Compiler (Ver. 6.0C)                                                                 30-Jan-2015 21:53:33  PAGE  129


SCT OFFSET   CODE       C LABEL     INSTRUCTION OPERAND    COMMENT

    00002E9C 3438                   SUB         R3,R4
    00002E9E 34E7                   CMP/GT      R14,R4
    00002EA0 8B01                   BF          L2032
    00002EA2 A001                   BRA         L2034
    00002EA4 E102                   MOV         #2,R1
    00002EA6              L2032:                            
    00002EA6 61E3                   MOV         R14,R1
    00002EA8              L2034:                            
    00002EA8 34E7                   CMP/GT      R14,R4
    00002EAA 8F05                   BF/S        L2033
    00002EAC 3818                   SUB         R1,R8
    00002EAE A004                   BRA         L2035
    00002EB0 E202                   MOV         #2,R2
    00002EB2              L2343:                            
    00002EB2 7542                   .DATA.W     H'7542
    00002EB4 <00000000>             .DATA.L     _IsKeyDown
    00002EB8              L2033:                            
    00002EB8 62E3                   MOV         R14,R2
    00002EBA              L2035:                            
    00002EBA 3A28                   SUB         R2,R10
    00002EBC              L2024:                            
          Menu.c  1060            }
          Menu.c  1061    
          Menu.c  1062            if (waitTime != 0) waitTime--;
    00002EBC 53F4                   MOV.L       @(16,R15),R3
    00002EBE 2338                   TST         R3,R3
    00002EC0 8902                   BT          L2036
    00002EC2 53F4                   MOV.L       @(16,R15),R3
    00002EC4 73FF                   ADD         #-1,R3
    00002EC6 1F34                   MOV.L       R3,@(16,R15)
    00002EC8              L2036:                            
          Menu.c  1063    
          Menu.c  1064        }while (IsKeyUp(KEY_CTRL_EXIT));
    00002EC8 9481                   MOV.W       L2344,R4   ; H'7532
    00002ECA D343                   MOV.L       L2344+10,R3; _IsKeyUp
    00002ECC 430B                   JSR         @R3
    00002ECE 0009                   NOP
    00002ED0 2008                   TST         R0,R0
    00002ED2 8901                   BT          L2345
    00002ED4 AE73                   BRA         L1997
    00002ED6 0009                   NOP
    00002ED8              L2345:                            
          Menu.c  1065    }
    00002ED8 917A                   MOV.W       L2344+2,R1 ; H'0098
    00002EDA 3F1C                   ADD         R1,R15
    00002EDC 4F26                   LDS.L       @R15+,PR
    00002EDE 68F6                   MOV.L       @R15+,R8
    00002EE0 69F6                   MOV.L       @R15+,R9
    00002EE2 6AF6                   MOV.L       @R15+,R10
    00002EE4 6BF6                   MOV.L       @R15+,R11
    00002EE6 6CF6                   MOV.L       @R15+,R12
    00002EE8 6DF6                   MOV.L       @R15+,R13
    00002EEA 000B                   RTS
    00002EEC 6EF6                   MOV.L       @R15+,R14
          Menu.c  1066    
          Menu.c  1067    void succesMenu()
    00002EEE              _succesMenu:                     ; function: succesMenu




SH SERIES C/C++ Compiler (Ver. 6.0C)                                                                 30-Jan-2015 21:53:33  PAGE  130


SCT OFFSET   CODE       C LABEL     INSTRUCTION OPERAND    COMMENT

                                                           ; frame size=364
                                                           ; used runtime library name:
                                                           ; __quick_mvn
          Menu.c  1068    {
          Menu.c  1069        int x, u = 13, v = 13, vNext = 13, selection = 0, exeDown = 1, keyDown = 0, selectionExpanded = 99;
    00002EEE E40D                   MOV         #13,R4
          Menu.c  1070    
          Menu.c  1071        int succesNb = 0;
          Menu.c  1072        char succesNumber[1];
          Menu.c  1073        char *succesNames[22] = {"PATIENT","HIPPIE","HALF WAY","BILL GATES","GOLD DIGGER","LIKE A TOAST","ELEC
                         +TRICIEN","PILOTE DE LIGNE","PILOTE DE CHASSE","TROP DE BILLEY","MALCHANCEUX","DICTATEUR","PRECIS","COLLECT
                         +IONNEUR","CRAZY FREAKING SKILLS","AMI DES BETES","PIMP MY RIDE","MMHH... WELL","JE CONNAIS LE CREATEUR","M
                         +ARATHON","I'M A BIKER","SHOPPING ADDICT"};
    00002EF0 9170                   MOV.W       L2344+6,R1 ; H'00C4
    00002EF2 2FE6                   MOV.L       R14,@-R15
    00002EF4 2FD6                   MOV.L       R13,@-R15
    00002EF6 6D43                   MOV         R4,R13
    00002EF8 D238                   MOV.L       L2344+14,R2; L1007
    00002EFA 2FC6                   MOV.L       R12,@-R15
    00002EFC 2FB6                   MOV.L       R11,@-R15
    00002EFE EC63                   MOV         #99,R12
    00002F00 9067                   MOV.W       L2344+4,R0 ; H'FEE0
    00002F02 EB00                   MOV         #0,R11
    00002F04 2FA6                   MOV.L       R10,@-R15
    00002F06 63B3                   MOV         R11,R3
    00002F08 2F96                   MOV.L       R9,@-R15
    00002F0A EA01                   MOV         #1,R10
    00002F0C 2F86                   MOV.L       R8,@-R15
    00002F0E 6943                   MOV         R4,R9
    00002F10 4F22                   STS.L       PR,@-R15
    00002F12 4F12                   STS.L       MACL,@-R15
    00002F14 3F0C                   ADD         R0,R15
    00002F16 31FC                   ADD         R15,R1
    00002F18 1F41                   MOV.L       R4,@(4,R15)
    00002F1A 6433                   MOV         R3,R4
    00002F1C 1FA4                   MOV.L       R10,@(16,R15)
    00002F1E 1F33                   MOV.L       R3,@(12,R15)
    00002F20 D32F                   MOV.L       L2344+18,R3; __quick_mvn
    00002F22 430B                   JSR         @R3
    00002F24 E058                   MOV         #88,R0
          Menu.c  1074        char *succesDesc1[22] = {"Regardez la planque","Faites une partie sans","Debloquez 10 succes","Achetez
                         + tout les","Collectez 20 pieces en","Faites vous exploser par","Faites vous cramer","Depassez 2km","Depass
                         +ez 5km","Faites une partie en","Perdez le tirage final","Gagnez 3 explosions","Faites un score","Achetez 2
                         + jetpacks","Faites plus de 800m","Obtenez l'oiseau benef","Achetez un vehicule noir","Obtenez un score","O
                         +h...","Volez sur 50km","Faites 10km avec la","Depensez plus de 50000"};
    00002F26 61F3                   MOV         R15,R1
    00002F28 D22E                   MOV.L       L2344+22,R2; L1031
    00002F2A 716C                   ADD         #108,R1
    00002F2C D32C                   MOV.L       L2344+18,R3; __quick_mvn
    00002F2E 430B                   JSR         @R3
    00002F30 E058                   MOV         #88,R0
          Menu.c  1075        char *succesDesc2[22] = {"pendant 2 minutes","collecter de piece/jeton","","elements du jeu","etant mo
                         +rt","un missile 3 fois de suite","(zappeur ou laser) 99 fois","","","costume et en reacteur","100 fois","a
                         +tomiques","d'exactement 800m","","avec le teleporteur","2 fois en une partie","","d'exactement 69 pieces",
                         +"You touch my tralala...","","becane d'enfer","pieces"};
    00002F32 61F3                   MOV         R15,R1
    00002F34 D22C                   MOV.L       L2344+26,R2; L1055




SH SERIES C/C++ Compiler (Ver. 6.0C)                                                                 30-Jan-2015 21:53:33  PAGE  131


SCT OFFSET   CODE       C LABEL     INSTRUCTION OPERAND    COMMENT

    00002F36 7114                   ADD         #20,R1
    00002F38 D329                   MOV.L       L2344+18,R3; __quick_mvn
    00002F3A 430B                   JSR         @R3
    00002F3C E058                   MOV         #88,R0
          Menu.c  1076    
          Menu.c  1077        for (x = 0; x < 22; x++)
    00002F3E 65B3                   MOV         R11,R5
    00002F40 D72A                   MOV.L       L2344+30,R7; _sauvegarde
    00002F42 6672                   MOV.L       @R7,R6
    00002F44              L2037:                            
          Menu.c  1078            if (sauvegarde->succes[x]==-1) succesNb++;
    00002F44 6063                   MOV         R6,R0
    00002F46 7060                   ADD         #96,R0
    00002F48 005C                   MOV.B       @(R0,R5),R0
    00002F4A 88FF                   CMP/EQ      #-1,R0
    00002F4C 8F01                   BF/S        L2038
    00002F4E 7501                   ADD         #1,R5
    00002F50 7401                   ADD         #1,R4
    00002F52              L2038:                            
    00002F52 E216                   MOV         #22,R2
    00002F54 3523                   CMP/GE      R2,R5
    00002F56 8BF5                   BF          L2037
          Menu.c  1079    
          Menu.c  1080        if (succesNb >= 10 && sauvegarde->succes[2] != -1) sauvegarde->succes[2] = -1, succesNb++;
    00002F58 E10A                   MOV         #10,R1
    00002F5A 3413                   CMP/GE      R1,R4
    00002F5C 8B08                   BF          L2039
    00002F5E E062                   MOV         #98,R0
    00002F60 006C                   MOV.B       @(R0,R6),R0
    00002F62 88FF                   CMP/EQ      #-1,R0
    00002F64 8904                   BT          L2039
    00002F66 E3FF                   MOV         #-1,R3
    00002F68 6272                   MOV.L       @R7,R2
    00002F6A E062                   MOV         #98,R0
    00002F6C 0234                   MOV.B       R3,@(R0,R2)
    00002F6E 7401                   ADD         #1,R4
    00002F70              L2039:                            
          Menu.c  1081    
          Menu.c  1082        sprintf(succesNumber,"%d / 22",succesNb);
    00002F70 2F46                   MOV.L       R4,@-R15
    00002F72 D31F                   MOV.L       L2344+34,R3; L1072
    00002F74 942F                   MOV.W       L2344+8,R4 ; H'0124
    00002F76 2F36                   MOV.L       R3,@-R15
    00002F78 D21E                   MOV.L       L2344+38,R2; _sprintf
    00002F7A 420B                   JSR         @R2
    00002F7C 34FC                   ADD         R15,R4
    00002F7E 7F08                   ADD         #8,R15
    00002F80 E802                   MOV         #2,R8
          Menu.c  1083    
          Menu.c  1084        do
    00002F82              L2040:                            
          Menu.c  1085        {
          Menu.c  1086            ML_clear_vram();
    00002F82 D31D                   MOV.L       L2344+42,R3; _ML_clear_vram
    00002F84 430B                   JSR         @R3
    00002F86 0009                   NOP
          Menu.c  1087    




SH SERIES C/C++ Compiler (Ver. 6.0C)                                                                 30-Jan-2015 21:53:33  PAGE  132


SCT OFFSET   CODE       C LABEL     INSTRUCTION OPERAND    COMMENT

          Menu.c  1088            for(x = 0; x < 22; x++) // il y a 12 tenues
    00002F88 EE00                   MOV         #0,R14
    00002F8A              L2041:                            
          Menu.c  1089            {
          Menu.c  1090    
          Menu.c  1091                ML_rectangle(0,x>selectionExpanded?v+19*x+10:v+19*x,127,x==selectionExpanded?v+29+19*x:x>selec
                         +tionExpanded?v+29+19*x+10:v+19+19*x,1,ML_BLACK,ML_WHITE); // premier rectangle "gadget"
    00002F8A E200                   MOV         #0,R2
    00002F8C 2F26                   MOV.L       R2,@-R15
    00002F8E 3EC0                   CMP/EQ      R12,R14
    00002F90 2FA6                   MOV.L       R10,@-R15
    00002F92 8F06                   BF/S        L2042
    00002F94 2FA6                   MOV.L       R10,@-R15
    00002F96 E713                   MOV         #19,R7
    00002F98 0E77                   MUL.L       R7,R14
    00002F9A 071A                   STS         MACL,R7
    00002F9C 37DC                   ADD         R13,R7
    00002F9E A00D                   BRA         L2045
    00002FA0 771D                   ADD         #29,R7
    00002FA2              L2042:                            
    00002FA2 3EC7                   CMP/GT      R12,R14
    00002FA4 8B05                   BF          L2043
    00002FA6 E713                   MOV         #19,R7
    00002FA8 0E77                   MUL.L       R7,R14
    00002FAA 071A                   STS         MACL,R7
    00002FAC 37DC                   ADD         R13,R7
    00002FAE A005                   BRA         L2045
    00002FB0 7727                   ADD         #39,R7
    00002FB2              L2043:                            
    00002FB2 E713                   MOV         #19,R7
    00002FB4 0E77                   MUL.L       R7,R14
    00002FB6 071A                   STS         MACL,R7
    00002FB8 37DC                   ADD         R13,R7
    00002FBA 7713                   ADD         #19,R7
    00002FBC              L2045:                            
    00002FBC 3EC7                   CMP/GT      R12,R14
    00002FBE 8F1D                   BF/S        L2044
    00002FC0 E67F                   MOV         #127,R6
    00002FC2 E513                   MOV         #19,R5
    00002FC4 0E57                   MUL.L       R5,R14
    00002FC6 051A                   STS         MACL,R5
    00002FC8 35DC                   ADD         R13,R5
    00002FCA A01B                   BRA         L2047
    00002FCC 750A                   ADD         #10,R5
    00002FCE              L2344:                            
    00002FCE 7532                   .DATA.W     H'7532
    00002FD0 0098                   .DATA.W     H'0098
    00002FD2 FEE0                   .DATA.W     H'FEE0
    00002FD4 00C4                   .DATA.W     H'00C4
    00002FD6 0124                   .DATA.W     H'0124
    00002FD8 <00000000>             .DATA.L     _IsKeyUp
    00002FDC <00000000>             .DATA.L     L1007
    00002FE0 <00000000>             .DATA.L     __quick_mvn
    00002FE4 <00000000>             .DATA.L     L1031
    00002FE8 <00000000>             .DATA.L     L1055
    00002FEC <00000000>             .DATA.L     _sauvegarde
    00002FF0 <00000000>             .DATA.L     L1072




SH SERIES C/C++ Compiler (Ver. 6.0C)                                                                 30-Jan-2015 21:53:33  PAGE  133


SCT OFFSET   CODE       C LABEL     INSTRUCTION OPERAND    COMMENT

    00002FF4 <00000000>             .DATA.L     _sprintf
    00002FF8 <00000000>             .DATA.L     _ML_clear_vram
    00002FFC              L2044:                            
    00002FFC E513                   MOV         #19,R5
    00002FFE 0E57                   MUL.L       R5,R14
    00003000 051A                   STS         MACL,R5
    00003002 35DC                   ADD         R13,R5
    00003004              L2047:                            
    00003004 D234                   MOV.L       L2346+4,R2 ; _ML_rectangle
    00003006 420B                   JSR         @R2
    00003008 E400                   MOV         #0,R4
    0000300A 7F0C                   ADD         #12,R15
          Menu.c  1092                PrintMini(23,x>selectionExpanded?v+12+19*x:v+2+19*x,succesNames[x],0); // nom du premier
    0000300C 9362                   MOV.W       L2346,R3   ; H'00C4
    0000300E 3EC7                   CMP/GT      R12,R14
    00003010 E700                   MOV         #0,R7
    00003012 66E3                   MOV         R14,R6
    00003014 4608                   SHLL2       R6
    00003016 33FC                   ADD         R15,R3
    00003018 1F62                   MOV.L       R6,@(8,R15)
    0000301A 363C                   ADD         R3,R6
    0000301C 8F06                   BF/S        L2048
    0000301E 6662                   MOV.L       @R6,R6
    00003020 E513                   MOV         #19,R5
    00003022 0E57                   MUL.L       R5,R14
    00003024 051A                   STS         MACL,R5
    00003026 35DC                   ADD         R13,R5
    00003028 A005                   BRA         L2049
    0000302A 750C                   ADD         #12,R5
    0000302C              L2048:                            
    0000302C E513                   MOV         #19,R5
    0000302E 0E57                   MUL.L       R5,R14
    00003030 051A                   STS         MACL,R5
    00003032 35DC                   ADD         R13,R5
    00003034 7502                   ADD         #2,R5
    00003036              L2049:                            
    00003036 D229                   MOV.L       L2346+8,R2 ; _PrintMini
    00003038 420B                   JSR         @R2
    0000303A E417                   MOV         #23,R4
    0000303C E313                   MOV         #19,R3
    0000303E 60E3                   MOV         R14,R0
    00003040 0E37                   MUL.L       R3,R14
    00003042 8804                   CMP/EQ      #4,R0
    00003044 031A                   STS         MACL,R3
    00003046 33DC                   ADD         R13,R3
    00003048 2F32                   MOV.L       R3,@R15
    0000304A 8911                   BT          L2052
    0000304C 60E3                   MOV         R14,R0
    0000304E 8807                   CMP/EQ      #7,R0
    00003050 890E                   BT          L2052
    00003052 60E3                   MOV         R14,R0
    00003054 880B                   CMP/EQ      #11,R0
    00003056 890B                   BT          L2052
    00003058 60E3                   MOV         R14,R0
    0000305A 880D                   CMP/EQ      #13,R0
    0000305C 8908                   BT          L2052
    0000305E 60E3                   MOV         R14,R0




SH SERIES C/C++ Compiler (Ver. 6.0C)                                                                 30-Jan-2015 21:53:33  PAGE  134


SCT OFFSET   CODE       C LABEL     INSTRUCTION OPERAND    COMMENT

    00003060 8810                   CMP/EQ      #16,R0
    00003062 8905                   BT          L2052
    00003064 60E3                   MOV         R14,R0
    00003066 8812                   CMP/EQ      #18,R0
    00003068 8902                   BT          L2052
    0000306A 60E3                   MOV         R14,R0
    0000306C 8815                   CMP/EQ      #21,R0
    0000306E 8B05                   BF          L2051
    00003070              L2052:                            
    00003070 D31B                   MOV.L       L2346+12,R3; _sauvegarde
    00003072 6032                   MOV.L       @R3,R0
    00003074 7060                   ADD         #96,R0
    00003076 00EC                   MOV.B       @(R0,R14),R0
    00003078 88FF                   CMP/EQ      #-1,R0
    0000307A 8B24                   BF          L2050
    0000307C              L2051:                            
          Menu.c  1093    
          Menu.c  1094                if (!((x==4 || x==7 || x==11 || x==13 || x==16 || x==18 || x==21) && sauvegarde->succes[x] != 
                         +-1))
          Menu.c  1095                {
          Menu.c  1096                    PrintMini(23,x>selectionExpanded?v+20+19*x:v+10+19*x,succesDesc1[x],0);
    0000307C 56F2                   MOV.L       @(8,R15),R6
    0000307E 3EC7                   CMP/GT      R12,R14
    00003080 E700                   MOV         #0,R7
    00003082 63F3                   MOV         R15,R3
    00003084 736C                   ADD         #108,R3
    00003086 363C                   ADD         R3,R6
    00003088 8F06                   BF/S        L2053
    0000308A 6662                   MOV.L       @R6,R6
    0000308C E513                   MOV         #19,R5
    0000308E 0E57                   MUL.L       R5,R14
    00003090 051A                   STS         MACL,R5
    00003092 35DC                   ADD         R13,R5
    00003094 A005                   BRA         L2054
    00003096 7514                   ADD         #20,R5
    00003098              L2053:                            
    00003098 E513                   MOV         #19,R5
    0000309A 0E57                   MUL.L       R5,R14
    0000309C 051A                   STS         MACL,R5
    0000309E 35DC                   ADD         R13,R5
    000030A0 750A                   ADD         #10,R5
    000030A2              L2054:                            
    000030A2 D20E                   MOV.L       L2346+8,R2 ; _PrintMini
    000030A4 420B                   JSR         @R2
    000030A6 E417                   MOV         #23,R4
          Menu.c  1097                    if (x==selectionExpanded)PrintMini(23,v+19+19*x,succesDesc2[x],0);
    000030A8 3EC0                   CMP/EQ      R12,R14
    000030AA 8B22                   BF          L2056
    000030AC 56F2                   MOV.L       @(8,R15),R6
    000030AE E700                   MOV         #0,R7
    000030B0 65F2                   MOV.L       @R15,R5
    000030B2 63F3                   MOV         R15,R3
    000030B4 D209                   MOV.L       L2346+8,R2 ; _PrintMini
    000030B6 7513                   ADD         #19,R5
    000030B8 7314                   ADD         #20,R3
    000030BA 363C                   ADD         R3,R6
    000030BC 6662                   MOV.L       @R6,R6




SH SERIES C/C++ Compiler (Ver. 6.0C)                                                                 30-Jan-2015 21:53:33  PAGE  135


SCT OFFSET   CODE       C LABEL     INSTRUCTION OPERAND    COMMENT

    000030BE 420B                   JSR         @R2
    000030C0 E417                   MOV         #23,R4
    000030C2 A016                   BRA         L2056
    000030C4 0009                   NOP
    000030C6              L2050:                            
          Menu.c  1098                }
          Menu.c  1099                else
          Menu.c  1100                {
          Menu.c  1101                    PrintMini(23,x>selectionExpanded?v+20+19*x:v+10+19*x,"Succes secret",0);
    000030C6 3EC7                   CMP/GT      R12,R14
    000030C8 D606                   MOV.L       L2346+16,R6; L1077
    000030CA 8F0D                   BF/S        L2057
    000030CC E700                   MOV         #0,R7
    000030CE 65F2                   MOV.L       @R15,R5
    000030D0 A00C                   BRA         L2058
    000030D2 7514                   ADD         #20,R5
    000030D4              L2346:                            
    000030D4 00C4                   .DATA.W     H'00C4
    000030D6 0000                   .DATA.W     0
    000030D8 <00000000>             .DATA.L     _ML_rectangle
    000030DC <00000000>             .DATA.L     _PrintMini
    000030E0 <00000000>             .DATA.L     _sauvegarde
    000030E4 <00000000>             .DATA.L     L1077
    000030E8              L2057:                            
    000030E8 65F2                   MOV.L       @R15,R5
    000030EA 750A                   ADD         #10,R5
    000030EC              L2058:                            
    000030EC D243                   MOV.L       L2347+2,R2 ; _PrintMini
    000030EE 420B                   JSR         @R2
    000030F0 E417                   MOV         #23,R4
    000030F2              L2056:                            
          Menu.c  1102                }
          Menu.c  1103    
          Menu.c  1104                if (x!=2&&x!=7&&x!=8&&x!=13&&x!=16&&x!=19&&!((x==4 || x==7 || x==11 || x==13 || x==16 || x==18
                         + || x==21) && sauvegarde->succes[x] != -1)) ML_bmp_8_or(expand[x==selectionExpanded],120,x==selectionExpan
                         +ded?v+25+19*x:x>selectionExpanded?v+22+19*x:v+12+19*x);
    000030F2 60E3                   MOV         R14,R0
    000030F4 8802                   CMP/EQ      #2,R0
    000030F6 893E                   BT          L2059
    000030F8 60E3                   MOV         R14,R0
    000030FA 8807                   CMP/EQ      #7,R0
    000030FC 893B                   BT          L2059
    000030FE 60E3                   MOV         R14,R0
    00003100 8808                   CMP/EQ      #8,R0
    00003102 8938                   BT          L2059
    00003104 60E3                   MOV         R14,R0
    00003106 880D                   CMP/EQ      #13,R0
    00003108 8935                   BT          L2059
    0000310A 60E3                   MOV         R14,R0
    0000310C 8810                   CMP/EQ      #16,R0
    0000310E 8932                   BT          L2059
    00003110 60E3                   MOV         R14,R0
    00003112 8813                   CMP/EQ      #19,R0
    00003114 892F                   BT          L2059
    00003116 60E3                   MOV         R14,R0
    00003118 8804                   CMP/EQ      #4,R0
    0000311A 8911                   BT          L2061




SH SERIES C/C++ Compiler (Ver. 6.0C)                                                                 30-Jan-2015 21:53:33  PAGE  136


SCT OFFSET   CODE       C LABEL     INSTRUCTION OPERAND    COMMENT

    0000311C 60E3                   MOV         R14,R0
    0000311E 8807                   CMP/EQ      #7,R0
    00003120 890E                   BT          L2061
    00003122 60E3                   MOV         R14,R0
    00003124 880B                   CMP/EQ      #11,R0
    00003126 890B                   BT          L2061
    00003128 60E3                   MOV         R14,R0
    0000312A 880D                   CMP/EQ      #13,R0
    0000312C 8908                   BT          L2061
    0000312E 60E3                   MOV         R14,R0
    00003130 8810                   CMP/EQ      #16,R0
    00003132 8905                   BT          L2061
    00003134 60E3                   MOV         R14,R0
    00003136 8812                   CMP/EQ      #18,R0
    00003138 8902                   BT          L2061
    0000313A 60E3                   MOV         R14,R0
    0000313C 8815                   CMP/EQ      #21,R0
    0000313E 8B05                   BF          L2060
    00003140              L2061:                            
    00003140 D32F                   MOV.L       L2347+6,R3 ; _sauvegarde
    00003142 6032                   MOV.L       @R3,R0
    00003144 7060                   ADD         #96,R0
    00003146 00EC                   MOV.B       @(R0,R14),R0
    00003148 88FF                   CMP/EQ      #-1,R0
    0000314A 8B14                   BF          L2059
    0000314C              L2060:                            
    0000314C 3EC0                   CMP/EQ      R12,R14
    0000314E 8B02                   BF          L2062
    00003150 66F2                   MOV.L       @R15,R6
    00003152 A007                   BRA         L2064
    00003154 7619                   ADD         #25,R6
    00003156              L2062:                            
    00003156 3EC7                   CMP/GT      R12,R14
    00003158 8B02                   BF          L2063
    0000315A 66F2                   MOV.L       @R15,R6
    0000315C A002                   BRA         L2064
    0000315E 7616                   ADD         #22,R6
    00003160              L2063:                            
    00003160 66F2                   MOV.L       @R15,R6
    00003162 760C                   ADD         #12,R6
    00003164              L2064:                            
    00003164 D327                   MOV.L       L2347+10,R3; __$expand
    00003166 E578                   MOV         #120,R5
    00003168 D227                   MOV.L       L2347+14,R2; _ML_bmp_8_or
    0000316A 3EC0                   CMP/EQ      R12,R14
    0000316C 0429                   MOVT        R4
    0000316E 4408                   SHLL2       R4
    00003170 4400                   SHLL        R4
    00003172 420B                   JSR         @R2
    00003174 343C                   ADD         R3,R4
    00003176              L2059:                            
          Menu.c  1105                ML_bmp_16_or(x==18&&sauvegarde->succes[x]==-1?sixtyNine:trophee[sauvegarde->succes[x]==-1],3,(
                         +x>selectionExpanded?v+12+19*x:v+2+19*x)+(x==18&&sauvegarde->succes[x]==-1?1:0));
    00003176 3EC7                   CMP/GT      R12,R14
    00003178 8F06                   BF/S        L2066
    0000317A 60E3                   MOV         R14,R0
    0000317C E613                   MOV         #19,R6




SH SERIES C/C++ Compiler (Ver. 6.0C)                                                                 30-Jan-2015 21:53:33  PAGE  137


SCT OFFSET   CODE       C LABEL     INSTRUCTION OPERAND    COMMENT

    0000317E 0E67                   MUL.L       R6,R14
    00003180 061A                   STS         MACL,R6
    00003182 36DC                   ADD         R13,R6
    00003184 A005                   BRA         L2069
    00003186 760C                   ADD         #12,R6
    00003188              L2066:                            
    00003188 E613                   MOV         #19,R6
    0000318A 0E67                   MUL.L       R6,R14
    0000318C 061A                   STS         MACL,R6
    0000318E 36DC                   ADD         R13,R6
    00003190 7602                   ADD         #2,R6
    00003192              L2069:                            
    00003192 8812                   CMP/EQ      #18,R0
    00003194 8B07                   BF          L2067
    00003196 D31A                   MOV.L       L2347+6,R3 ; _sauvegarde
    00003198 6032                   MOV.L       @R3,R0
    0000319A 7060                   ADD         #96,R0
    0000319C 00EC                   MOV.B       @(R0,R14),R0
    0000319E 88FF                   CMP/EQ      #-1,R0
    000031A0 8B01                   BF          L2067
    000031A2 A001                   BRA         L2070
    000031A4 E201                   MOV         #1,R2
    000031A6              L2067:                            
    000031A6 E200                   MOV         #0,R2
    000031A8              L2070:                            
    000031A8 362C                   ADD         R2,R6
    000031AA 60E3                   MOV         R14,R0
    000031AC 8812                   CMP/EQ      #18,R0
    000031AE 8F09                   BF/S        L2068
    000031B0 E503                   MOV         #3,R5
    000031B2 D313                   MOV.L       L2347+6,R3 ; _sauvegarde
    000031B4 6032                   MOV.L       @R3,R0
    000031B6 7060                   ADD         #96,R0
    000031B8 00EC                   MOV.B       @(R0,R14),R0
    000031BA 88FF                   CMP/EQ      #-1,R0
    000031BC 8B02                   BF          L2068
    000031BE D413                   MOV.L       L2347+18,R4; __$sixtyNine
    000031C0 A00B                   BRA         L2071
    000031C2 0009                   NOP
    000031C4              L2068:                            
    000031C4 D30E                   MOV.L       L2347+6,R3 ; _sauvegarde
    000031C6 6032                   MOV.L       @R3,R0
    000031C8 D211                   MOV.L       L2347+22,R2; __$trophee
    000031CA 7060                   ADD         #96,R0
    000031CC 00EC                   MOV.B       @(R0,R14),R0
    000031CE 88FF                   CMP/EQ      #-1,R0
    000031D0 0429                   MOVT        R4
    000031D2 4408                   SHLL2       R4
    000031D4 4408                   SHLL2       R4
    000031D6 4400                   SHLL        R4
    000031D8 342C                   ADD         R2,R4
    000031DA              L2071:                            
    000031DA D20E                   MOV.L       L2347+26,R2; _ML_bmp_16_or
    000031DC 420B                   JSR         @R2
    000031DE 0009                   NOP
    000031E0 7E01                   ADD         #1,R14
    000031E2 E316                   MOV         #22,R3




SH SERIES C/C++ Compiler (Ver. 6.0C)                                                                 30-Jan-2015 21:53:33  PAGE  138


SCT OFFSET   CODE       C LABEL     INSTRUCTION OPERAND    COMMENT

    000031E4 3E33                   CMP/GE      R3,R14
    000031E6 8901                   BT          L2348
    000031E8 AECF                   BRA         L2041
    000031EA 0009                   NOP
    000031EC              L2348:                            
          Menu.c  1106            }
          Menu.c  1107    
          Menu.c  1108            ML_rectangle(0,u,127,u+(selection==selectionExpanded?29:19),1,ML_BLACK,ML_XOR); // on affiche la p
                         +osition du curseur
    000031EC 2F86                   MOV.L       R8,@-R15
    000031EE 3BC0                   CMP/EQ      R12,R11
    000031F0 2FA6                   MOV.L       R10,@-R15
    000031F2 8F11                   BF/S        L2072
    000031F4 2FA6                   MOV.L       R10,@-R15
    000031F6 A010                   BRA         L2073
    000031F8 E71D                   MOV         #29,R7
    000031FA              L2347:                            
    000031FA 0000                   .DATA.W     0
    000031FC <00000000>             .DATA.L     _PrintMini
    00003200 <00000000>             .DATA.L     _sauvegarde
    00003204 <00000000>             .DATA.L     __$expand
    00003208 <00000000>             .DATA.L     _ML_bmp_8_or
    0000320C <00000000>             .DATA.L     __$sixtyNine
    00003210 <00000000>             .DATA.L     __$trophee
    00003214 <00000000>             .DATA.L     _ML_bmp_16_or
    00003218              L2072:                            
    00003218 E713                   MOV         #19,R7
    0000321A              L2073:                            
    0000321A 379C                   ADD         R9,R7
    0000321C D233                   MOV.L       L2349+10,R2; _ML_rectangle
    0000321E E67F                   MOV         #127,R6
    00003220 6593                   MOV         R9,R5
    00003222 420B                   JSR         @R2
    00003224 E400                   MOV         #0,R4
          Menu.c  1109            ML_rectangle(1,u,20,u+19,1,ML_BLACK,ML_XOR); // on rinverse la zone du sprite pour qu'elle soit n
                         +ormale
    00003226 6793                   MOV         R9,R7
    00003228 D330                   MOV.L       L2349+10,R3; _ML_rectangle
    0000322A E614                   MOV         #20,R6
    0000322C 2F86                   MOV.L       R8,@-R15
    0000322E 6593                   MOV         R9,R5
    00003230 2FA6                   MOV.L       R10,@-R15
    00003232 7713                   ADD         #19,R7
    00003234 2FA6                   MOV.L       R10,@-R15
    00003236 430B                   JSR         @R3
    00003238 E401                   MOV         #1,R4
          Menu.c  1110    
          Menu.c  1111            ML_rectangle(39,0,88,13,1,ML_WHITE,ML_WHITE); // on gere la transparence de l'en-tete
    0000323A E200                   MOV         #0,R2
    0000323C D32B                   MOV.L       L2349+10,R3; _ML_rectangle
    0000323E E70D                   MOV         #13,R7
    00003240 2F26                   MOV.L       R2,@-R15
    00003242 E658                   MOV         #88,R6
    00003244 2F26                   MOV.L       R2,@-R15
    00003246 6523                   MOV         R2,R5
    00003248 2FA6                   MOV.L       R10,@-R15
    0000324A 430B                   JSR         @R3




SH SERIES C/C++ Compiler (Ver. 6.0C)                                                                 30-Jan-2015 21:53:33  PAGE  139


SCT OFFSET   CODE       C LABEL     INSTRUCTION OPERAND    COMMENT

    0000324C E427                   MOV         #39,R4
          Menu.c  1112    
          Menu.c  1113            ML_bmp_or(succesTop,0,0,128,16); // on affiche le sprite de l'entete
    0000324E E210                   MOV         #16,R2
    00003250 9747                   MOV.W       L2349,R7   ; H'0080
    00003252 E600                   MOV         #0,R6
    00003254 D426                   MOV.L       L2349+14,R4; __$succesTop
    00003256 2F26                   MOV.L       R2,@-R15
    00003258 D326                   MOV.L       L2349+18,R3; _ML_bmp_or
    0000325A 430B                   JSR         @R3
    0000325C 6563                   MOV         R6,R5
    0000325E 7F28                   ADD         #40,R15
          Menu.c  1114    
          Menu.c  1115            PrintMini(97,2,succesNumber,2);
    00003260 9640                   MOV.W       L2349+2,R6 ; H'011C
    00003262 E702                   MOV         #2,R7
    00003264 D224                   MOV.L       L2349+22,R2; _PrintMini
    00003266 36FC                   ADD         R15,R6
    00003268 6573                   MOV         R7,R5
    0000326A 420B                   JSR         @R2
    0000326C E461                   MOV         #97,R4
          Menu.c  1116    
          Menu.c  1117            ML_display_vram();
    0000326E D323                   MOV.L       L2349+26,R3; _ML_display_vram
    00003270 430B                   JSR         @R3
    00003272 0009                   NOP
          Menu.c  1118    
          Menu.c  1119            if (vNext == v && keyDown == 0) // on gere le clavier ainsi que la position des elements a l'ecran
    00003274 52F1                   MOV.L       @(4,R15),R2
    00003276 32D0                   CMP/EQ      R13,R2
    00003278 8901                   BT          L2350
    0000327A A081                   BRA         L2074
    0000327C 0009                   NOP
    0000327E              L2350:                            
    0000327E 51F3                   MOV.L       @(12,R15),R1
    00003280 2118                   TST         R1,R1
    00003282 8901                   BT          L2351
    00003284 A07C                   BRA         L2074
    00003286 0009                   NOP
    00003288              L2351:                            
          Menu.c  1120            {
          Menu.c  1121                if (IsKeyDown(KEY_CTRL_DOWN) && selection != 21)
    00003288 942D                   MOV.W       L2349+4,R4 ; H'7547
    0000328A D31D                   MOV.L       L2349+30,R3; _IsKeyDown
    0000328C 430B                   JSR         @R3
    0000328E 0009                   NOP
    00003290 2008                   TST         R0,R0
    00003292 8910                   BT          L2075
    00003294 60B3                   MOV         R11,R0
    00003296 8815                   CMP/EQ      #21,R0
    00003298 890D                   BT          L2075
          Menu.c  1122                {
          Menu.c  1123                    selectionExpanded = 99;
          Menu.c  1124                    if (u > 30)
    0000329A E21E                   MOV         #30,R2
    0000329C 3927                   CMP/GT      R2,R9
    0000329E 8F05                   BF/S        L2076




SH SERIES C/C++ Compiler (Ver. 6.0C)                                                                 30-Jan-2015 21:53:33  PAGE  140


SCT OFFSET   CODE       C LABEL     INSTRUCTION OPERAND    COMMENT

    000032A0 EC63                   MOV         #99,R12
          Menu.c  1125                    {
          Menu.c  1126                        vNext -= 19;
    000032A2 51F1                   MOV.L       @(4,R15),R1
    000032A4 71ED                   ADD         #-19,R1
    000032A6 1F11                   MOV.L       R1,@(4,R15)
          Menu.c  1127                        u += 19;
    000032A8 A003                   BRA         L2077
    000032AA 7913                   ADD         #19,R9
    000032AC              L2076:                            
          Menu.c  1128                    }
          Menu.c  1129                    else
          Menu.c  1130                    {
          Menu.c  1131                        u += 19;
    000032AC 7913                   ADD         #19,R9
          Menu.c  1132                        keyDown = 6;
    000032AE E106                   MOV         #6,R1
    000032B0 1F13                   MOV.L       R1,@(12,R15)
    000032B2              L2077:                            
          Menu.c  1133                    }
          Menu.c  1134                    selection++;
    000032B2 A095                   BRA         L2089
    000032B4 7B01                   ADD         #1,R11
    000032B6              L2075:                            
          Menu.c  1135                }
          Menu.c  1136                else if (IsKeyDown(KEY_CTRL_UP) && selection != 0)
    000032B6 9417                   MOV.W       L2349+6,R4 ; H'7542
    000032B8 D211                   MOV.L       L2349+30,R2; _IsKeyDown
    000032BA 420B                   JSR         @R2
    000032BC 0009                   NOP
    000032BE 2008                   TST         R0,R0
    000032C0 8920                   BT          L2079
    000032C2 2BB8                   TST         R11,R11
    000032C4 891E                   BT          L2079
          Menu.c  1137                {
          Menu.c  1138                    selectionExpanded = 99;
          Menu.c  1139                    if (u < 20)
    000032C6 E314                   MOV         #20,R3
    000032C8 3933                   CMP/GE      R3,R9
    000032CA 8D05                   BT/S        L2080
    000032CC EC63                   MOV         #99,R12
          Menu.c  1140                    {
          Menu.c  1141                        vNext += 19;
    000032CE 51F1                   MOV.L       @(4,R15),R1
    000032D0 7113                   ADD         #19,R1
    000032D2 1F11                   MOV.L       R1,@(4,R15)
          Menu.c  1142                        u -= 19;
    000032D4 A003                   BRA         L2081
    000032D6 79ED                   ADD         #-19,R9
    000032D8              L2080:                            
          Menu.c  1143                    }
          Menu.c  1144                    else
          Menu.c  1145                    {
          Menu.c  1146                        u -= 19;
    000032D8 79ED                   ADD         #-19,R9
          Menu.c  1147                        keyDown = 6;
    000032DA E106                   MOV         #6,R1




SH SERIES C/C++ Compiler (Ver. 6.0C)                                                                 30-Jan-2015 21:53:33  PAGE  141


SCT OFFSET   CODE       C LABEL     INSTRUCTION OPERAND    COMMENT

    000032DC 1F13                   MOV.L       R1,@(12,R15)
    000032DE              L2081:                            
          Menu.c  1148                    }
          Menu.c  1149                    selection--;
    000032DE A07F                   BRA         L2089
    000032E0 7BFF                   ADD         #-1,R11
    000032E2              L2349:                            
    000032E2 0080                   .DATA.W     H'0080
    000032E4 011C                   .DATA.W     H'011C
    000032E6 7547                   .DATA.W     H'7547
    000032E8 7542                   .DATA.W     H'7542
    000032EA 0000                   .DATA.W     0
    000032EC <00000000>             .DATA.L     _ML_rectangle
    000032F0 <00000000>             .DATA.L     __$succesTop
    000032F4 <00000000>             .DATA.L     _ML_bmp_or
    000032F8 <00000000>             .DATA.L     _PrintMini
    000032FC <00000000>             .DATA.L     _ML_display_vram
    00003300 <00000000>             .DATA.L     _IsKeyDown
    00003304              L2079:                            
          Menu.c  1150                }
          Menu.c  1151                else if (IsKeyDown(KEY_CTRL_EXE) && exeDown == 0) // si on appuie sur EXE
    00003304 945F                   MOV.W       L2352,R4   ; H'7534
    00003306 D230                   MOV.L       L2352+2,R2 ; _IsKeyDown
    00003308 420B                   JSR         @R2
    0000330A 0009                   NOP
    0000330C 2008                   TST         R0,R0
    0000330E 8967                   BT          L2089
    00003310 52F4                   MOV.L       @(16,R15),R2
    00003312 2228                   TST         R2,R2
    00003314 8B64                   BF          L2089
          Menu.c  1152                {
          Menu.c  1153                    exeDown = 1; // pour viter l'appui constant sur EXE
          Menu.c  1154    
          Menu.c  1155                    if (selection!=2&&selection!=7&&selection!=8&&selection!=13&&selection!=16&&selection!=19&
                         +&!((selection==4 || selection==7 || selection==11 || selection==13 || selection==16 || selection==18 || se
                         +lection==21) && sauvegarde->succes[selection] != -1)) selectionExpanded = selectionExpanded!=99?99:selecti
                         +on;
    00003316 60B3                   MOV         R11,R0
    00003318 1FA4                   MOV.L       R10,@(16,R15)
    0000331A 8802                   CMP/EQ      #2,R0
    0000331C 8960                   BT          L2089
    0000331E 60B3                   MOV         R11,R0
    00003320 8807                   CMP/EQ      #7,R0
    00003322 895D                   BT          L2089
    00003324 60B3                   MOV         R11,R0
    00003326 8808                   CMP/EQ      #8,R0
    00003328 895A                   BT          L2089
    0000332A 60B3                   MOV         R11,R0
    0000332C 880D                   CMP/EQ      #13,R0
    0000332E 8957                   BT          L2089
    00003330 60B3                   MOV         R11,R0
    00003332 8810                   CMP/EQ      #16,R0
    00003334 8954                   BT          L2089
    00003336 60B3                   MOV         R11,R0
    00003338 8813                   CMP/EQ      #19,R0
    0000333A 8951                   BT          L2089
    0000333C 60B3                   MOV         R11,R0




SH SERIES C/C++ Compiler (Ver. 6.0C)                                                                 30-Jan-2015 21:53:33  PAGE  142


SCT OFFSET   CODE       C LABEL     INSTRUCTION OPERAND    COMMENT

    0000333E 8804                   CMP/EQ      #4,R0
    00003340 8911                   BT          L2086
    00003342 60B3                   MOV         R11,R0
    00003344 8807                   CMP/EQ      #7,R0
    00003346 890E                   BT          L2086
    00003348 60B3                   MOV         R11,R0
    0000334A 880B                   CMP/EQ      #11,R0
    0000334C 890B                   BT          L2086
    0000334E 60B3                   MOV         R11,R0
    00003350 880D                   CMP/EQ      #13,R0
    00003352 8908                   BT          L2086
    00003354 60B3                   MOV         R11,R0
    00003356 8810                   CMP/EQ      #16,R0
    00003358 8905                   BT          L2086
    0000335A 60B3                   MOV         R11,R0
    0000335C 8812                   CMP/EQ      #18,R0
    0000335E 8902                   BT          L2086
    00003360 60B3                   MOV         R11,R0
    00003362 8815                   CMP/EQ      #21,R0
    00003364 8B05                   BF          L2085
    00003366              L2086:                            
    00003366 D319                   MOV.L       L2352+6,R3 ; _sauvegarde
    00003368 6032                   MOV.L       @R3,R0
    0000336A 7060                   ADD         #96,R0
    0000336C 00BC                   MOV.B       @(R0,R11),R0
    0000336E 88FF                   CMP/EQ      #-1,R0
    00003370 8B36                   BF          L2089
    00003372              L2085:                            
    00003372 60C3                   MOV         R12,R0
    00003374 8863                   CMP/EQ      #99,R0
    00003376 8901                   BT          L2087
    00003378 A032                   BRA         L2089
    0000337A EC63                   MOV         #99,R12
    0000337C              L2087:                            
    0000337C A030                   BRA         L2089
    0000337E 6CB3                   MOV         R11,R12
    00003380              L2074:                            
          Menu.c  1156                }
          Menu.c  1157            }
          Menu.c  1158            else
          Menu.c  1159            {
          Menu.c  1160                if (v < vNext) u += (vNext-v>2?3:1), v += (vNext-v>2?3:1);
    00003380 52F1                   MOV.L       @(4,R15),R2
    00003382 3D23                   CMP/GE      R2,R13
    00003384 890F                   BT          L2090
    00003386 54F1                   MOV.L       @(4,R15),R4
    00003388 34D8                   SUB         R13,R4
    0000338A 3487                   CMP/GT      R8,R4
    0000338C 8B01                   BF          L2091
    0000338E A001                   BRA         L2093
    00003390 E103                   MOV         #3,R1
    00003392              L2091:                            
    00003392 E101                   MOV         #1,R1
    00003394              L2093:                            
    00003394 3487                   CMP/GT      R8,R4
    00003396 8F02                   BF/S        L2092
    00003398 391C                   ADD         R1,R9




SH SERIES C/C++ Compiler (Ver. 6.0C)                                                                 30-Jan-2015 21:53:33  PAGE  143


SCT OFFSET   CODE       C LABEL     INSTRUCTION OPERAND    COMMENT

    0000339A A001                   BRA         L2094
    0000339C E303                   MOV         #3,R3
    0000339E              L2092:                            
    0000339E E301                   MOV         #1,R3
    000033A0              L2094:                            
    000033A0 3D3C                   ADD         R3,R13
    000033A2 A017                   BRA         L2095
    000033A4 0009                   NOP
    000033A6              L2090:                            
          Menu.c  1161                else if (v > vNext) u -= (v-vNext>2?3:1), v -= (v-vNext>2?3:1);
    000033A6 52F1                   MOV.L       @(4,R15),R2
    000033A8 3D27                   CMP/GT      R2,R13
    000033AA 8B13                   BF          L2095
    000033AC 53F1                   MOV.L       @(4,R15),R3
    000033AE 64D3                   MOV         R13,R4
    000033B0 3438                   SUB         R3,R4
    000033B2 3487                   CMP/GT      R8,R4
    000033B4 8B01                   BF          L2097
    000033B6 A001                   BRA         L2099
    000033B8 E103                   MOV         #3,R1
    000033BA              L2097:                            
    000033BA E101                   MOV         #1,R1
    000033BC              L2099:                            
    000033BC 3487                   CMP/GT      R8,R4
    000033BE 8F07                   BF/S        L2098
    000033C0 3918                   SUB         R1,R9
    000033C2 A006                   BRA         L2100
    000033C4 E203                   MOV         #3,R2
    000033C6              L2352:                            
    000033C6 7534                   .DATA.W     H'7534
    000033C8 <00000000>             .DATA.L     _IsKeyDown
    000033CC <00000000>             .DATA.L     _sauvegarde
    000033D0              L2098:                            
    000033D0 E201                   MOV         #1,R2
    000033D2              L2100:                            
    000033D2 3D28                   SUB         R2,R13
    000033D4              L2095:                            
          Menu.c  1162    
          Menu.c  1163                if (keyDown > 0) keyDown--;
    000033D4 53F3                   MOV.L       @(12,R15),R3
    000033D6 4315                   CMP/PL      R3
    000033D8 8B02                   BF          L2089
    000033DA 51F3                   MOV.L       @(12,R15),R1
    000033DC 71FF                   ADD         #-1,R1
    000033DE 1F13                   MOV.L       R1,@(12,R15)
    000033E0              L2089:                            
          Menu.c  1164            }
          Menu.c  1165    
          Menu.c  1166            if (IsKeyUp(KEY_CTRL_EXE)) exeDown = 0;
    000033E0 948D                   MOV.W       L2353,R4   ; H'7534
    000033E2 D34A                   MOV.L       L2353+14,R3; _IsKeyUp
    000033E4 430B                   JSR         @R3
    000033E6 0009                   NOP
    000033E8 2008                   TST         R0,R0
    000033EA 8901                   BT          L2102
    000033EC E300                   MOV         #0,R3
    000033EE 1F34                   MOV.L       R3,@(16,R15)




SH SERIES C/C++ Compiler (Ver. 6.0C)                                                                 30-Jan-2015 21:53:33  PAGE  144


SCT OFFSET   CODE       C LABEL     INSTRUCTION OPERAND    COMMENT

    000033F0              L2102:                            
          Menu.c  1167    
          Menu.c  1168        }while (IsKeyUp(KEY_CTRL_EXIT));
    000033F0 9486                   MOV.W       L2353+2,R4 ; H'7532
    000033F2 D346                   MOV.L       L2353+14,R3; _IsKeyUp
    000033F4 430B                   JSR         @R3
    000033F6 0009                   NOP
    000033F8 2008                   TST         R0,R0
    000033FA 8901                   BT          L2354
    000033FC ADC1                   BRA         L2040
    000033FE 0009                   NOP
    00003400              L2354:                            
          Menu.c  1169    }
    00003400 917F                   MOV.W       L2353+4,R1 ; H'0120
    00003402 3F1C                   ADD         R1,R15
    00003404 4F16                   LDS.L       @R15+,MACL
    00003406 4F26                   LDS.L       @R15+,PR
    00003408 68F6                   MOV.L       @R15+,R8
    0000340A 69F6                   MOV.L       @R15+,R9
    0000340C 6AF6                   MOV.L       @R15+,R10
    0000340E 6BF6                   MOV.L       @R15+,R11
    00003410 6CF6                   MOV.L       @R15+,R12
    00003412 6DF6                   MOV.L       @R15+,R13
    00003414 000B                   RTS
    00003416 6EF6                   MOV.L       @R15+,R14
          Menu.c  1170    
          Menu.c  1171    int tirageMenu(int *nbJetons, int *nbPiece, int coeur)
    00003418              _tirageMenu:                     ; function: tirageMenu
                                                           ; frame size=320
                                                           ; used runtime library name:
                                                           ; __divls, __modls, __quick_evn_mvn, __quick_odd_mvn
    00003418 2FE6                   MOV.L       R14,@-R15
    0000341A EE00                   MOV         #0,R14
          Menu.c  1172    {
          Menu.c  1173        char *lotNames[10] = {"PETIT BONUS","GROS BONUS","JACKPOT","PETITE EXPLOSION","GROSSE EXPLOSION","BOMB
                         +E ATOMIQUE","SECONDE CHANCE","JETONS BONUS","DOUBLE PIECE","LONGUEUR D'AVANCE"};
    0000341C 9173                   MOV.W       L2353+8,R1 ; H'00E0
    0000341E 2FD6                   MOV.L       R13,@-R15
    00003420 2FC6                   MOV.L       R12,@-R15
    00003422 EC01                   MOV         #1,R12
    00003424 DD3A                   MOV.L       L2353+18,R13; _sauvegarde
    00003426 2FB6                   MOV.L       R11,@-R15
    00003428 2FA6                   MOV.L       R10,@-R15
    0000342A EA03                   MOV         #3,R10
    0000342C D239                   MOV.L       L2353+22,R2; L1092
    0000342E 2F96                   MOV.L       R9,@-R15
    00003430 2F86                   MOV.L       R8,@-R15
    00003432 4F22                   STS.L       PR,@-R15
    00003434 4F12                   STS.L       MACL,@-R15
    00003436 9065                   MOV.W       L2353+6,R0 ; H'FEF8
    00003438 D337                   MOV.L       L2353+26,R3; __quick_evn_mvn
    0000343A 3F0C                   ADD         R0,R15
    0000343C 1F42                   MOV.L       R4,@(8,R15)
    0000343E 31FC                   ADD         R15,R1
    00003440 1F57                   MOV.L       R5,@(28,R15)
    00003442 1F61                   MOV.L       R6,@(4,R15)
    00003444 430B                   JSR         @R3




SH SERIES C/C++ Compiler (Ver. 6.0C)                                                                 30-Jan-2015 21:53:33  PAGE  145


SCT OFFSET   CODE       C LABEL     INSTRUCTION OPERAND    COMMENT

    00003446 E028                   MOV         #40,R0
          Menu.c  1174        char *lotDesc1[10] = {"+100 pieces !","+500 pieces !","+1000 pieces !","Augmente legerement","Augmente
                         + ton score !","Boost ton score !","Repars comme si de","Allez, cadeau !", "Pieces doublees a la", "750m d'
                         +avance a la"};
    00003448 915E                   MOV.W       L2353+10,R1; H'00B8
    0000344A 31FC                   ADD         R15,R1
    0000344C D233                   MOV.L       L2353+30,R2; L1104
    0000344E D332                   MOV.L       L2353+26,R3; __quick_evn_mvn
    00003450 430B                   JSR         @R3
    00003452 E028                   MOV         #40,R0
          Menu.c  1175        char *lotDesc2[10] = {"","","","ton score !","","","rien n'etait !","","prochaine partie !","prochaine
                         + partie !"};
    00003454 9159                   MOV.W       L2353+12,R1; H'0090
    00003456 31FC                   ADD         R15,R1
    00003458 D231                   MOV.L       L2353+34,R2; L1116
    0000345A D32F                   MOV.L       L2353+26,R3; __quick_evn_mvn
    0000345C 430B                   JSR         @R3
    0000345E E028                   MOV         #40,R0
          Menu.c  1176        char jetonsChar[2];
          Menu.c  1177        char pieceChar[4];
          Menu.c  1178        int exeDown = 1;
          Menu.c  1179        int phase = 0, phaseTimer = 0, spinPhase = 0;
          Menu.c  1180        int lots[3][3],i,lotsFinaux[3]={ -1,-1,-1 };
    00003460 D230                   MOV.L       L2353+38,R2; L1129
    00003462 E054                   MOV         #84,R0
    00003464 D330                   MOV.L       L2353+42,R3; __quick_odd_mvn
    00003466 6BE3                   MOV         R14,R11
    00003468 0FC6                   MOV.L       R12,@(R0,R15)
    0000346A 61F3                   MOV         R15,R1
    0000346C 2FE2                   MOV.L       R14,@R15
    0000346E 7158                   ADD         #88,R1
    00003470 1FEB                   MOV.L       R14,@(44,R15)
    00003472 430B                   JSR         @R3
    00003474 E00C                   MOV         #12,R0
          Menu.c  1181        unsigned proba;
          Menu.c  1182    
          Menu.c  1183        for(i=0;i<9;i++) lots[i/3][i%3] = rand() % 10;
    00003476 69B3                   MOV         R11,R9
    00003478 A01C                   BRA         L2103
    0000347A E809                   MOV         #9,R8
    0000347C              L2104:                            
    0000347C D32B                   MOV.L       L2353+46,R3; __divls
    0000347E 6193                   MOV         R9,R1
    00003480 430B                   JSR         @R3
    00003482 60A3                   MOV         R10,R0
    00003484 6303                   MOV         R0,R3
    00003486 4000                   SHLL        R0
    00003488 303C                   ADD         R3,R0
    0000348A 4008                   SHLL2       R0
    0000348C D328                   MOV.L       L2353+50,R3; __modls
    0000348E 62F3                   MOV         R15,R2
    00003490 7264                   ADD         #100,R2
    00003492 302C                   ADD         R2,R0
    00003494 6203                   MOV         R0,R2
    00003496 6193                   MOV         R9,R1
    00003498 430B                   JSR         @R3
    0000349A 60A3                   MOV         R10,R0




SH SERIES C/C++ Compiler (Ver. 6.0C)                                                                 30-Jan-2015 21:53:33  PAGE  146


SCT OFFSET   CODE       C LABEL     INSTRUCTION OPERAND    COMMENT

    0000349C D325                   MOV.L       L2353+54,R3; _rand
    0000349E 4008                   SHLL2       R0
    000034A0 302C                   ADD         R2,R0
    000034A2 430B                   JSR         @R3
    000034A4 2F06                   MOV.L       R0,@-R15
    000034A6 6103                   MOV         R0,R1
    000034A8 D321                   MOV.L       L2353+50,R3; __modls
    000034AA 430B                   JSR         @R3
    000034AC E00A                   MOV         #10,R0
    000034AE 7901                   ADD         #1,R9
    000034B0 61F6                   MOV.L       @R15+,R1
    000034B2 2102                   MOV.L       R0,@R1
    000034B4              L2103:                            
    000034B4 3983                   CMP/GE      R8,R9
    000034B6 8BE1                   BF          L2104
          Menu.c  1184    
          Menu.c  1185        if (*nbJetons == 0) return 0;
    000034B8 52F2                   MOV.L       @(8,R15),R2
    000034BA 6322                   MOV.L       @R2,R3
    000034BC 2338                   TST         R3,R3
    000034BE 8B01                   BF          L2355
    000034C0 A405                   BRA         L1173
    000034C2 0009                   NOP
    000034C4              L2355:                            
    000034C4 50F1                   MOV.L       @(4,R15),R0
    000034C6 61F3                   MOV         R15,R1
    000034C8 2008                   TST         R0,R0
    000034CA 0029                   MOVT        R0
    000034CC 7150                   ADD         #80,R1
    000034CE 63F3                   MOV         R15,R3
    000034D0 2102                   MOV.L       R0,@R1
    000034D2 62F3                   MOV         R15,R2
    000034D4 7358                   ADD         #88,R3
    000034D6 725C                   ADD         #92,R2
    000034D8 1F34                   MOV.L       R3,@(16,R15)
    000034DA 61F3                   MOV         R15,R1
    000034DC 1F28                   MOV.L       R2,@(32,R15)
    000034DE 64F3                   MOV         R15,R4
    000034E0 7160                   ADD         #96,R1
    000034E2 7464                   ADD         #100,R4
    000034E4 1F19                   MOV.L       R1,@(36,R15)
    000034E6 E044                   MOV         #68,R0
    000034E8 6343                   MOV         R4,R3
    000034EA 7304                   ADD         #4,R3
    000034EC 0F36                   MOV.L       R3,@(R0,R15)
    000034EE 6243                   MOV         R4,R2
    000034F0 7210                   ADD         #16,R2
    000034F2 E040                   MOV         #64,R0
    000034F4 0F26                   MOV.L       R2,@(R0,R15)
    000034F6 741C                   ADD         #28,R4
    000034F8 E04C                   MOV         #76,R0
          Menu.c  1186    
          Menu.c  1187        while (*nbJetons != 0 || spinPhase != 276) // tant qu'il y a encore des jetons
    000034FA A3DD                   BRA         L2108
    000034FC 0F46                   MOV.L       R4,@(R0,R15)
    000034FE              L2353:                            
    000034FE 7534                   .DATA.W     H'7534




SH SERIES C/C++ Compiler (Ver. 6.0C)                                                                 30-Jan-2015 21:53:33  PAGE  147


SCT OFFSET   CODE       C LABEL     INSTRUCTION OPERAND    COMMENT

    00003500 7532                   .DATA.W     H'7532
    00003502 0120                   .DATA.W     H'0120
    00003504 FEF8                   .DATA.W     H'FEF8
    00003506 00E0                   .DATA.W     H'00E0
    00003508 00B8                   .DATA.W     H'00B8
    0000350A 0090                   .DATA.W     H'0090
    0000350C <00000000>             .DATA.L     _IsKeyUp
    00003510 <00000000>             .DATA.L     _sauvegarde
    00003514 <00000000>             .DATA.L     L1092
    00003518 <00000000>             .DATA.L     __quick_evn_mvn
    0000351C <00000000>             .DATA.L     L1104
    00003520 <00000000>             .DATA.L     L1116
    00003524 <00000000>             .DATA.L     L1129
    00003528 <00000000>             .DATA.L     __quick_odd_mvn
    0000352C <00000000>             .DATA.L     __divls
    00003530 <00000000>             .DATA.L     __modls
    00003534 <00000000>             .DATA.L     _rand
    00003538              L2109:                            
          Menu.c  1188        {
          Menu.c  1189            if(lotsFinaux[0]==-1 && lotsFinaux[1]==-1 && lotsFinaux[2]==-1)
    00003538 50F4                   MOV.L       @(16,R15),R0
    0000353A 6002                   MOV.L       @R0,R0
    0000353C 88FF                   CMP/EQ      #-1,R0
    0000353E 8901                   BT          L2356
    00003540 A0CA                   BRA         L2110
    00003542 0009                   NOP
    00003544              L2356:                            
    00003544 50F8                   MOV.L       @(32,R15),R0
    00003546 6002                   MOV.L       @R0,R0
    00003548 88FF                   CMP/EQ      #-1,R0
    0000354A 8901                   BT          L2357
    0000354C A0C4                   BRA         L2110
    0000354E 0009                   NOP
    00003550              L2357:                            
    00003550 50F9                   MOV.L       @(36,R15),R0
    00003552 6002                   MOV.L       @R0,R0
    00003554 88FF                   CMP/EQ      #-1,R0
    00003556 8901                   BT          L2358
    00003558 A0BE                   BRA         L2110
    0000355A 0009                   NOP
    0000355C              L2358:                            
          Menu.c  1190            {
          Menu.c  1191                proba = rand() % ((sauvegarde->gadgetEquipe[0]==11||sauvegarde->gadgetEquipe[1]==11)&&*nbJeton
                         +s==1?220:367);
    0000355C D22B                   MOV.L       L2359+10,R2; _rand
    0000355E 420B                   JSR         @R2
    00003560 0009                   NOP
    00003562 6103                   MOV         R0,R1
    00003564 64D2                   MOV.L       @R13,R4
    00003566 740C                   ADD         #12,R4
    00003568 6040                   MOV.B       @R4,R0
    0000356A 600C                   EXTU.B      R0,R0
    0000356C 880B                   CMP/EQ      #11,R0
    0000356E 8903                   BT          L2112
    00003570 8441                   MOV.B       @(1,R4),R0
    00003572 600C                   EXTU.B      R0,R0
    00003574 880B                   CMP/EQ      #11,R0




SH SERIES C/C++ Compiler (Ver. 6.0C)                                                                 30-Jan-2015 21:53:33  PAGE  148


SCT OFFSET   CODE       C LABEL     INSTRUCTION OPERAND    COMMENT

    00003576 8B06                   BF          L2111
    00003578              L2112:                            
    00003578 50F2                   MOV.L       @(8,R15),R0
    0000357A 6002                   MOV.L       @R0,R0
    0000357C 8801                   CMP/EQ      #1,R0
    0000357E 8B02                   BF          L2111
    00003580 933F                   MOV.W       L2359,R3   ; H'00DC
    00003582 A001                   BRA         L2113
    00003584 0009                   NOP
    00003586              L2111:                            
    00003586 933D                   MOV.W       L2359+2,R3 ; H'016F
    00003588              L2113:                            
    00003588 6033                   MOV         R3,R0
    0000358A D321                   MOV.L       L2359+14,R3; __modls
    0000358C 430B                   JSR         @R3
    0000358E 0009                   NOP
          Menu.c  1192                for(i=0;i<3;i++)
    00003590 1FE1                   MOV.L       R14,@(4,R15)
    00003592 64F3                   MOV         R15,R4
    00003594 6903                   MOV         R0,R9
    00003596 7458                   ADD         #88,R4
    00003598 1F43                   MOV.L       R4,@(12,R15)
    0000359A 1F46                   MOV.L       R4,@(24,R15)
    0000359C A097                   BRA         L2114
    0000359E 1F45                   MOV.L       R4,@(20,R15)
    000035A0              L2115:                            
    000035A0 942F                   MOV.W       L2359,R4   ; H'00DC
    000035A2 63F3                   MOV         R15,R3
    000035A4 58F1                   MOV.L       @(4,R15),R8
    000035A6 3946                   CMP/HI      R4,R9
    000035A8 4808                   SHLL2       R8
    000035AA 7358                   ADD         #88,R3
    000035AC 8F09                   BF/S        L2116
    000035AE 383C                   ADD         R3,R8
          Menu.c  1193                {
          Menu.c  1194                    if(proba > 220) lotsFinaux[i] = rand()%10;
    000035B0 D116                   MOV.L       L2359+10,R1; _rand
    000035B2 410B                   JSR         @R1
    000035B4 0009                   NOP
    000035B6 6103                   MOV         R0,R1
    000035B8 D315                   MOV.L       L2359+14,R3; __modls
    000035BA 430B                   JSR         @R3
    000035BC E00A                   MOV         #10,R0
    000035BE A07A                   BRA         L2117
    000035C0 2802                   MOV.L       R0,@R8
    000035C2              L2116:                            
          Menu.c  1195                    else if(proba > 170) lotsFinaux[i] = 0;
    000035C2 9420                   MOV.W       L2359+4,R4 ; H'00AA
    000035C4 3946                   CMP/HI      R4,R9
    000035C6 8B01                   BF          L2118
    000035C8 A075                   BRA         L2117
    000035CA 28E2                   MOV.L       R14,@R8
    000035CC              L2118:                            
          Menu.c  1196                    else if(proba > 140) lotsFinaux[i] = 1;
    000035CC 941C                   MOV.W       L2359+6,R4 ; H'008C
    000035CE 3946                   CMP/HI      R4,R9
    000035D0 8B01                   BF          L2120




SH SERIES C/C++ Compiler (Ver. 6.0C)                                                                 30-Jan-2015 21:53:33  PAGE  149


SCT OFFSET   CODE       C LABEL     INSTRUCTION OPERAND    COMMENT

    000035D2 A070                   BRA         L2117
    000035D4 28C2                   MOV.L       R12,@R8
    000035D6              L2120:                            
          Menu.c  1197                    else if(proba > 130) lotsFinaux[i] = 2;
    000035D6 9418                   MOV.W       L2359+8,R4 ; H'0082
    000035D8 3946                   CMP/HI      R4,R9
    000035DA 8B01                   BF          L2122
    000035DC A00F                   BRA         L2236
    000035DE E402                   MOV         #2,R4
    000035E0              L2122:                            
          Menu.c  1198                    else if(proba >  90) lotsFinaux[i] = 3;
    000035E0 E45A                   MOV         #90,R4
    000035E2 3946                   CMP/HI      R4,R9
    000035E4 8B01                   BF          L2124
    000035E6 A066                   BRA         L2117
    000035E8 28A2                   MOV.L       R10,@R8
    000035EA              L2124:                            
          Menu.c  1199                    else if(proba >  70) lotsFinaux[i] = 4;
    000035EA E446                   MOV         #70,R4
    000035EC 3946                   CMP/HI      R4,R9
    000035EE 8B02                   BF          L2126
    000035F0 E204                   MOV         #4,R2
    000035F2 A060                   BRA         L2117
    000035F4 2822                   MOV.L       R2,@R8
    000035F6              L2126:                            
          Menu.c  1200                    else if(proba >  65) lotsFinaux[i] = 5;
    000035F6 E441                   MOV         #65,R4
    000035F8 3946                   CMP/HI      R4,R9
    000035FA 8B0B                   BF          L2128
    000035FC E405                   MOV         #5,R4
    000035FE              L2236:                            
    000035FE A05A                   BRA         L2117
    00003600 2842                   MOV.L       R4,@R8
    00003602              L2359:                            
    00003602 00DC                   .DATA.W     H'00DC
    00003604 016F                   .DATA.W     H'016F
    00003606 00AA                   .DATA.W     H'00AA
    00003608 008C                   .DATA.W     H'008C
    0000360A 0082                   .DATA.W     H'0082
    0000360C <00000000>             .DATA.L     _rand
    00003610 <00000000>             .DATA.L     __modls
    00003614              L2128:                            
          Menu.c  1201                    else if(proba >  55) lotsFinaux[i] = (coeur==0?6:rand()%5);
    00003614 E437                   MOV         #55,R4
    00003616 3946                   CMP/HI      R4,R9
    00003618 8B14                   BF          L2130
    0000361A E054                   MOV         #84,R0
    0000361C 51F1                   MOV.L       @(4,R15),R1
    0000361E 4108                   SHLL2       R1
    00003620 313C                   ADD         R3,R1
    00003622 2F16                   MOV.L       R1,@-R15
    00003624 00FE                   MOV.L       @(R0,R15),R0
    00003626 2008                   TST         R0,R0
    00003628 8901                   BT          L2131
    0000362A A008                   BRA         L2132
    0000362C E206                   MOV         #6,R2
    0000362E              L2131:                            




SH SERIES C/C++ Compiler (Ver. 6.0C)                                                                 30-Jan-2015 21:53:33  PAGE  150


SCT OFFSET   CODE       C LABEL     INSTRUCTION OPERAND    COMMENT

    0000362E D130                   MOV.L       L2360,R1   ; _rand
    00003630 410B                   JSR         @R1
    00003632 0009                   NOP
    00003634 D32F                   MOV.L       L2360+4,R3 ; __modls
    00003636 6103                   MOV         R0,R1
    00003638 430B                   JSR         @R3
    0000363A E005                   MOV         #5,R0
    0000363C 6203                   MOV         R0,R2
    0000363E              L2132:                            
    0000363E 60F6                   MOV.L       @R15+,R0
    00003640 A039                   BRA         L2117
    00003642 2022                   MOV.L       R2,@R0
    00003644              L2130:                            
          Menu.c  1202                    else if(proba >  40) lotsFinaux[i] = 7;
    00003644 E428                   MOV         #40,R4
    00003646 3946                   CMP/HI      R4,R9
    00003648 8B03                   BF          L2134
    0000364A E407                   MOV         #7,R4
    0000364C 51F5                   MOV.L       @(20,R15),R1
    0000364E A032                   BRA         L2117
    00003650 2142                   MOV.L       R4,@R1
    00003652              L2134:                            
          Menu.c  1203                    else if(proba >  25) lotsFinaux[i] = (sauvegarde->doublePiece==0?8:rand()%8);
    00003652 E419                   MOV         #25,R4
    00003654 3946                   CMP/HI      R4,R9
    00003656 8B16                   BF          L2136
    00003658 52F6                   MOV.L       @(24,R15),R2
    0000365A E076                   MOV         #118,R0
    0000365C 2F26                   MOV.L       R2,@-R15
    0000365E 61D2                   MOV.L       @R13,R1
    00003660 001C                   MOV.B       @(R0,R1),R0
    00003662 2008                   TST         R0,R0
    00003664 8B01                   BF          L2137
    00003666 A024                   BRA         L2235
    00003668 E108                   MOV         #8,R1
    0000366A              L2137:                            
    0000366A D221                   MOV.L       L2360,R2   ; _rand
    0000366C 420B                   JSR         @R2
    0000366E 0009                   NOP
    00003670 4011                   CMP/PZ      R0
    00003672 8B01                   BF          L2138
    00003674 A005                   BRA         L2139
    00003676 C907                   AND         #7,R0
    00003678              L2138:                            
    00003678 6007                   NOT         R0,R0
    0000367A 7001                   ADD         #1,R0
    0000367C C907                   AND         #7,R0
    0000367E 6007                   NOT         R0,R0
    00003680 7001                   ADD         #1,R0
    00003682              L2139:                            
    00003682 A016                   BRA         L2235
    00003684 6103                   MOV         R0,R1
    00003686              L2136:                            
          Menu.c  1204                    else lotsFinaux[i] = (sauvegarde->longueurAvance==0?9:rand()%8);
    00003686 E077                   MOV         #119,R0
    00003688 52F3                   MOV.L       @(12,R15),R2
    0000368A 2F26                   MOV.L       R2,@-R15




SH SERIES C/C++ Compiler (Ver. 6.0C)                                                                 30-Jan-2015 21:53:33  PAGE  151


SCT OFFSET   CODE       C LABEL     INSTRUCTION OPERAND    COMMENT

    0000368C 61D2                   MOV.L       @R13,R1
    0000368E 001C                   MOV.B       @(R0,R1),R0
    00003690 2008                   TST         R0,R0
    00003692 8B01                   BF          L2142
    00003694 A00D                   BRA         L2235
    00003696 E109                   MOV         #9,R1
    00003698              L2142:                            
    00003698 D215                   MOV.L       L2360,R2   ; _rand
    0000369A 420B                   JSR         @R2
    0000369C 0009                   NOP
    0000369E 4011                   CMP/PZ      R0
    000036A0 8B01                   BF          L2143
    000036A2 A005                   BRA         L2144
    000036A4 C907                   AND         #7,R0
    000036A6              L2143:                            
    000036A6 6007                   NOT         R0,R0
    000036A8 7001                   ADD         #1,R0
    000036AA C907                   AND         #7,R0
    000036AC 6007                   NOT         R0,R0
    000036AE 7001                   ADD         #1,R0
    000036B0              L2144:                            
    000036B0 6103                   MOV         R0,R1
    000036B2              L2235:                            
    000036B2 60F6                   MOV.L       @R15+,R0
    000036B4 2012                   MOV.L       R1,@R0
    000036B6              L2117:                            
    000036B6 53F1                   MOV.L       @(4,R15),R3
    000036B8 7301                   ADD         #1,R3
    000036BA 1F31                   MOV.L       R3,@(4,R15)
    000036BC 52F3                   MOV.L       @(12,R15),R2
    000036BE 7204                   ADD         #4,R2
    000036C0 1F23                   MOV.L       R2,@(12,R15)
    000036C2 51F6                   MOV.L       @(24,R15),R1
    000036C4 7104                   ADD         #4,R1
    000036C6 1F16                   MOV.L       R1,@(24,R15)
    000036C8 53F5                   MOV.L       @(20,R15),R3
    000036CA 7304                   ADD         #4,R3
    000036CC 1F35                   MOV.L       R3,@(20,R15)
    000036CE              L2114:                            
    000036CE 52F1                   MOV.L       @(4,R15),R2
    000036D0 32A3                   CMP/GE      R10,R2
    000036D2 8901                   BT          L2361
    000036D4 AF64                   BRA         L2115
    000036D6 0009                   NOP
    000036D8              L2361:                            
    000036D8              L2110:                            
          Menu.c  1205                }
          Menu.c  1206            }
          Menu.c  1207    
          Menu.c  1208            ML_clear_vram(); // on efface l'cran
    000036D8 D907                   MOV.L       L2360+8,R9 ; _ML_clear_vram
    000036DA 490B                   JSR         @R9
    000036DC 0009                   NOP
          Menu.c  1209    
          Menu.c  1210            sprintf(jetonsChar,*nbJetons<10?"0%d":"%d",*nbJetons); // on convertit le int de jetons en char
    000036DE E30A                   MOV         #10,R3
    000036E0 59F2                   MOV.L       @(8,R15),R9




SH SERIES C/C++ Compiler (Ver. 6.0C)                                                                 30-Jan-2015 21:53:33  PAGE  152


SCT OFFSET   CODE       C LABEL     INSTRUCTION OPERAND    COMMENT

    000036E2 6992                   MOV.L       @R9,R9
    000036E4 3933                   CMP/GE      R3,R9
    000036E6 8D0B                   BT/S        L2146
    000036E8 2F96                   MOV.L       R9,@-R15
    000036EA D104                   MOV.L       L2360+12,R1; L1135
    000036EC A00A                   BRA         L2147
    000036EE 2F16                   MOV.L       R1,@-R15
    000036F0              L2360:                            
    000036F0 <00000000>             .DATA.L     _rand
    000036F4 <00000000>             .DATA.L     __modls
    000036F8 <00000000>             .DATA.L     _ML_clear_vram
    000036FC <00000000>             .DATA.L     L1135
    00003700              L2146:                            
    00003700 D240                   MOV.L       L2362+8,R2 ; L844
    00003702 2F26                   MOV.L       R2,@-R15
    00003704              L2147:                            
    00003704 947A                   MOV.W       L2362,R4   ; H'0094
    00003706 D240                   MOV.L       L2362+12,R2; _sprintf
    00003708 420B                   JSR         @R2
    0000370A 34FC                   ADD         R15,R4
          Menu.c  1211    
          Menu.c  1212            PrintXY(99,6,jetonsChar,0); // on affiche le nombre de jetons restants
    0000370C D93F                   MOV.L       L2362+16,R9; _PrintXY
    0000370E E700                   MOV         #0,R7
    00003710 9674                   MOV.W       L2362,R6   ; H'0094
    00003712 E506                   MOV         #6,R5
    00003714 36FC                   ADD         R15,R6
    00003716 490B                   JSR         @R9
    00003718 E463                   MOV         #99,R4
          Menu.c  1213            ML_bmp_and(tirageFinalAlpha,0,0,128,64); // masque alpha du menu
    0000371A E340                   MOV         #64,R3
    0000371C D23D                   MOV.L       L2362+24,R2; _ML_bmp_and
    0000371E E600                   MOV         #0,R6
    00003720 D43B                   MOV.L       L2362+20,R4; __$tirageFinalAlpha
    00003722 996C                   MOV.W       L2362+2,R9 ; H'0080
    00003724 2F36                   MOV.L       R3,@-R15
    00003726 6793                   MOV         R9,R7
    00003728 420B                   JSR         @R2
    0000372A 6563                   MOV         R6,R5
          Menu.c  1214            ML_bmp_or(tirageFinal,0,0,128,64); // affichage du menu
    0000372C D83A                   MOV.L       L2362+28,R8; __$tirageFinal
    0000372E E340                   MOV         #64,R3
    00003730 D23A                   MOV.L       L2362+32,R2; _ML_bmp_or
    00003732 6793                   MOV         R9,R7
    00003734 2F36                   MOV.L       R3,@-R15
    00003736 E600                   MOV         #0,R6
    00003738 6563                   MOV         R6,R5
    0000373A 420B                   JSR         @R2
    0000373C 6483                   MOV         R8,R4
    0000373E 7F10                   ADD         #16,R15
          Menu.c  1215    
          Menu.c  1216            if (phase) phaseTimer++; // si l'animation du levier est lance, on a un timer qui change la posit
                         +ion du levier toutes les 20 frames
    00003740 63F2                   MOV.L       @R15,R3
    00003742 2338                   TST         R3,R3
    00003744 8D03                   BT/S        L2148
          Menu.c  1217            if (phaseTimer > 10) // si le timer est  20 et qu'on est pas rest appuy sur EXE (sinon il reste




SH SERIES C/C++ Compiler (Ver. 6.0C)                                                                 30-Jan-2015 21:53:33  PAGE  153


SCT OFFSET   CODE       C LABEL     INSTRUCTION OPERAND    COMMENT

                         + bloqu en bas)
    00003746 E20A                   MOV         #10,R2
    00003748 53FB                   MOV.L       @(44,R15),R3
    0000374A 7301                   ADD         #1,R3
    0000374C 1F3B                   MOV.L       R3,@(44,R15)
    0000374E              L2148:                            
    0000374E 51FB                   MOV.L       @(44,R15),R1
    00003750 3127                   CMP/GT      R2,R1
    00003752 8B03                   BF          L2149
          Menu.c  1218            {
          Menu.c  1219                phase++; // on affiche le prochain sprite du levier
    00003754 63F2                   MOV.L       @R15,R3
    00003756 7301                   ADD         #1,R3
    00003758 2F32                   MOV.L       R3,@R15
          Menu.c  1220                phaseTimer = 0; // on recommence le timer
    0000375A 1FEB                   MOV.L       R14,@(44,R15)
    0000375C              L2149:                            
          Menu.c  1221            }
          Menu.c  1222            if (phase == 8) // si l'animation du levier est finie
    0000375C 60F2                   MOV.L       @R15,R0
    0000375E 8808                   CMP/EQ      #8,R0
    00003760 8B01                   BF          L2150
          Menu.c  1223            {
          Menu.c  1224                spinPhase += 19; // on lance l'animation de l'arret de la roulette
    00003762 7B13                   ADD         #19,R11
          Menu.c  1225                phase = 0; // on rinitialise l'animation du levier
    00003764 2FE2                   MOV.L       R14,@R15
    00003766              L2150:                            
          Menu.c  1226            }
          Menu.c  1227    
          Menu.c  1228            if(spinPhase >= 0)
    00003766 4B11                   CMP/PZ      R11
    00003768 8901                   BT          L2363
    0000376A A0FA                   BRA         L2151
    0000376C 0009                   NOP
    0000376E              L2363:                            
    0000376E 61B3                   MOV         R11,R1
    00003770 D32B                   MOV.L       L2362+36,R3; __modls
          Menu.c  1229            {
          Menu.c  1230                int i,j;
          Menu.c  1231                int x, y1, y2;
          Menu.c  1232    
          Menu.c  1233                for(i=0;i<3;i++) for(j=0;j<3;j++)
    00003772 1FE3                   MOV.L       R14,@(12,R15)
    00003774 430B                   JSR         @R3
    00003776 E013                   MOV         #19,R0
    00003778 A093                   BRA         L2152
    0000377A 1F0F                   MOV.L       R0,@(60,R15)
    0000377C              L2153:                            
    0000377C 1FEA                   MOV.L       R14,@(40,R15)
    0000377E 61F3                   MOV         R15,R1
    00003780 55F3                   MOV.L       @(12,R15),R5
    00003782 E40E                   MOV         #14,R4
    00003784 6353                   MOV         R5,R3
    00003786 6253                   MOV         R5,R2
    00003788 4300                   SHLL        R3
    0000378A 332C                   ADD         R2,R3




SH SERIES C/C++ Compiler (Ver. 6.0C)                                                                 30-Jan-2015 21:53:33  PAGE  154


SCT OFFSET   CODE       C LABEL     INSTRUCTION OPERAND    COMMENT

    0000378C 4308                   SHLL2       R3
    0000378E 7164                   ADD         #100,R1
    00003790 331C                   ADD         R1,R3
    00003792 6053                   MOV         R5,R0
    00003794 1F35                   MOV.L       R3,@(20,R15)
    00003796 E126                   MOV         #38,R1
    00003798 1F46                   MOV.L       R4,@(24,R15)
    0000379A 6353                   MOV         R5,R3
    0000379C 0517                   MUL.L       R1,R5
    0000379E 4300                   SHLL        R3
    000037A0 52FF                   MOV.L       @(60,R15),R2
    000037A2 011A                   STS         MACL,R1
    000037A4 7204                   ADD         #4,R2
    000037A6 330C                   ADD         R0,R3
    000037A8 1F2E                   MOV.L       R2,@(56,R15)
    000037AA 4308                   SHLL2       R3
    000037AC 4300                   SHLL        R3
    000037AE 7304                   ADD         #4,R3
    000037B0 1F3C                   MOV.L       R3,@(48,R15)
    000037B2 A070                   BRA         L2154
    000037B4 1F1D                   MOV.L       R1,@(52,R15)
    000037B6              L2155:                            
          Menu.c  1234                {
          Menu.c  1235                    x = 4+24*i;
          Menu.c  1236                    y1 = 4+(spinPhase%19) + 19*j;
    000037B6 58FE                   MOV.L       @(56,R15),R8
          Menu.c  1237                    if(spinPhase > 86 + 38*i && spinPhase < 276 + 38*i) y1 = 14 + 19*j;
    000037B8 53FD                   MOV.L       @(52,R15),R3
    000037BA 7356                   ADD         #86,R3
    000037BC 3B37                   CMP/GT      R3,R11
    000037BE 8B05                   BF          L2156
    000037C0 931E                   MOV.W       L2362+4,R3 ; H'0114
    000037C2 52FD                   MOV.L       @(52,R15),R2
    000037C4 323C                   ADD         R3,R2
    000037C6 3B23                   CMP/GE      R2,R11
    000037C8 8900                   BT          L2156
    000037CA 58F6                   MOV.L       @(24,R15),R8
    000037CC              L2156:                            
          Menu.c  1238                    y2 = y1 + 16;
    000037CC 6383                   MOV         R8,R3
    000037CE 7310                   ADD         #16,R3
          Menu.c  1239                    if(y2>61) y2 = 61;
    000037D0 E43D                   MOV         #61,R4
    000037D2 3347                   CMP/GT      R4,R3
    000037D4 8F01                   BF/S        L2157
    000037D6 1F31                   MOV.L       R3,@(4,R15)
    000037D8 1F41                   MOV.L       R4,@(4,R15)
    000037DA              L2157:                            
          Menu.c  1240                    if(y2<21) continue;
    000037DA E915                   MOV         #21,R9
    000037DC 53F1                   MOV.L       @(4,R15),R3
    000037DE 3393                   CMP/GE      R9,R3
    000037E0 8B4D                   BF          L2159
          Menu.c  1241    
          Menu.c  1242                    ML_bmp_or(((sauvegarde->gadgetEquipe[0]==11||sauvegarde->gadgetEquipe[1]==11)&&*nbJetons==
                         +1?trefle:lotsTirage[lots[i][j]])+(y1<21)*(3*(21-y1)),x,y1<21?21:y1,17,y2-(y1<21?21:y1));
    000037E2 3893                   CMP/GE      R9,R8




SH SERIES C/C++ Compiler (Ver. 6.0C)                                                                 30-Jan-2015 21:53:33  PAGE  155


SCT OFFSET   CODE       C LABEL     INSTRUCTION OPERAND    COMMENT

    000037E4 8901                   BT          L2160
    000037E6 A001                   BRA         L2164
    000037E8 6293                   MOV         R9,R2
    000037EA              L2160:                            
    000037EA 6283                   MOV         R8,R2
    000037EC              L2164:                            
    000037EC 53F1                   MOV.L       @(4,R15),R3
    000037EE 3893                   CMP/GE      R9,R8
    000037F0 3328                   SUB         R2,R3
    000037F2 2F36                   MOV.L       R3,@-R15
    000037F4 8D16                   BT/S        L2161
    000037F6 E711                   MOV         #17,R7
    000037F8 A015                   BRA         L2165
    000037FA 6693                   MOV         R9,R6
    000037FC              L2362:                            
    000037FC 0094                   .DATA.W     H'0094
    000037FE 0080                   .DATA.W     H'0080
    00003800 0114                   .DATA.W     H'0114
    00003802 0000                   .DATA.W     0
    00003804 <00000000>             .DATA.L     L844
    00003808 <00000000>             .DATA.L     _sprintf
    0000380C <00000000>             .DATA.L     _PrintXY
    00003810 <00000000>             .DATA.L     __$tirageFinalAlpha
    00003814 <00000000>             .DATA.L     _ML_bmp_and
    00003818 <00000000>             .DATA.L     __$tirageFinal
    0000381C <00000000>             .DATA.L     _ML_bmp_or
    00003820 <00000000>             .DATA.L     __modls
    00003824              L2161:                            
    00003824 6683                   MOV         R8,R6
    00003826              L2165:                            
    00003826 61F3                   MOV         R15,R1
    00003828 55FD                   MOV.L       @(52,R15),R5
    0000382A 714C                   ADD         #76,R1
    0000382C 60D2                   MOV.L       @R13,R0
    0000382E 700C                   ADD         #12,R0
    00003830 2102                   MOV.L       R0,@R1
    00003832 6000                   MOV.B       @R0,R0
    00003834 600C                   EXTU.B      R0,R0
    00003836 880B                   CMP/EQ      #11,R0
    00003838 8905                   BT          L2163
    0000383A E04C                   MOV         #76,R0
    0000383C 03FE                   MOV.L       @(R0,R15),R3
    0000383E 8431                   MOV.B       @(1,R3),R0
    00003840 600C                   EXTU.B      R0,R0
    00003842 880B                   CMP/EQ      #11,R0
    00003844 8B06                   BF          L2162
    00003846              L2163:                            
    00003846 50F3                   MOV.L       @(12,R15),R0
    00003848 6002                   MOV.L       @R0,R0
    0000384A 8801                   CMP/EQ      #1,R0
    0000384C 8B02                   BF          L2162
    0000384E D424                   MOV.L       L2364+2,R4 ; __$trefle
    00003850 A007                   BRA         L2166
    00003852 0009                   NOP
    00003854              L2162:                            
    00003854 54F6                   MOV.L       @(24,R15),R4
    00003856 E333                   MOV         #51,R3




SH SERIES C/C++ Compiler (Ver. 6.0C)                                                                 30-Jan-2015 21:53:33  PAGE  156


SCT OFFSET   CODE       C LABEL     INSTRUCTION OPERAND    COMMENT

    00003858 D122                   MOV.L       L2364+6,R1 ; __$lotsTirage
    0000385A 6242                   MOV.L       @R4,R2
    0000385C 0237                   MUL.L       R3,R2
    0000385E 041A                   STS         MACL,R4
    00003860 341C                   ADD         R1,R4
    00003862              L2166:                            
    00003862 3893                   CMP/GE      R9,R8
    00003864 D220                   MOV.L       L2364+10,R2; _ML_bmp_or
    00003866 6393                   MOV         R9,R3
    00003868 0029                   MOVT        R0
    0000386A CA01                   XOR         #1,R0
    0000386C 3388                   SUB         R8,R3
    0000386E 0037                   MUL.L       R3,R0
    00003870 001A                   STS         MACL,R0
    00003872 6303                   MOV         R0,R3
    00003874 4000                   SHLL        R0
    00003876 303C                   ADD         R3,R0
    00003878 420B                   JSR         @R2
    0000387A 340C                   ADD         R0,R4
    0000387C 7F04                   ADD         #4,R15
    0000387E              L2159:                            
    0000387E 53FA                   MOV.L       @(40,R15),R3
    00003880 7301                   ADD         #1,R3
    00003882 1F3A                   MOV.L       R3,@(40,R15)
    00003884 52F5                   MOV.L       @(20,R15),R2
    00003886 7204                   ADD         #4,R2
    00003888 1F25                   MOV.L       R2,@(20,R15)
    0000388A 51F6                   MOV.L       @(24,R15),R1
    0000388C 7113                   ADD         #19,R1
    0000388E 1F16                   MOV.L       R1,@(24,R15)
    00003890 53FE                   MOV.L       @(56,R15),R3
    00003892 7313                   ADD         #19,R3
    00003894 1F3E                   MOV.L       R3,@(56,R15)
    00003896              L2154:                            
    00003896 52FA                   MOV.L       @(40,R15),R2
    00003898 32A3                   CMP/GE      R10,R2
    0000389A 8B8C                   BF          L2155
    0000389C 51F3                   MOV.L       @(12,R15),R1
    0000389E 7101                   ADD         #1,R1
    000038A0 1F13                   MOV.L       R1,@(12,R15)
    000038A2              L2152:                            
    000038A2 53F3                   MOV.L       @(12,R15),R3
    000038A4 33A3                   CMP/GE      R10,R3
    000038A6 8901                   BT          L2365
    000038A8 AF68                   BRA         L2153
    000038AA 0009                   NOP
    000038AC              L2365:                            
          Menu.c  1243                }
          Menu.c  1244    
          Menu.c  1245                spinPhase++;
    000038AC 7B01                   ADD         #1,R11
          Menu.c  1246                if(spinPhase==19) spinPhase = 0;
    000038AE 60B3                   MOV         R11,R0
    000038B0 8813                   CMP/EQ      #19,R0
    000038B2 8B00                   BF          L2167
    000038B4 6BE3                   MOV         R14,R11
    000038B6              L2167:                            




SH SERIES C/C++ Compiler (Ver. 6.0C)                                                                 30-Jan-2015 21:53:33  PAGE  157


SCT OFFSET   CODE       C LABEL     INSTRUCTION OPERAND    COMMENT

          Menu.c  1247                if(spinPhase==352) spinPhase = 0;
    000038B6 9412                   MOV.W       L2364,R4   ; H'0160
    000038B8 3B40                   CMP/EQ      R4,R11
    000038BA 8B00                   BF          L2168
    000038BC 6BE3                   MOV         R14,R11
    000038BE              L2168:                            
          Menu.c  1248                if(!(spinPhase%19)) for(i=0;i<3;i++)
    000038BE 61B3                   MOV         R11,R1
    000038C0 D30A                   MOV.L       L2364+14,R3; __modls
    000038C2 430B                   JSR         @R3
    000038C4 E013                   MOV         #19,R0
    000038C6 2008                   TST         R0,R0
    000038C8 8B48                   BF          L2169
    000038CA 69E3                   MOV         R14,R9
    000038CC 63F3                   MOV         R15,R3
    000038CE 7358                   ADD         #88,R3
    000038D0 1F31                   MOV.L       R3,@(4,R15)
    000038D2 62F3                   MOV         R15,R2
    000038D4 7264                   ADD         #100,R2
    000038D6 E439                   MOV         #57,R4
    000038D8 1F25                   MOV.L       R2,@(20,R15)
    000038DA A03D                   BRA         L2170
    000038DC 1F43                   MOV.L       R4,@(12,R15)
    000038DE              L2364:                            
    000038DE 0160                   .DATA.W     H'0160
    000038E0 <00000000>             .DATA.L     __$trefle
    000038E4 <00000000>             .DATA.L     __$lotsTirage
    000038E8 <00000000>             .DATA.L     _ML_bmp_or
    000038EC <00000000>             .DATA.L     __modls
    000038F0              L2171:                            
          Menu.c  1249                {
          Menu.c  1250                    if(spinPhase > 86 + 38*i && spinPhase < 276 + 38*i) continue;
    000038F0 E426                   MOV         #38,R4
    000038F2 0947                   MUL.L       R4,R9
    000038F4 041A                   STS         MACL,R4
    000038F6 6243                   MOV         R4,R2
    000038F8 7256                   ADD         #86,R2
    000038FA 3B27                   CMP/GT      R2,R11
    000038FC 8B03                   BF          L2172
    000038FE 9293                   MOV.W       L2366,R2   ; H'0114
    00003900 324C                   ADD         R4,R2
    00003902 3B23                   CMP/GE      R2,R11
    00003904 8B1E                   BF          L2173
    00003906              L2172:                            
          Menu.c  1251                    lots[i][2] = lots[i][1],
          Menu.c  1252                    lots[i][1] = lots[i][0],
          Menu.c  1253                    lots[i][0] = rand()%10;
    00003906 6893                   MOV         R9,R8
    00003908 6393                   MOV         R9,R3
    0000390A 4800                   SHLL        R8
    0000390C 383C                   ADD         R3,R8
    0000390E 4808                   SHLL2       R8
    00003910 62F3                   MOV         R15,R2
    00003912 7264                   ADD         #100,R2
    00003914 382C                   ADD         R2,R8
    00003916 6383                   MOV         R8,R3
    00003918 7304                   ADD         #4,R3




SH SERIES C/C++ Compiler (Ver. 6.0C)                                                                 30-Jan-2015 21:53:33  PAGE  158


SCT OFFSET   CODE       C LABEL     INSTRUCTION OPERAND    COMMENT

    0000391A 1F36                   MOV.L       R3,@(24,R15)
    0000391C 6132                   MOV.L       @R3,R1
    0000391E 1812                   MOV.L       R1,@(8,R8)
    00003920 53F6                   MOV.L       @(24,R15),R3
    00003922 6182                   MOV.L       @R8,R1
    00003924 2312                   MOV.L       R1,@R3
    00003926 D341                   MOV.L       L2366+4,R3 ; _rand
    00003928 430B                   JSR         @R3
    0000392A 0009                   NOP
    0000392C D240                   MOV.L       L2366+8,R2 ; __modls
    0000392E 6103                   MOV         R0,R1
    00003930 420B                   JSR         @R2
    00003932 E00A                   MOV         #10,R0
    00003934 2802                   MOV.L       R0,@R8
          Menu.c  1254                    if(spinPhase==57+38*i) lots[i][0] = lotsFinaux[i];
    00003936 53F3                   MOV.L       @(12,R15),R3
    00003938 3B30                   CMP/EQ      R3,R11
    0000393A 8B03                   BF          L2173
    0000393C 51F5                   MOV.L       @(20,R15),R1
    0000393E 53F1                   MOV.L       @(4,R15),R3
    00003940 6232                   MOV.L       @R3,R2
    00003942 2122                   MOV.L       R2,@R1
    00003944              L2173:                            
    00003944 53F1                   MOV.L       @(4,R15),R3
    00003946 7901                   ADD         #1,R9
    00003948 7304                   ADD         #4,R3
    0000394A 1F31                   MOV.L       R3,@(4,R15)
    0000394C 52F5                   MOV.L       @(20,R15),R2
    0000394E 720C                   ADD         #12,R2
    00003950 1F25                   MOV.L       R2,@(20,R15)
    00003952 51F3                   MOV.L       @(12,R15),R1
    00003954 7126                   ADD         #38,R1
    00003956 1F13                   MOV.L       R1,@(12,R15)
    00003958              L2170:                            
    00003958 39A3                   CMP/GE      R10,R9
    0000395A 8BC9                   BF          L2171
    0000395C              L2169:                            
          Menu.c  1255                }
          Menu.c  1256                Sleep(5);
    0000395C D935                   MOV.L       L2366+12,R9; _Sleep
    0000395E 490B                   JSR         @R9
    00003960 E405                   MOV         #5,R4
    00003962              L2151:                            
          Menu.c  1257            }
          Menu.c  1258    
          Menu.c  1259            if(spinPhase == 276)
    00003962 9461                   MOV.W       L2366,R4   ; H'0114
    00003964 3B40                   CMP/EQ      R4,R11
    00003966 8901                   BT          L2367
    00003968 A104                   BRA         L2175
    0000396A 0009                   NOP
    0000396C              L2367:                            
          Menu.c  1260            {
          Menu.c  1261                int lot = lots[0][1];
          Menu.c  1262                (*nbJetons)--;
    0000396C 53F2                   MOV.L       @(8,R15),R3
    0000396E E044                   MOV         #68,R0




SH SERIES C/C++ Compiler (Ver. 6.0C)                                                                 30-Jan-2015 21:53:33  PAGE  159


SCT OFFSET   CODE       C LABEL     INSTRUCTION OPERAND    COMMENT

    00003970 6232                   MOV.L       @R3,R2
    00003972 09FE                   MOV.L       @(R0,R15),R9
    00003974 6992                   MOV.L       @R9,R9
    00003976 72FF                   ADD         #-1,R2
    00003978 2322                   MOV.L       R2,@R3
          Menu.c  1263                if(lots[1][1] != lot) lot = -1;
    0000397A E040                   MOV         #64,R0
    0000397C 03FE                   MOV.L       @(R0,R15),R3
    0000397E 6232                   MOV.L       @R3,R2
    00003980 3290                   CMP/EQ      R9,R2
    00003982 8B04                   BF          L1174
          Menu.c  1264                else if(lots[2][1] != lot) lot = -1;
    00003984 E04C                   MOV         #76,R0
    00003986 01FE                   MOV.L       @(R0,R15),R1
    00003988 6312                   MOV.L       @R1,R3
    0000398A 3390                   CMP/EQ      R9,R3
    0000398C 8900                   BT          L2177
    0000398E              L1174:
    0000398E E9FF                   MOV         #-1,R9
    00003990              L2177:                            
          Menu.c  1265    
          Menu.c  1266                if(lot+1)
    00003990 D429                   MOV.L       L2366+16,R4; _nouveauSucces
    00003992 6393                   MOV         R9,R3
    00003994 7301                   ADD         #1,R3
    00003996 2338                   TST         R3,R3
    00003998 8B01                   BF          L2368
    0000399A A0D1                   BRA         L2179
    0000399C 0009                   NOP
    0000399E              L2368:                            
          Menu.c  1267                {
          Menu.c  1268                    unsigned int key;
          Menu.c  1269                    sauvegarde->statTotal[5] += 1;
    0000399E E04C                   MOV         #76,R0
    000039A0 61D2                   MOV.L       @R13,R1
    000039A2 031E                   MOV.L       @(R0,R1),R3
    000039A4 7301                   ADD         #1,R3
    000039A6 0136                   MOV.L       R3,@(R0,R1)
          Menu.c  1270                    if (lot == 5 && sauvegarde->succes[11] != -1)
    000039A8 6093                   MOV         R9,R0
    000039AA 8805                   CMP/EQ      #5,R0
    000039AC 8B12                   BF          L2180
    000039AE E16B                   MOV         #107,R1
    000039B0 D322                   MOV.L       L2366+20,R3; _sauvegarde
    000039B2 6032                   MOV.L       @R3,R0
    000039B4 001C                   MOV.B       @(R0,R1),R0
    000039B6 88FF                   CMP/EQ      #-1,R0
    000039B8 890C                   BT          L2180
          Menu.c  1271                    {
          Menu.c  1272                        sauvegarde->succes[11] += 1;
    000039BA E06B                   MOV         #107,R0
    000039BC 63D2                   MOV.L       @R13,R3
    000039BE 023C                   MOV.B       @(R0,R3),R2
    000039C0 7201                   ADD         #1,R2
    000039C2 0324                   MOV.B       R2,@(R0,R3)
          Menu.c  1273                        if (sauvegarde->succes[11] >= 3) sauvegarde->succes[11] = -1, nouveauSucces = 1;
    000039C4 63D2                   MOV.L       @R13,R3




SH SERIES C/C++ Compiler (Ver. 6.0C)                                                                 30-Jan-2015 21:53:33  PAGE  160


SCT OFFSET   CODE       C LABEL     INSTRUCTION OPERAND    COMMENT

    000039C6 023C                   MOV.B       @(R0,R3),R2
    000039C8 32A3                   CMP/GE      R10,R2
    000039CA 8B03                   BF          L2180
    000039CC 62D2                   MOV.L       @R13,R2
    000039CE E3FF                   MOV         #-1,R3
    000039D0 0234                   MOV.B       R3,@(R0,R2)
    000039D2 24C0                   MOV.B       R12,@R4
    000039D4              L2180:                            
          Menu.c  1274                    }
          Menu.c  1275                    ML_rectangle(17,15,110,50,1,ML_BLACK,ML_WHITE);
    000039D4 2FE6                   MOV.L       R14,@-R15
    000039D6 E732                   MOV         #50,R7
    000039D8 D319                   MOV.L       L2366+24,R3; _ML_rectangle
    000039DA E66E                   MOV         #110,R6
    000039DC 2FC6                   MOV.L       R12,@-R15
    000039DE E50F                   MOV         #15,R5
    000039E0 2FC6                   MOV.L       R12,@-R15
    000039E2 430B                   JSR         @R3
    000039E4 E411                   MOV         #17,R4
          Menu.c  1276                    ML_bmp_or(lotsTirage[lotsFinaux[0]],20,16,17,17);
    000039E6 E833                   MOV         #51,R8
    000039E8 D316                   MOV.L       L2366+28,R3; __$lotsTirage
    000039EA E211                   MOV         #17,R2
    000039EC D116                   MOV.L       L2366+32,R1; _ML_bmp_or
    000039EE E610                   MOV         #16,R6
    000039F0 2F26                   MOV.L       R2,@-R15
    000039F2 6723                   MOV         R2,R7
    000039F4 54F8                   MOV.L       @(32,R15),R4
    000039F6 E514                   MOV         #20,R5
    000039F8 6442                   MOV.L       @R4,R4
    000039FA 0487                   MUL.L       R8,R4
    000039FC 041A                   STS         MACL,R4
    000039FE 410B                   JSR         @R1
    00003A00 343C                   ADD         R3,R4
    00003A02 7F10                   ADD         #16,R15
          Menu.c  1277                    PrintMini(39,22,lotNames[lotsFinaux[0]],0);
    00003A04 9311                   MOV.W       L2366+2,R3 ; H'00E0
    00003A06 E516                   MOV         #22,R5
    00003A08 D210                   MOV.L       L2366+36,R2; _PrintMini
    00003A0A E700                   MOV         #0,R7
    00003A0C 56F4                   MOV.L       @(16,R15),R6
    00003A0E 33FC                   ADD         R15,R3
    00003A10 6662                   MOV.L       @R6,R6
    00003A12 4608                   SHLL2       R6
    00003A14 363C                   ADD         R3,R6
    00003A16 6662                   MOV.L       @R6,R6
    00003A18 420B                   JSR         @R2
    00003A1A E427                   MOV         #39,R4
          Menu.c  1278                    PrintMini(25,35,lotDesc1[lotsFinaux[0]],0);
    00003A1C 56F4                   MOV.L       @(16,R15),R6
    00003A1E E700                   MOV         #0,R7
    00003A20 6662                   MOV.L       @R6,R6
    00003A22 4608                   SHLL2       R6
    00003A24 A014                   BRA         L2237
    00003A26 0009                   NOP
    00003A28              L2366:                            
    00003A28 0114                   .DATA.W     H'0114




SH SERIES C/C++ Compiler (Ver. 6.0C)                                                                 30-Jan-2015 21:53:33  PAGE  161


SCT OFFSET   CODE       C LABEL     INSTRUCTION OPERAND    COMMENT

    00003A2A 00E0                   .DATA.W     H'00E0
    00003A2C <00000000>             .DATA.L     _rand
    00003A30 <00000000>             .DATA.L     __modls
    00003A34 <00000000>             .DATA.L     _Sleep
    00003A38 <00000000>             .DATA.L     _nouveauSucces
    00003A3C <00000000>             .DATA.L     _sauvegarde
    00003A40 <00000000>             .DATA.L     _ML_rectangle
    00003A44 <00000000>             .DATA.L     __$lotsTirage
    00003A48 <00000000>             .DATA.L     _ML_bmp_or
    00003A4C <00000000>             .DATA.L     _PrintMini
    00003A50              L2237:                            
    00003A50 936B                   MOV.W       L2369,R3   ; H'00B8
    00003A52 E523                   MOV         #35,R5
    00003A54 D237                   MOV.L       L2369+10,R2; _PrintMini
    00003A56 33FC                   ADD         R15,R3
    00003A58 363C                   ADD         R3,R6
    00003A5A 6662                   MOV.L       @R6,R6
    00003A5C 420B                   JSR         @R2
    00003A5E E419                   MOV         #25,R4
          Menu.c  1279                    PrintMini(25,43,lotDesc2[lotsFinaux[0]],0);
    00003A60 56F4                   MOV.L       @(16,R15),R6
    00003A62 E52B                   MOV         #43,R5
    00003A64 D233                   MOV.L       L2369+10,R2; _PrintMini
    00003A66 E700                   MOV         #0,R7
    00003A68 9360                   MOV.W       L2369+2,R3 ; H'0090
    00003A6A 6662                   MOV.L       @R6,R6
    00003A6C 4608                   SHLL2       R6
    00003A6E 33FC                   ADD         R15,R3
    00003A70 363C                   ADD         R3,R6
    00003A72 6662                   MOV.L       @R6,R6
    00003A74 420B                   JSR         @R2
    00003A76 E419                   MOV         #25,R4
          Menu.c  1280                    ML_display_vram();
    00003A78 D32F                   MOV.L       L2369+14,R3; _ML_display_vram
    00003A7A 430B                   JSR         @R3
    00003A7C 0009                   NOP
          Menu.c  1281                    do{if (IsKeyUp(KEY_CTRL_EXE)) exeDown = 0;
    00003A7E              L2182:                            
    00003A7E 9456                   MOV.W       L2369+4,R4 ; H'7534
    00003A80 D22E                   MOV.L       L2369+18,R2; _IsKeyUp
    00003A82 420B                   JSR         @R2
    00003A84 0009                   NOP
    00003A86 2008                   TST         R0,R0
    00003A88 8901                   BT          L2183
    00003A8A E054                   MOV         #84,R0
    00003A8C 0FE6                   MOV.L       R14,@(R0,R15)
    00003A8E              L2183:                            
          Menu.c  1282                    }while (IsKeyUp(KEY_CTRL_EXE) || exeDown == 1);
    00003A8E 944E                   MOV.W       L2369+4,R4 ; H'7534
    00003A90 D32A                   MOV.L       L2369+18,R3; _IsKeyUp
    00003A92 430B                   JSR         @R3
    00003A94 0009                   NOP
    00003A96 2008                   TST         R0,R0
    00003A98 8BF1                   BF          L2182
    00003A9A E054                   MOV         #84,R0
    00003A9C 00FE                   MOV.L       @(R0,R15),R0
    00003A9E 8801                   CMP/EQ      #1,R0




SH SERIES C/C++ Compiler (Ver. 6.0C)                                                                 30-Jan-2015 21:53:33  PAGE  162


SCT OFFSET   CODE       C LABEL     INSTRUCTION OPERAND    COMMENT

    00003AA0 89ED                   BT          L2182
          Menu.c  1283                    exeDown = 1;
    00003AA2 E054                   MOV         #84,R0
    00003AA4 0FC6                   MOV.L       R12,@(R0,R15)
          Menu.c  1284                    switch (lot)
    00003AA6 6093                   MOV         R9,R0
    00003AA8 8800                   CMP/EQ      #0,R0
    00003AAA 8913                   BT          L1576
    00003AAC 8801                   CMP/EQ      #1,R0
    00003AAE 8917                   BT          L1577
    00003AB0 8802                   CMP/EQ      #2,R0
    00003AB2 891C                   BT          L1578
    00003AB4 8803                   CMP/EQ      #3,R0
    00003AB6 8921                   BT          L1579
    00003AB8 8804                   CMP/EQ      #4,R0
    00003ABA 8921                   BT          L1580
    00003ABC 8805                   CMP/EQ      #5,R0
    00003ABE 8921                   BT          L1581
    00003AC0 8806                   CMP/EQ      #6,R0
    00003AC2 8921                   BT          L1582
    00003AC4 8807                   CMP/EQ      #7,R0
    00003AC6 8921                   BT          L1583
    00003AC8 8808                   CMP/EQ      #8,R0
    00003ACA 8925                   BT          L1584
    00003ACC 8809                   CMP/EQ      #9,R0
    00003ACE 8927                   BT          L1585
    00003AD0 A049                   BRA         L2185
    00003AD2 0009                   NOP
    00003AD4              L1576:                           ; case label 
          Menu.c  1285                    {
          Menu.c  1286                        case 0: *nbPiece += 100; break;
    00003AD4 53F7                   MOV.L       @(28,R15),R3
    00003AD6 6232                   MOV.L       @R3,R2
    00003AD8 7264                   ADD         #100,R2
    00003ADA 2322                   MOV.L       R2,@R3
    00003ADC A043                   BRA         L2185
    00003ADE 0009                   NOP
    00003AE0              L1577:                           ; case label 
          Menu.c  1287                        case 1: *nbPiece += 500; break;
    00003AE0 9426                   MOV.W       L2369+6,R4 ; H'01F4
    00003AE2 52F7                   MOV.L       @(28,R15),R2
    00003AE4 6322                   MOV.L       @R2,R3
    00003AE6 334C                   ADD         R4,R3
    00003AE8 2232                   MOV.L       R3,@R2
    00003AEA A03C                   BRA         L2185
    00003AEC 0009                   NOP
    00003AEE              L1578:                           ; case label 
          Menu.c  1288                        case 2: *nbPiece += 1000; break;
    00003AEE 9420                   MOV.W       L2369+8,R4 ; H'03E8
    00003AF0 53F7                   MOV.L       @(28,R15),R3
    00003AF2 6232                   MOV.L       @R3,R2
    00003AF4 324C                   ADD         R4,R2
    00003AF6 2322                   MOV.L       R2,@R3
    00003AF8 A035                   BRA         L2185
    00003AFA 0009                   NOP
    00003AFC              L1579:                           ; case label 
          Menu.c  1289                        case 3: return 1; break;




SH SERIES C/C++ Compiler (Ver. 6.0C)                                                                 30-Jan-2015 21:53:33  PAGE  163


SCT OFFSET   CODE       C LABEL     INSTRUCTION OPERAND    COMMENT

    00003AFC A0E8                   BRA         L2106
    00003AFE E001                   MOV         #1,R0
    00003B00              L1580:                           ; case label 
          Menu.c  1290                        case 4: return 2; break;
    00003B00 A0E6                   BRA         L2106
    00003B02 E002                   MOV         #2,R0
    00003B04              L1581:                           ; case label 
          Menu.c  1291                        case 5: return 3; break;
    00003B04 A0E4                   BRA         L2106
    00003B06 E003                   MOV         #3,R0
    00003B08              L1582:                           ; case label 
          Menu.c  1292                        case 6: return 4; break;
    00003B08 A0E2                   BRA         L2106
    00003B0A E004                   MOV         #4,R0
    00003B0C              L1583:                           ; case label 
          Menu.c  1293                        case 7: *nbJetons += 3; break;
    00003B0C 52F2                   MOV.L       @(8,R15),R2
    00003B0E 6322                   MOV.L       @R2,R3
    00003B10 7303                   ADD         #3,R3
    00003B12 2232                   MOV.L       R3,@R2
    00003B14 A027                   BRA         L2185
    00003B16 0009                   NOP
    00003B18              L1584:                           ; case label 
          Menu.c  1294                        case 8: sauvegarde->doublePiece = 1; break;
    00003B18 61D2                   MOV.L       @R13,R1
    00003B1A E076                   MOV         #118,R0
    00003B1C A023                   BRA         L2185
    00003B1E 01C4                   MOV.B       R12,@(R0,R1)
    00003B20              L1585:                           ; case label 
          Menu.c  1295                        case 9: sauvegarde->longueurAvance = 1; break;
    00003B20 62D2                   MOV.L       @R13,R2
    00003B22 E077                   MOV         #119,R0
    00003B24 02C4                   MOV.B       R12,@(R0,R2)
    00003B26 A01E                   BRA         L2185
    00003B28 0009                   NOP
    00003B2A              L2369:                            
    00003B2A 00B8                   .DATA.W     H'00B8
    00003B2C 0090                   .DATA.W     H'0090
    00003B2E 7534                   .DATA.W     H'7534
    00003B30 01F4                   .DATA.W     H'01F4
    00003B32 03E8                   .DATA.W     H'03E8
    00003B34 <00000000>             .DATA.L     _PrintMini
    00003B38 <00000000>             .DATA.L     _ML_display_vram
    00003B3C <00000000>             .DATA.L     _IsKeyUp
    00003B40              L2179:                            
          Menu.c  1296                    }
          Menu.c  1297                }
          Menu.c  1298                else
          Menu.c  1299                {
          Menu.c  1300                    if (sauvegarde->succes[10] != -1)
    00003B40 60D2                   MOV.L       @R13,R0
    00003B42 E16A                   MOV         #106,R1
    00003B44 001C                   MOV.B       @(R0,R1),R0
    00003B46 88FF                   CMP/EQ      #-1,R0
    00003B48 890D                   BT          L2185
          Menu.c  1301                    {
          Menu.c  1302                        sauvegarde->succes[10] += 1;




SH SERIES C/C++ Compiler (Ver. 6.0C)                                                                 30-Jan-2015 21:53:33  PAGE  164


SCT OFFSET   CODE       C LABEL     INSTRUCTION OPERAND    COMMENT

    00003B4A E06A                   MOV         #106,R0
    00003B4C 62D2                   MOV.L       @R13,R2
          Menu.c  1303                        if (sauvegarde->succes[10] >= 100) sauvegarde->succes[10] = -1, nouveauSucces = 1;
    00003B4E E564                   MOV         #100,R5
    00003B50 032C                   MOV.B       @(R0,R2),R3
    00003B52 7301                   ADD         #1,R3
    00003B54 0234                   MOV.B       R3,@(R0,R2)
    00003B56 63D2                   MOV.L       @R13,R3
    00003B58 023C                   MOV.B       @(R0,R3),R2
    00003B5A 3253                   CMP/GE      R5,R2
    00003B5C 8B03                   BF          L2185
    00003B5E E3FF                   MOV         #-1,R3
    00003B60 62D2                   MOV.L       @R13,R2
    00003B62 0234                   MOV.B       R3,@(R0,R2)
    00003B64 24C0                   MOV.B       R12,@R4
    00003B66              L2185:                            
          Menu.c  1304                    }
          Menu.c  1305                }
          Menu.c  1306    
          Menu.c  1307                lotsFinaux[0] = -1, lotsFinaux[1] = -1, lotsFinaux[2] = -1;
    00003B66 E2FF                   MOV         #-1,R2
    00003B68 53F4                   MOV.L       @(16,R15),R3
    00003B6A 2322                   MOV.L       R2,@R3
    00003B6C 53F8                   MOV.L       @(32,R15),R3
    00003B6E 2322                   MOV.L       R2,@R3
    00003B70 53F9                   MOV.L       @(36,R15),R3
    00003B72 2322                   MOV.L       R2,@R3
    00003B74              L2175:                            
          Menu.c  1308            }
          Menu.c  1309    
          Menu.c  1310            ML_bmp_or(levier[phase>4?8-phase:phase],92,phase==0?19:27,16,phase==0||phase==4?36:28); // on dess
                         +ine le levier
    00003B74 D919                   MOV.L       L2370,R9   ; __$levier
    00003B76 63F2                   MOV.L       @R15,R3
    00003B78 2338                   TST         R3,R3
    00003B7A 8902                   BT          L2189
    00003B7C 60F2                   MOV.L       @R15,R0
    00003B7E 8804                   CMP/EQ      #4,R0
    00003B80 8B03                   BF          L2188
    00003B82              L2189:                            
    00003B82 E224                   MOV         #36,R2
    00003B84 2F26                   MOV.L       R2,@-R15
    00003B86 A002                   BRA         L2192
    00003B88 0009                   NOP
    00003B8A              L2188:                            
    00003B8A E31C                   MOV         #28,R3
    00003B8C 2F36                   MOV.L       R3,@-R15
    00003B8E              L2192:                            
    00003B8E 53F1                   MOV.L       @(4,R15),R3
    00003B90 2338                   TST         R3,R3
    00003B92 8F02                   BF/S        L2190
    00003B94 E710                   MOV         #16,R7
    00003B96 A001                   BRA         L2193
    00003B98 E613                   MOV         #19,R6
    00003B9A              L2190:                            
    00003B9A E61B                   MOV         #27,R6
    00003B9C              L2193:                            




SH SERIES C/C++ Compiler (Ver. 6.0C)                                                                 30-Jan-2015 21:53:33  PAGE  165


SCT OFFSET   CODE       C LABEL     INSTRUCTION OPERAND    COMMENT

    00003B9C 52F1                   MOV.L       @(4,R15),R2
    00003B9E E304                   MOV         #4,R3
    00003BA0 3237                   CMP/GT      R3,R2
    00003BA2 8F04                   BF/S        L2191
    00003BA4 E55C                   MOV         #92,R5
    00003BA6 E408                   MOV         #8,R4
    00003BA8 52F1                   MOV.L       @(4,R15),R2
    00003BAA A001                   BRA         L2194
    00003BAC 3428                   SUB         R2,R4
    00003BAE              L2191:                            
    00003BAE 54F1                   MOV.L       @(4,R15),R4
    00003BB0              L2194:                            
    00003BB0 D20B                   MOV.L       L2370+4,R2 ; _ML_bmp_or
    00003BB2 6343                   MOV         R4,R3
    00003BB4 4408                   SHLL2       R4
    00003BB6 4400                   SHLL        R4
    00003BB8 343C                   ADD         R3,R4
    00003BBA 4408                   SHLL2       R4
    00003BBC 4400                   SHLL        R4
    00003BBE 420B                   JSR         @R2
    00003BC0 349C                   ADD         R9,R4
    00003BC2 7F04                   ADD         #4,R15
          Menu.c  1311            if (phase == 0) ML_line(98,20,102,20,ML_WHITE); // dans deux cas prcis il faut rajouter une bande
                         + blanche
    00003BC4 D907                   MOV.L       L2370+8,R9 ; _ML_line
    00003BC6 63F2                   MOV.L       @R15,R3
    00003BC8 2338                   TST         R3,R3
    00003BCA 8B0D                   BF          L2195
    00003BCC 2FE6                   MOV.L       R14,@-R15
    00003BCE E714                   MOV         #20,R7
    00003BD0 E666                   MOV         #102,R6
    00003BD2 6573                   MOV         R7,R5
    00003BD4 490B                   JSR         @R9
    00003BD6 E462                   MOV         #98,R4
    00003BD8 A010                   BRA         L2196
    00003BDA 7F04                   ADD         #4,R15
    00003BDC              L2370:                            
    00003BDC <00000000>             .DATA.L     __$levier
    00003BE0 <00000000>             .DATA.L     _ML_bmp_or
    00003BE4 <00000000>             .DATA.L     _ML_line
    00003BE8              L2195:                            
          Menu.c  1312            else if (phase == 4) ML_line(98,61,102,61,ML_WHITE);
    00003BE8 60F2                   MOV.L       @R15,R0
    00003BEA 8804                   CMP/EQ      #4,R0
    00003BEC 8B06                   BF          L2196
    00003BEE E73D                   MOV         #61,R7
    00003BF0 2FE6                   MOV.L       R14,@-R15
    00003BF2 E666                   MOV         #102,R6
    00003BF4 6573                   MOV         R7,R5
    00003BF6 490B                   JSR         @R9
    00003BF8 E462                   MOV         #98,R4
    00003BFA 7F04                   ADD         #4,R15
    00003BFC              L2196:                            
          Menu.c  1313    
          Menu.c  1314            if (phase == 0 && spinPhase == 0)
    00003BFC 62F2                   MOV.L       @R15,R2
    00003BFE 2228                   TST         R2,R2




SH SERIES C/C++ Compiler (Ver. 6.0C)                                                                 30-Jan-2015 21:53:33  PAGE  166


SCT OFFSET   CODE       C LABEL     INSTRUCTION OPERAND    COMMENT

    00003C00 8B57                   BF          L2198
    00003C02 2BB8                   TST         R11,R11
    00003C04 8B55                   BF          L2198
          Menu.c  1315            {
          Menu.c  1316                if (IsKeyDown(KEY_CTRL_SHIFT))
    00003C06 986F                   MOV.W       L2371,R8   ; H'7536
    00003C08 D93A                   MOV.L       L2371+12,R9; _IsKeyDown
    00003C0A 490B                   JSR         @R9
    00003C0C 6483                   MOV         R8,R4
    00003C0E 2008                   TST         R0,R0
    00003C10 8949                   BT          L2199
          Menu.c  1317                {
          Menu.c  1318                    ML_rectangle(20,20,107,45,1,ML_BLACK,ML_WHITE);
    00003C12 E72D                   MOV         #45,R7
    00003C14 D338                   MOV.L       L2371+16,R3; _ML_rectangle
    00003C16 E66B                   MOV         #107,R6
    00003C18 2FE6                   MOV.L       R14,@-R15
    00003C1A E514                   MOV         #20,R5
    00003C1C 2FC6                   MOV.L       R12,@-R15
    00003C1E 2FC6                   MOV.L       R12,@-R15
    00003C20 430B                   JSR         @R3
    00003C22 6453                   MOV         R5,R4
          Menu.c  1319                    ML_bmp_16_or_cl(jetonSP,35,26);
    00003C24 D935                   MOV.L       L2371+20,R9; __$jetonSP
    00003C26 E61A                   MOV         #26,R6
    00003C28 DB35                   MOV.L       L2371+24,R11; _ML_bmp_16_or_cl
    00003C2A E523                   MOV         #35,R5
    00003C2C 4B0B                   JSR         @R11
    00003C2E 6493                   MOV         R9,R4
          Menu.c  1320                    PrintMini(52,30,"x   =",0);
    00003C30 D634                   MOV.L       L2371+28,R6; L1157
    00003C32 E700                   MOV         #0,R7
    00003C34 D234                   MOV.L       L2371+32,R2; _PrintMini
    00003C36 E51E                   MOV         #30,R5
    00003C38 420B                   JSR         @R2
    00003C3A E434                   MOV         #52,R4
          Menu.c  1321                    PrintMini(57,30,jetonsChar,0);
    00003C3C 9655                   MOV.W       L2371+2,R6 ; H'0098
    00003C3E E51E                   MOV         #30,R5
    00003C40 D331                   MOV.L       L2371+32,R3; _PrintMini
    00003C42 E700                   MOV         #0,R7
    00003C44 36FC                   ADD         R15,R6
    00003C46 430B                   JSR         @R3
    00003C48 E439                   MOV         #57,R4
          Menu.c  1322                    sprintf(pieceChar,"%d",*nbJetons*50);
    00003C4A EB32                   MOV         #50,R11
    00003C4C 52F5                   MOV.L       @(20,R15),R2
    00003C4E D82F                   MOV.L       L2371+36,R8; L844
    00003C50 994C                   MOV.W       L2371+4,R9 ; H'0094
    00003C52 39FC                   ADD         R15,R9
    00003C54 6322                   MOV.L       @R2,R3
    00003C56 03B7                   MUL.L       R11,R3
    00003C58 D22D                   MOV.L       L2371+40,R2; _sprintf
    00003C5A 031A                   STS         MACL,R3
    00003C5C 2F36                   MOV.L       R3,@-R15
    00003C5E 2F86                   MOV.L       R8,@-R15
    00003C60 420B                   JSR         @R2




SH SERIES C/C++ Compiler (Ver. 6.0C)                                                                 30-Jan-2015 21:53:33  PAGE  167


SCT OFFSET   CODE       C LABEL     INSTRUCTION OPERAND    COMMENT

    00003C62 6493                   MOV         R9,R4
          Menu.c  1323                    PrintMini(74,30,pieceChar,0);
    00003C64 D328                   MOV.L       L2371+32,R3; _PrintMini
    00003C66 7F14                   ADD         #20,R15
    00003C68 E700                   MOV         #0,R7
    00003C6A 6693                   MOV         R9,R6
    00003C6C E51E                   MOV         #30,R5
    00003C6E 430B                   JSR         @R3
    00003C70 E44A                   MOV         #74,R4
          Menu.c  1324                    ML_bmp_8_or_cl(money,88,29);
    00003C72 E61D                   MOV         #29,R6
    00003C74 D827                   MOV.L       L2371+44,R8; _ML_bmp_8_or_cl
    00003C76 E558                   MOV         #88,R5
    00003C78 D927                   MOV.L       L2371+48,R9; __$money
    00003C7A 480B                   JSR         @R8
    00003C7C 6493                   MOV         R9,R4
          Menu.c  1325                    ML_display_vram();
    00003C7E D227                   MOV.L       L2371+52,R2; _ML_display_vram
    00003C80 420B                   JSR         @R2
    00003C82 0009                   NOP
          Menu.c  1326                    while(IsKeyUp(KEY_CTRL_EXE));
    00003C84              L2200:                            
    00003C84 9433                   MOV.W       L2371+6,R4 ; H'7534
    00003C86 D226                   MOV.L       L2371+56,R2; _IsKeyUp
    00003C88 420B                   JSR         @R2
    00003C8A 0009                   NOP
    00003C8C 2008                   TST         R0,R0
    00003C8E 8BF9                   BF          L2200
          Menu.c  1327                    *nbPiece += *nbJetons*50;
    00003C90 52F7                   MOV.L       @(28,R15),R2
    00003C92 53F2                   MOV.L       @(8,R15),R3
    00003C94 6132                   MOV.L       @R3,R1
    00003C96 01B7                   MUL.L       R11,R1
    00003C98 6322                   MOV.L       @R2,R3
    00003C9A 0B1A                   STS         MACL,R11
    00003C9C 33BC                   ADD         R11,R3
    00003C9E 2232                   MOV.L       R3,@R2
          Menu.c  1328                    *nbJetons = 0;
    00003CA0 52F2                   MOV.L       @(8,R15),R2
          Menu.c  1329                    break;
    00003CA2 A014                   BRA         L1173
    00003CA4 22E2                   MOV.L       R14,@R2
    00003CA6              L2199:                            
          Menu.c  1330                }
          Menu.c  1331                if (IsKeyDown(KEY_CTRL_EXE)) phase = 1; // si on appuie sur exe, que le levier est  sa positi
                         +on initiale et que la roulette est toujours en train de tourner
    00003CA6 9422                   MOV.W       L2371+6,R4 ; H'7534
    00003CA8 490B                   JSR         @R9
    00003CAA 0009                   NOP
    00003CAC 2008                   TST         R0,R0
    00003CAE 8900                   BT          L2198
    00003CB0 2FC2                   MOV.L       R12,@R15
    00003CB2              L2198:                            
          Menu.c  1332            }
          Menu.c  1333    
          Menu.c  1334            ML_display_vram(); // on affiche l'cran
    00003CB2 D31A                   MOV.L       L2371+52,R3; _ML_display_vram




SH SERIES C/C++ Compiler (Ver. 6.0C)                                                                 30-Jan-2015 21:53:33  PAGE  168


SCT OFFSET   CODE       C LABEL     INSTRUCTION OPERAND    COMMENT

    00003CB4 430B                   JSR         @R3
    00003CB6 0009                   NOP
    00003CB8              L2108:                            
    00003CB8 52F2                   MOV.L       @(8,R15),R2
    00003CBA 6322                   MOV.L       @R2,R3
    00003CBC 2338                   TST         R3,R3
    00003CBE 8901                   BT          L2372
    00003CC0 AC3A                   BRA         L2109
    00003CC2 0009                   NOP
    00003CC4              L2372:                            
    00003CC4 9314                   MOV.W       L2371+8,R3 ; H'0114
    00003CC6 3B30                   CMP/EQ      R3,R11
    00003CC8 8901                   BT          L2373
    00003CCA AC35                   BRA         L2109
    00003CCC 0009                   NOP
    00003CCE              L2373:                            
    00003CCE              L1173:
          Menu.c  1335        }
          Menu.c  1336    
          Menu.c  1337        return 0;
    00003CCE E000                   MOV         #0,R0
          Menu.c  1338    }
    00003CD0              L2106:                            
    00003CD0 910F                   MOV.W       L2371+10,R1; H'0108
    00003CD2 3F1C                   ADD         R1,R15
    00003CD4 4F16                   LDS.L       @R15+,MACL
    00003CD6 4F26                   LDS.L       @R15+,PR
    00003CD8 68F6                   MOV.L       @R15+,R8
    00003CDA 69F6                   MOV.L       @R15+,R9
    00003CDC 6AF6                   MOV.L       @R15+,R10
    00003CDE 6BF6                   MOV.L       @R15+,R11
    00003CE0 6CF6                   MOV.L       @R15+,R12
    00003CE2 6DF6                   MOV.L       @R15+,R13
    00003CE4 000B                   RTS
    00003CE6 6EF6                   MOV.L       @R15+,R14
    00003CE8              L2371:                            
    00003CE8 7536                   .DATA.W     H'7536
    00003CEA 0098                   .DATA.W     H'0098
    00003CEC 0094                   .DATA.W     H'0094
    00003CEE 7534                   .DATA.W     H'7534
    00003CF0 0114                   .DATA.W     H'0114
    00003CF2 0108                   .DATA.W     H'0108
    00003CF4 <00000000>             .DATA.L     _IsKeyDown
    00003CF8 <00000000>             .DATA.L     _ML_rectangle
    00003CFC <00000000>             .DATA.L     __$jetonSP
    00003D00 <00000000>             .DATA.L     _ML_bmp_16_or_cl
    00003D04 <00000000>             .DATA.L     L1157
    00003D08 <00000000>             .DATA.L     _PrintMini
    00003D0C <00000000>             .DATA.L     L844
    00003D10 <00000000>             .DATA.L     _sprintf
    00003D14 <00000000>             .DATA.L     _ML_bmp_8_or_cl
    00003D18 <00000000>             .DATA.L     __$money
    00003D1C <00000000>             .DATA.L     _ML_display_vram
    00003D20 <00000000>             .DATA.L     _IsKeyUp
          Menu.c  1339    
          Menu.c  1340    int isAllBought()
    00003D24              _isAllBought:                    ; function: isAllBought




SH SERIES C/C++ Compiler (Ver. 6.0C)                                                                 30-Jan-2015 21:53:33  PAGE  169


SCT OFFSET   CODE       C LABEL     INSTRUCTION OPERAND    COMMENT

                                                           ; frame size=0
    00003D24 D342                   MOV.L       L2374+2,R3 ; _sauvegarde
    00003D26 E706                   MOV         #6,R7
    00003D28 6432                   MOV.L       @R3,R4
          Menu.c  1341    {
          Menu.c  1342        char x;
          Menu.c  1343    
          Menu.c  1344        for (x = 0; x < 6; x++)
    00003D2A E500                   MOV         #0,R5
    00003D2C              L2205:                            
          Menu.c  1345        {
          Menu.c  1346            if (sauvegarde->tenue[x] == 0 || sauvegarde->ameliorationAimant[x] == 0 || sauvegarde->amelioratio
                         +nNoir[x] == 0 || sauvegarde->gadget[2*x] == 0 || sauvegarde->gadget[2*x+1] == 0) return 0;
    00003D2C 665E                   EXTS.B      R5,R6
    00003D2E 6243                   MOV         R4,R2
    00003D30 720E                   ADD         #14,R2
    00003D32 326C                   ADD         R6,R2
    00003D34 6320                   MOV.B       @R2,R3
    00003D36 2338                   TST         R3,R3
    00003D38 8925                   BT          L1175
    00003D3A 6143                   MOV         R4,R1
    00003D3C 7120                   ADD         #32,R1
    00003D3E 316C                   ADD         R6,R1
    00003D40 6310                   MOV.B       @R1,R3
    00003D42 2338                   TST         R3,R3
    00003D44 891F                   BT          L1175
    00003D46 6143                   MOV         R4,R1
    00003D48 711A                   ADD         #26,R1
    00003D4A 316C                   ADD         R6,R1
    00003D4C 6310                   MOV.B       @R1,R3
    00003D4E 2338                   TST         R3,R3
    00003D50 8919                   BT          L1175
    00003D52 615E                   EXTS.B      R5,R1
    00003D54 4100                   SHLL        R1
    00003D56 6343                   MOV         R4,R3
    00003D58 313C                   ADD         R3,R1
    00003D5A 6210                   MOV.B       @R1,R2
    00003D5C 2228                   TST         R2,R2
    00003D5E 8912                   BT          L1175
    00003D60 615E                   EXTS.B      R5,R1
    00003D62 4100                   SHLL        R1
    00003D64 6343                   MOV         R4,R3
    00003D66 313C                   ADD         R3,R1
    00003D68 8411                   MOV.B       @(1,R1),R0
    00003D6A 2008                   TST         R0,R0
    00003D6C 890B                   BT          L1175
    00003D6E 7501                   ADD         #1,R5
    00003D70 635E                   EXTS.B      R5,R3
    00003D72 3373                   CMP/GE      R7,R3
    00003D74 8BDA                   BF          L2205
          Menu.c  1347        }
          Menu.c  1348        for (x = 0; x < 4; x++)
    00003D76 E500                   MOV         #0,R5
    00003D78              L2210:                            
          Menu.c  1349            if (sauvegarde->jetpack[x] == 0) return 0;
    00003D78 635E                   EXTS.B      R5,R3
    00003D7A 6243                   MOV         R4,R2




SH SERIES C/C++ Compiler (Ver. 6.0C)                                                                 30-Jan-2015 21:53:33  PAGE  170


SCT OFFSET   CODE       C LABEL     INSTRUCTION OPERAND    COMMENT

    00003D7C 7215                   ADD         #21,R2
    00003D7E 332C                   ADD         R2,R3
    00003D80 6130                   MOV.B       @R3,R1
    00003D82 2118                   TST         R1,R1
    00003D84 8B01                   BF          L2211
    00003D86              L1175:
    00003D86 000B                   RTS
    00003D88 E000                   MOV         #0,R0
    00003D8A              L2211:                            
    00003D8A 7501                   ADD         #1,R5
    00003D8C E604                   MOV         #4,R6
    00003D8E 625E                   EXTS.B      R5,R2
    00003D90 3263                   CMP/GE      R6,R2
    00003D92 8BF1                   BF          L2210
          Menu.c  1350    
          Menu.c  1351        return 1;
    00003D94 E001                   MOV         #1,R0
          Menu.c  1352    }
    00003D96              L2208:                            
    00003D96 000B                   RTS
    00003D98 0009                   NOP
          Menu.c  1353    
          Menu.c  1354    Save *loadSaveFile(void) // fonction qui charge la sauvegare
    00003D9A              _loadSaveFile:                   ; function: loadSaveFile
                                                           ; frame size=12
    00003D9A 2FE6                   MOV.L       R14,@-R15
    00003D9C 2FD6                   MOV.L       R13,@-R15
    00003D9E 4F22                   STS.L       PR,@-R15
          Menu.c  1355     {
          Menu.c  1356         Save *save = (Save*)malloc(sizeof(Save)); // on cre un fichier de sauvegarde temporaire qui sera ret
                         +ourn
    00003DA0 9445                   MOV.W       L2374,R4   ; H'0080
    00003DA2 D324                   MOV.L       L2374+6,R3 ; _malloc
    00003DA4 430B                   JSR         @R3
    00003DA6 0009                   NOP

    00003DA8 DE23                   MOV.L       L2374+10,R14; _handle
    00003DAA 6D03                   MOV         R0,R13
    00003DAC D423                   MOV.L       L2374+14,R4; _PathName
    00003DAE D224                   MOV.L       L2374+18,R2; _Bfile_OpenFile
    00003DB0 420B                   JSR         @R2
    00003DB2 E501                   MOV         #1,R5
    00003DB4 6303                   MOV         R0,R3
    00003DB6 4311                   CMP/PZ      R3
    00003DB8 8D07                   BT/S        L2212
    00003DBA 2E02                   MOV.L       R0,@R14
          Menu.c  1361         {
          Menu.c  1362             createSaveFile(save); // on cre le fichier de sauvegarde
    00003DBC B013                   BSR         _createSaveFile
    00003DBE 64D3                   MOV         R13,R4
          Menu.c  1363             handle = Bfile_OpenFile(PathName,_OPENMODE_READ); // on l'ouvre en mode lecture
    00003DC0 D41E                   MOV.L       L2374+14,R4; _PathName
    00003DC2 D21F                   MOV.L       L2374+18,R2; _Bfile_OpenFile
    00003DC4 420B                   JSR         @R2
    00003DC6 E501                   MOV         #1,R5
    00003DC8 2E02                   MOV.L       R0,@R14
    00003DCA              L2212:                            
          Menu.c  1364         }




SH SERIES C/C++ Compiler (Ver. 6.0C)                                                                 30-Jan-2015 21:53:33  PAGE  171


SCT OFFSET   CODE       C LABEL     INSTRUCTION OPERAND    COMMENT

          Menu.c  1365    
          Menu.c  1366         Bfile_ReadFile(handle,save,sizeof(Save),0); // on charge la sauvegarde
    00003DCA E700                   MOV         #0,R7
    00003DCC 962F                   MOV.W       L2374,R6   ; H'0080
    00003DCE 65D3                   MOV         R13,R5
    00003DD0 D31C                   MOV.L       L2374+22,R3; _Bfile_ReadFile
    00003DD2 430B                   JSR         @R3
    00003DD4 64E2                   MOV.L       @R14,R4
          Menu.c  1367         Bfile_CloseFile(handle); // on ferme le fichier
    00003DD6 D21C                   MOV.L       L2374+26,R2; _Bfile_CloseFile
    00003DD8 420B                   JSR         @R2
    00003DDA 64E2                   MOV.L       @R14,R4
          Menu.c  1368    
          Menu.c  1369         return save; // on retourne la fichier sauvegarde temporaire
          Menu.c  1370     }
    00003DDC 4F26                   LDS.L       @R15+,PR
    00003DDE 60D3                   MOV         R13,R0
    00003DE0 6DF6                   MOV.L       @R15+,R13
    00003DE2 000B                   RTS
    00003DE4 6EF6                   MOV.L       @R15+,R14
          Menu.c  1371    
          Menu.c  1372     void createSaveFile(Save *save) // fonction qui cre un nouveau fichier de sauvegarde quand il n'existe p
                         +as
    00003DE6              _createSaveFile:                 ; function: createSaveFile
                                                           ; frame size=12
    00003DE6 2FE6                   MOV.L       R14,@-R15
    00003DE8 2FD6                   MOV.L       R13,@-R15
    00003DEA 6E43                   MOV         R4,R14
          Menu.c  1373     {
          Menu.c  1374         save->tenue[0] = 2;
          Menu.c  1375         save->jetpack[0] = 2;
          Menu.c  1376         save->contrast = get_default_contrast();
    00003DEC D217                   MOV.L       L2374+30,R2; _get_default_contrast
    00003DEE E402                   MOV         #2,R4
    00003DF0 4F22                   STS.L       PR,@-R15
    00003DF2 63E3                   MOV         R14,R3
    00003DF4 6043                   MOV         R4,R0
    00003DF6 7315                   ADD         #21,R3
    00003DF8 80EE                   MOV.B       R0,@(14,R14)
    00003DFA 420B                   JSR         @R2
    00003DFC 2300                   MOV.B       R0,@R3
    00003DFE E17C                   MOV         #124,R1
          Menu.c  1377    
          Menu.c  1378         Bfile_CreateFile(PathName,sizeof(Save)); // on cre le fichier
    00003E00 9515                   MOV.W       L2374,R5   ; H'0080
    00003E02 31EC                   ADD         R14,R1
    00003E04 D40D                   MOV.L       L2374+14,R4; _PathName
    00003E06 D312                   MOV.L       L2374+34,R3; _Bfile_CreateFile
    00003E08 430B                   JSR         @R3
    00003E0A 2100                   MOV.B       R0,@R1
          Menu.c  1379         handle = Bfile_OpenFile(PathName,_OPENMODE_WRITE); // on l'ouvre en mode criture
    00003E0C DD0A                   MOV.L       L2374+10,R13; _handle
    00003E0E D40B                   MOV.L       L2374+14,R4; _PathName
    00003E10 D20B                   MOV.L       L2374+18,R2; _Bfile_OpenFile
    00003E12 420B                   JSR         @R2
    00003E14 E502                   MOV         #2,R5
          Menu.c  1380         Bfile_WriteFile(handle,save,sizeof(Save)); // on crit dedans notre sauvegarde




SH SERIES C/C++ Compiler (Ver. 6.0C)                                                                 30-Jan-2015 21:53:33  PAGE  172


SCT OFFSET   CODE       C LABEL     INSTRUCTION OPERAND    COMMENT

    00003E16 65E3                   MOV         R14,R5
    00003E18 D30E                   MOV.L       L2374+38,R3; _Bfile_WriteFile
    00003E1A 2D02                   MOV.L       R0,@R13
    00003E1C 9607                   MOV.W       L2374,R6   ; H'0080
    00003E1E 430B                   JSR         @R3
    00003E20 6403                   MOV         R0,R4
          Menu.c  1381         Bfile_CloseFile(handle); // on le ferme
    00003E22 64D2                   MOV.L       @R13,R4
    00003E24 4F26                   LDS.L       @R15+,PR
    00003E26 6DF6                   MOV.L       @R15+,R13
    00003E28 D207                   MOV.L       L2374+26,R2; _Bfile_CloseFile
    00003E2A 422B                   JMP         @R2
    00003E2C 6EF6                   MOV.L       @R15+,R14
    00003E2E              L2374:                            
    00003E2E 0080                   .DATA.W     H'0080
    00003E30 <00000000>             .DATA.L     _sauvegarde
    00003E34 <00000000>             .DATA.L     _malloc
    00003E38 <00000000>             .DATA.L     _handle
    00003E3C <00000000>             .DATA.L     _PathName
    00003E40 <00000000>             .DATA.L     _Bfile_OpenFile
    00003E44 <00000000>             .DATA.L     _Bfile_ReadFile
    00003E48 <00000000>             .DATA.L     _Bfile_CloseFile
    00003E4C <00000000>             .DATA.L     _get_default_contrast
    00003E50 <00000000>             .DATA.L     _Bfile_CreateFile
    00003E54 <00000000>             .DATA.L     _Bfile_WriteFile
          Menu.c  1382     }
          Menu.c  1383     void saveFile() // fichier qui enregistre les donnes sauvegardes
    00003E58              _saveFile:                       ; function: saveFile
                                                           ; frame size=12
    00003E58 2FE6                   MOV.L       R14,@-R15
    00003E5A 2FD6                   MOV.L       R13,@-R15
    00003E5C 4F22                   STS.L       PR,@-R15
          Menu.c  1384     {
          Menu.c  1385         Bfile_DeleteFile(PathName); // on supprime le fichier existant
    00003E5E DD0D                   MOV.L       L2375+2,R13; _PathName
    00003E60 D30D                   MOV.L       L2375+6,R3 ; _Bfile_DeleteFile
    00003E62 430B                   JSR         @R3
    00003E64 64D3                   MOV         R13,R4
          Menu.c  1386         Bfile_CreateFile(PathName,sizeof(Save)); // on en recre un
    00003E66 9514                   MOV.W       L2375,R5   ; H'0080
    00003E68 D20C                   MOV.L       L2375+10,R2; _Bfile_CreateFile
    00003E6A 420B                   JSR         @R2
    00003E6C 64D3                   MOV         R13,R4
          Menu.c  1387         handle = Bfile_OpenFile(PathName,_OPENMODE_WRITE); // on l'ouvre en mode criture
    00003E6E E502                   MOV         #2,R5
    00003E70 D30C                   MOV.L       L2375+18,R3; _Bfile_OpenFile
    00003E72 DE0B                   MOV.L       L2375+14,R14; _handle
    00003E74 430B                   JSR         @R3
    00003E76 64D3                   MOV         R13,R4
    00003E78 2E02                   MOV.L       R0,@R14
          Menu.c  1388         Bfile_WriteFile(handle,sauvegarde,sizeof(Save)); // on crit dedans notre sauvegarde
    00003E7A 960A                   MOV.W       L2375,R6   ; H'0080
    00003E7C D20A                   MOV.L       L2375+22,R2; _sauvegarde
    00003E7E 6522                   MOV.L       @R2,R5
    00003E80 D30A                   MOV.L       L2375+26,R3; _Bfile_WriteFile
    00003E82 430B                   JSR         @R3
    00003E84 6403                   MOV         R0,R4




SH SERIES C/C++ Compiler (Ver. 6.0C)                                                                 30-Jan-2015 21:53:33  PAGE  173


SCT OFFSET   CODE       C LABEL     INSTRUCTION OPERAND    COMMENT

          Menu.c  1389         Bfile_CloseFile(handle); // on ferme le fichier
    00003E86 64E2                   MOV.L       @R14,R4
    00003E88 4F26                   LDS.L       @R15+,PR
    00003E8A 6DF6                   MOV.L       @R15+,R13
    00003E8C D208                   MOV.L       L2375+30,R2; _Bfile_CloseFile
    00003E8E 422B                   JMP         @R2
    00003E90 6EF6                   MOV.L       @R15+,R14
    00003E92              L2375:                            
    00003E92 0080                   .DATA.W     H'0080
    00003E94 <00000000>             .DATA.L     _PathName
    00003E98 <00000000>             .DATA.L     _Bfile_DeleteFile
    00003E9C <00000000>             .DATA.L     _Bfile_CreateFile
    00003EA0 <00000000>             .DATA.L     _handle
    00003EA4 <00000000>             .DATA.L     _Bfile_OpenFile
    00003EA8 <00000000>             .DATA.L     _sauvegarde
    00003EAC <00000000>             .DATA.L     _Bfile_WriteFile
    00003EB0 <00000000>             .DATA.L     _Bfile_CloseFile
          Menu.c  1390     }
C   00000000              __$barryUp:                      ; static: barryUp
    00000000 08803F807F             .DATA.B     H'08,H'80,H'3F,H'80,H'7F,H'80,H'FF,H'80,H'F9,H'00,H'F8,H'80,H'CA,H'80,H'CA,H'40,
             80FF80F900 +                       H'68,H'80,H'50,H'80,H'AF,H'00,H'50,H'80,H'2E,H'80,H'25,H'00,H'48,H'00,H'70,H'00,
             F880CA80CA +                       H'3E,H'00,H'3E,H'00,H'3E,H'00,H'FF,H'80,H'79,H'00,H'F8,H'80,H'CA,H'80,H'CA,H'40,
             4068805080 +                       H'68,H'80,H'50,H'80,H'AF,H'00,H'50,H'80,H'3E,H'80,H'3D,H'00,H'78,H'00,H'70,H'00,
             AF0050802E +                       H'1C,H'00,H'22,H'00,H'22,H'00,H'7F,H'C0,H'F9,H'00,H'F8,H'80,H'CA,H'80,H'CA,H'40,
             8025004800 +                       H'68,H'80,H'50,H'80,H'AF,H'00,H'50,H'80,H'2E,H'80,H'25,H'00,H'48,H'00,H'70,H'00,
             70003E003E +                       H'08,H'80,H'3F,H'80,H'7F,H'80,H'FF,H'80,H'F9,H'00,H'F8,H'80,H'CA,H'80,H'FA,H'40,
             003E00FF80 +                       H'7F,H'80,H'5F,H'80,H'AF,H'00,H'50,H'80,H'3E,H'80,H'3D,H'00,H'78,H'00,H'70,H'00,
             7900F880CA +                       H'00,H'00,H'3F,H'00,H'41,H'80,H'80,H'80,H'80,H'80,H'8F,H'80,H'8E,H'80,H'CF,H'40,
             80CA406880 +                       H'68,H'80,H'50,H'80,H'AF,H'00,H'50,H'80,H'3E,H'80,H'3D,H'00,H'48,H'00,H'70,H'00,
             5080AF0050 +                       H'08,H'00,H'14,H'00,H'22,H'00,H'41,H'00,H'80,H'80,H'FF,H'80,H'D8,H'80,H'AB,H'40,
             803E803D00 +                       H'58,H'80,H'70,H'80,H'AF,H'00,H'50,H'80,H'2E,H'80,H'25,H'00,H'48,H'00,H'70,H'00
             780070001C   
             0022002200   
             7FC0F900F8   
             80CA80CA40   
             68805080AF   
             0050802E80   
             2500480070   
             0008803F80   
             7F80FF80F9   
             00F880CA80   
             FA407F805F   
             80AF005080   
             3E803D0078   
             0070000000   
             3F00418080   
             8080808F80   
             8E80CF4068   
             805080AF00   
             50803E803D   
             0048007000   
             0800140022   
             0041008080   
             FF80D880AB   
             4058807080   
             AF0050802E   
             8025004800   




SH SERIES C/C++ Compiler (Ver. 6.0C)                                                                 30-Jan-2015 21:53:33  PAGE  174


SCT OFFSET   CODE       C LABEL     INSTRUCTION OPERAND    COMMENT

             7000         
    000000C0              __$barryDown1:                   ; static: barryDown1
    000000C0 08803F807F             .DATA.B     H'08,H'80,H'3F,H'80,H'7F,H'80,H'FF,H'80,H'F9,H'00,H'F8,H'80,H'CA,H'80,H'CA,H'40,
             80FF80F900 +                       H'68,H'80,H'50,H'80,H'AF,H'00,H'50,H'80,H'2E,H'80,H'25,H'00,H'49,H'00,H'77,H'00,
             F880CA80CA +                       H'3E,H'00,H'3E,H'00,H'3E,H'00,H'FF,H'80,H'79,H'00,H'F8,H'80,H'CA,H'80,H'CA,H'40,
             4068805080 +                       H'68,H'80,H'50,H'80,H'AF,H'00,H'50,H'80,H'3E,H'80,H'3F,H'00,H'7F,H'00,H'77,H'00,
             AF0050802E +                       H'1C,H'00,H'22,H'00,H'22,H'00,H'7F,H'C0,H'F9,H'00,H'F8,H'80,H'CA,H'80,H'CA,H'40,
             8025004900 +                       H'68,H'80,H'50,H'80,H'AF,H'00,H'50,H'80,H'2E,H'80,H'25,H'00,H'49,H'00,H'77,H'00,
             77003E003E +                       H'08,H'80,H'3F,H'80,H'7F,H'80,H'FF,H'80,H'F9,H'00,H'F8,H'80,H'CA,H'80,H'FA,H'40,
             003E00FF80 +                       H'7F,H'80,H'5F,H'80,H'AF,H'00,H'50,H'80,H'3E,H'80,H'3F,H'00,H'7F,H'00,H'77,H'00,
             7900F880CA +                       H'00,H'00,H'3F,H'00,H'41,H'80,H'80,H'80,H'80,H'80,H'8F,H'80,H'8E,H'80,H'CF,H'40,
             80CA406880 +                       H'68,H'80,H'50,H'80,H'AF,H'00,H'50,H'80,H'3E,H'80,H'3F,H'00,H'49,H'00,H'77,H'00,
             5080AF0050 +                       H'08,H'00,H'14,H'00,H'22,H'00,H'41,H'00,H'80,H'80,H'FF,H'80,H'D8,H'80,H'AB,H'40,
             803E803F00 +                       H'58,H'80,H'70,H'80,H'AF,H'00,H'50,H'80,H'2E,H'80,H'25,H'00,H'49,H'00,H'77,H'00
             7F0077001C   
             0022002200   
             7FC0F900F8   
             80CA80CA40   
             68805080AF   
             0050802E80   
             2500490077   
             0008803F80   
             7F80FF80F9   
             00F880CA80   
             FA407F805F   
             80AF005080   
             3E803F007F   
             0077000000   
             3F00418080   
             8080808F80   
             8E80CF4068   
             805080AF00   
             50803E803F   
             0049007700   
             0800140022   
             0041008080   
             FF80D880AB   
             4058807080   
             AF0050802E   
             8025004900   
             7700         
    00000180              __$barryDown2:                   ; static: barryDown2
    00000180 08803F807F             .DATA.B     H'08,H'80,H'3F,H'80,H'7F,H'80,H'FF,H'80,H'F9,H'00,H'F8,H'80,H'CA,H'80,H'CA,H'40,
             80FF80F900 +                       H'68,H'80,H'50,H'80,H'AF,H'00,H'50,H'80,H'2E,H'80,H'23,H'00,H'1A,H'00,H'0E,H'00,
             F880CA80CA +                       H'3E,H'00,H'3E,H'00,H'3E,H'00,H'FF,H'80,H'79,H'00,H'F8,H'80,H'CA,H'80,H'CA,H'40,
             4068805080 +                       H'68,H'80,H'50,H'80,H'AF,H'00,H'50,H'80,H'3E,H'80,H'3F,H'00,H'1E,H'00,H'0E,H'00,
             AF0050802E +                       H'1C,H'00,H'22,H'00,H'22,H'00,H'7F,H'C0,H'F9,H'00,H'F8,H'80,H'CA,H'80,H'CA,H'40,
             8023001A00 +                       H'68,H'80,H'50,H'80,H'AF,H'00,H'50,H'80,H'2E,H'80,H'23,H'00,H'1A,H'00,H'0E,H'00,
             0E003E003E +                       H'08,H'80,H'3F,H'80,H'7F,H'80,H'FF,H'80,H'F9,H'00,H'F8,H'80,H'CA,H'80,H'FA,H'40,
             003E00FF80 +                       H'7F,H'80,H'5F,H'80,H'AF,H'00,H'50,H'80,H'3E,H'80,H'3F,H'00,H'1E,H'00,H'0E,H'00,
             7900F880CA +                       H'00,H'00,H'3F,H'00,H'41,H'80,H'80,H'80,H'80,H'80,H'8F,H'80,H'8E,H'80,H'CF,H'40,
             80CA406880 +                       H'68,H'80,H'50,H'80,H'AF,H'00,H'50,H'80,H'3E,H'80,H'3F,H'00,H'12,H'00,H'0E,H'00,
             5080AF0050 +                       H'08,H'00,H'14,H'00,H'22,H'00,H'41,H'00,H'80,H'80,H'FF,H'80,H'D8,H'80,H'AB,H'40,
             803E803F00 +                       H'58,H'80,H'70,H'80,H'AF,H'00,H'50,H'80,H'2E,H'80,H'23,H'00,H'1A,H'00,H'0E,H'00
             1E000E001C   
             0022002200   
             7FC0F900F8   




SH SERIES C/C++ Compiler (Ver. 6.0C)                                                                 30-Jan-2015 21:53:33  PAGE  175


SCT OFFSET   CODE       C LABEL     INSTRUCTION OPERAND    COMMENT

             80CA80CA40   
             68805080AF   
             0050802E80   
             23001A000E   
             0008803F80   
             7F80FF80F9   
             00F880CA80   
             FA407F805F   
             80AF005080   
             3E803F001E   
             000E000000   
             3F00418080   
             8080808F80   
             8E80CF4068   
             805080AF00   
             50803E803F   
             0012000E00   
             0800140022   
             0041008080   
             FF80D880AB   
             4058807080   
             AF0050802E   
             8023001A00   
             0E00         
    00000240              __$barryAlpha:                   ; static: barryAlpha
    00000240 F77FC07F80             .DATA.B     H'F7,H'7F,H'C0,H'7F,H'80,H'7F,H'00,H'7F,H'00,H'FF,H'00,H'7F,H'00,H'7F,H'00,H'3F,
             7F007F00FF +                       H'80,H'7F,H'80,H'7F,H'40,H'FF,H'A0,H'7F,H'C0,H'7F,H'C2,H'FF,H'87,H'FF,H'8F,H'FF,
             007F007F00 +                       H'C1,H'FF,H'C1,H'FF,H'C1,H'FF,H'00,H'7F,H'80,H'FF,H'00,H'7F,H'00,H'7F,H'00,H'3F,
             3F807F807F +                       H'80,H'7F,H'80,H'7F,H'00,H'FF,H'80,H'7F,H'C0,H'7F,H'C2,H'FF,H'87,H'FF,H'8F,H'FF,
             40FFA07FC0 +                       H'E3,H'C0,H'C1,H'C0,H'C1,H'C0,H'80,H'00,H'00,H'C0,H'00,H'40,H'00,H'40,H'00,H'00,
             7FC2FF87FF +                       H'80,H'40,H'80,H'40,H'00,H'C0,H'80,H'40,H'C0,H'40,H'C2,H'C0,H'87,H'C0,H'8F,H'C0,
             8FFFC1FFC1 +                       H'F7,H'40,H'C0,H'40,H'80,H'40,H'00,H'40,H'00,H'C0,H'00,H'40,H'00,H'40,H'00,H'00,
             FFC1FF007F +                       H'80,H'40,H'80,H'40,H'00,H'C0,H'80,H'40,H'C0,H'40,H'C2,H'C0,H'87,H'C0,H'8F,H'C0,
             80FF007F00 +                       H'FF,H'C0,H'C0,H'C0,H'80,H'40,H'00,H'40,H'00,H'40,H'00,H'40,H'00,H'40,H'00,H'00,
             7F003F807F +                       H'80,H'40,H'80,H'40,H'00,H'C0,H'80,H'40,H'C0,H'40,H'C2,H'C0,H'87,H'C0,H'8F,H'C0,
             807F00FF80 +                       H'F7,H'C0,H'E3,H'C0,H'C1,H'C0,H'80,H'C0,H'00,H'40,H'00,H'40,H'00,H'40,H'00,H'00,
             7FC07FC2FF +                       H'80,H'40,H'80,H'40,H'00,H'C0,H'80,H'40,H'C0,H'40,H'C2,H'C0,H'87,H'C0,H'8F,H'C0
             87FF8FFFE3   
             C0C1C0C1C0   
             800000C000   
             4000400000   
             8040804000   
             C08040C040   
             C2C087C08F   
             C0F740C040   
             8040004000   
             C000400040   
             0000804080   
             4000C08040   
             C040C2C087   
             C08FC0FFC0   
             C0C0804000   
             4000400040   
             0040000080   
             40804000C0   
             8040C040C2   
             C087C08FC0   




SH SERIES C/C++ Compiler (Ver. 6.0C)                                                                 30-Jan-2015 21:53:33  PAGE  176


SCT OFFSET   CODE       C LABEL     INSTRUCTION OPERAND    COMMENT

             F7C0E3C0C1   
             C080C00040   
             0040004000   
             0080408040   
             00C08040C0   
             40C2C087C0   
             8FC0         
    00000300              __$barryDown1Alpha:              ; static: barryDown1Alpha
    00000300 F77FC07F80             .DATA.B     H'F7,H'7F,H'C0,H'7F,H'80,H'7F,H'00,H'7F,H'00,H'FF,H'00,H'7F,H'00,H'7F,H'00,H'3F,
             7F007F00FF +                       H'80,H'7F,H'80,H'7F,H'40,H'FF,H'A0,H'7F,H'C0,H'7F,H'C0,H'FF,H'80,H'FF,H'88,H'FF,
             007F007F00 +                       H'C1,H'C0,H'C1,H'C0,H'C1,H'C0,H'00,H'40,H'80,H'C0,H'00,H'40,H'00,H'40,H'00,H'00,
             3F807F807F +                       H'80,H'40,H'80,H'40,H'00,H'C0,H'80,H'40,H'C0,H'40,H'C0,H'C0,H'80,H'C0,H'88,H'C0,
             40FFA07FC0 +                       H'E3,H'C0,H'C1,H'C0,H'C1,H'C0,H'80,H'00,H'00,H'C0,H'00,H'40,H'00,H'40,H'00,H'00,
             7FC0FF80FF +                       H'80,H'40,H'80,H'40,H'00,H'C0,H'80,H'40,H'C0,H'40,H'C0,H'C0,H'80,H'C0,H'88,H'C0,
             88FFC1C0C1 +                       H'F7,H'40,H'C0,H'40,H'80,H'40,H'00,H'40,H'00,H'C0,H'00,H'40,H'00,H'40,H'00,H'00,
             C0C1C00040 +                       H'80,H'40,H'80,H'40,H'00,H'C0,H'80,H'40,H'C0,H'40,H'C0,H'C0,H'80,H'C0,H'88,H'C0,
             80C0004000 +                       H'FF,H'C0,H'C0,H'C0,H'80,H'40,H'00,H'40,H'00,H'40,H'00,H'40,H'00,H'40,H'00,H'00,
             4000008040 +                       H'80,H'40,H'80,H'40,H'00,H'C0,H'80,H'40,H'C0,H'40,H'C0,H'C0,H'80,H'C0,H'88,H'C0,
             804000C080 +                       H'F7,H'C0,H'E3,H'C0,H'C1,H'C0,H'80,H'C0,H'00,H'40,H'00,H'40,H'00,H'40,H'00,H'00,
             40C040C0C0 +                       H'80,H'40,H'80,H'40,H'00,H'C0,H'80,H'40,H'C0,H'40,H'C0,H'C0,H'80,H'C0,H'88,H'C0
             80C088C0E3   
             C0C1C0C1C0   
             800000C000   
             4000400000   
             8040804000   
             C08040C040   
             C0C080C088   
             C0F740C040   
             8040004000   
             C000400040   
             0000804080   
             4000C08040   
             C040C0C080   
             C088C0FFC0   
             C0C0804000   
             4000400040   
             0040000080   
             40804000C0   
             8040C040C0   
             C080C088C0   
             F7C0E3C0C1   
             C080C00040   
             0040004000   
             0080408040   
             00C08040C0   
             40C0C080C0   
             88C0         
    000003C0              __$barryDown2Alpha:              ; static: barryDown2Alpha
    000003C0 F77FC07F80             .DATA.B     H'F7,H'7F,H'C0,H'7F,H'80,H'7F,H'00,H'7F,H'00,H'FF,H'00,H'7F,H'00,H'7F,H'00,H'3F,
             7F007F00FF +                       H'80,H'7F,H'80,H'7F,H'40,H'FF,H'A0,H'7F,H'C0,H'7F,H'C0,H'FF,H'E1,H'FF,H'F1,H'FF,
             007F007F00 +                       H'C1,H'C0,H'C1,H'C0,H'C1,H'C0,H'00,H'40,H'80,H'C0,H'00,H'40,H'00,H'40,H'00,H'00,
             3F807F807F +                       H'80,H'40,H'80,H'40,H'00,H'C0,H'80,H'40,H'C0,H'40,H'C0,H'C0,H'E1,H'C0,H'F1,H'C0,
             40FFA07FC0 +                       H'E3,H'C0,H'C1,H'C0,H'C1,H'C0,H'80,H'00,H'00,H'C0,H'00,H'40,H'00,H'40,H'00,H'00,
             7FC0FFE1FF +                       H'80,H'40,H'80,H'40,H'00,H'C0,H'80,H'40,H'C0,H'40,H'C0,H'C0,H'E1,H'C0,H'F1,H'C0,
             F1FFC1C0C1 +                       H'F7,H'40,H'C0,H'40,H'80,H'40,H'00,H'40,H'00,H'C0,H'00,H'40,H'00,H'40,H'00,H'00,
             C0C1C00040 +                       H'80,H'40,H'80,H'40,H'00,H'C0,H'80,H'40,H'C0,H'40,H'C0,H'C0,H'E1,H'C0,H'F1,H'C0,
             80C0004000 +                       H'FF,H'C0,H'C0,H'C0,H'80,H'40,H'00,H'40,H'00,H'40,H'00,H'40,H'00,H'40,H'00,H'00,




SH SERIES C/C++ Compiler (Ver. 6.0C)                                                                 30-Jan-2015 21:53:33  PAGE  177


SCT OFFSET   CODE       C LABEL     INSTRUCTION OPERAND    COMMENT

             4000008040 +                       H'80,H'40,H'80,H'40,H'00,H'C0,H'80,H'40,H'C0,H'40,H'C0,H'C0,H'E1,H'C0,H'F1,H'C0,
             804000C080 +                       H'F7,H'C0,H'E3,H'C0,H'C1,H'C0,H'80,H'C0,H'00,H'40,H'00,H'40,H'00,H'40,H'00,H'00,
             40C040C0C0 +                       H'80,H'40,H'80,H'40,H'00,H'C0,H'80,H'40,H'C0,H'40,H'C0,H'C0,H'E1,H'C0,H'F1,H'C0
             E1C0F1C0E3   
             C0C1C0C1C0   
             800000C000   
             4000400000   
             8040804000   
             C08040C040   
             C0C0E1C0F1   
             C0F740C040   
             8040004000   
             C000400040   
             0000804080   
             4000C08040   
             C040C0C0E1   
             C0F1C0FFC0   
             C0C0804000   
             4000400040   
             0040000080   
             40804000C0   
             8040C040C0   
             C0E1C0F1C0   
             F7C0E3C0C1   
             C080C00040   
             0040004000   
             0080408040   
             00C08040C0   
             40C0C0E1C0   
             F1C0         
    00000480              __$jetpack1:                     ; static: jetpack1
    00000480 0E11111E12             .DATA.B     H'0E,H'11,H'11,H'1E,H'12,H'14,H'0A,H'1B,H'15,H'1B,H'15,H'1F,H'15,H'15,H'1F,H'00,
             140A1B151B +                       H'0E,H'11,H'11,H'1E,H'12,H'14,H'0A,H'1B,H'1B,H'11,H'1B,H'1F,H'0A,H'0A,H'1F,H'00
             151F15151F   
             000E11111E   
             12140A1B1B   
             111B1F0A0A   
             1F00         
    000004A0              __$jetpack1Alpha:                ; static: jetpack1Alpha
    000004A0 F1E0E0E1E1             .DATA.B     H'F1,H'E0,H'E0,H'E1,H'E1,H'E3,H'F1,H'E0,H'E0,H'E0,H'E0,H'E0,H'E0,H'E0,H'E0,H'FF
             E3F1E0E0E0   
             E0E0E0E0E0   
             FF           
    000004B0              __$jetpack2:                     ; static: jetpack2
    000004B0 001C224141             .DATA.B     H'00,H'1C,H'22,H'41,H'41,H'5D,H'41,H'5D,H'41,H'5D,H'41,H'41,H'7F,H'3E,H'1C,H'00
             5D415D415D   
             41417F3E1C   
             00           
    000004C0              __$jetpack2Alpha:                ; static: jetpack2Alpha
    000004C0 FFE3C18080             .DATA.B     H'FF,H'E3,H'C1,H'80,H'80,H'80,H'80,H'80,H'80,H'80,H'80,H'80,H'80,H'C1,H'E3,H'FF
             8080808080   
             808080C1E3   
             FF           
    000004D0              __$jetpack3:                     ; static: jetpack3
    000004D0 001C22417F             .DATA.B     H'00,H'1C,H'22,H'41,H'7F,H'41,H'7F,H'49,H'49,H'41,H'3E,H'1C,H'00,H'00,H'00,H'00,
             417F494941 +                       H'00,H'1C,H'22,H'41,H'7F,H'41,H'7F,H'49,H'49,H'41,H'7F,H'5D,H'49,H'22,H'14,H'08,
             3E1C000000 +                       H'00,H'1C,H'22,H'41,H'7F,H'41,H'7F,H'49,H'49,H'41,H'3E,H'2A,H'14,H'14,H'08,H'08




SH SERIES C/C++ Compiler (Ver. 6.0C)                                                                 30-Jan-2015 21:53:33  PAGE  178


SCT OFFSET   CODE       C LABEL     INSTRUCTION OPERAND    COMMENT

             00001C2241   
             7F417F4949   
             417F5D4922   
             1408001C22   
             417F417F49   
             49413E2A14   
             140808       
    00000500              __$jetpack3Alpha:                ; static: jetpack3Alpha
    00000500 FFE3C18080             .DATA.B     H'FF,H'E3,H'C1,H'80,H'80,H'80,H'80,H'80,H'80,H'80,H'C1,H'E3,H'FF,H'FF,H'FF,H'FF,
             8080808080 +                       H'FF,H'E3,H'C1,H'80,H'80,H'80,H'80,H'80,H'80,H'80,H'80,H'80,H'80,H'C1,H'E3,H'F7,
             C1E3FFFFFF +                       H'FF,H'E3,H'C1,H'80,H'80,H'80,H'80,H'80,H'80,H'80,H'C1,H'C1,H'E3,H'E3,H'F7,H'F7
             FFFFE3C180   
             8080808080   
             80808080C1   
             E3F7FFE3C1   
             8080808080   
             8080C1C1E3   
             E3F7F7       
    00000530              __$jetpack4:                     ; static: jetpack4
    00000530 C3A599665A             .DATA.B     H'C3,H'A5,H'99,H'66,H'5A,H'24,H'18,H'18,H'1F,H'18,H'1F,H'18,H'34,H'2C,H'14,H'08
             2418181F18   
             1F18342C14   
             08           
    00000540              __$jetpack4Alpha:                ; static: jetpack4Alpha
    00000540 3C18008181             .DATA.B     H'3C,H'18,H'00,H'81,H'81,H'C3,H'E7,H'E7,H'E0,H'E0,H'E0,H'E7,H'C3,H'C3,H'E3,H'F7
             C3E7E7E0E0   
             E0E7C3C3E3   
             F7           
    00000550              __$gadgetOK:                     ; static: gadgetOK
    00000550 030509D2A4             .DATA.B     H'03,H'05,H'09,H'D2,H'A4,H'88,H'50,H'20
             885020       
    00000558              __$gadgetOKAlpha:                ; static: gadgetOKAlpha
    00000558 FCF8F02103             .DATA.B     H'FC,H'F8,H'F0,H'21,H'03,H'07,H'8F,H'DF
             078FDF       
    00000560              __$money:                        ; static: money
    00000560 7884948484             .DATA.B     H'78,H'84,H'94,H'84,H'84,H'78,H'00,H'00
             780000       
    00000568              __$money2:                       ; static: money2
    00000568 7884B4B484             .DATA.B     H'78,H'84,H'B4,H'B4,H'84,H'78,H'00,H'00
             780000       
    00000570              __$moneyAlpha:                   ; static: moneyAlpha
    00000570 8703030303             .DATA.B     H'87,H'03,H'03,H'03,H'03,H'87,H'FF,H'FF
             87FFFF       
    00000578              __$zap:                          ; static: zap
    00000578 0A0035005E             .DATA.B     H'0A,H'00,H'35,H'00,H'5E,H'80,H'A1,H'80,H'69,H'40,H'A5,H'80,H'61,H'40,H'5E,H'80,
             80A1806940 +                       H'2B,H'00,H'14,H'00,H'00,H'00,H'00,H'00,H'00,H'00,H'00,H'00,H'00,H'00,H'00,H'00
             A58061405E   
             802B001400   
             0000000000   
             0000000000   
             0000         
    00000598              __$zapAlpha:                     ; static: zapAlpha
    00000598 F1FFC0FF80             .DATA.B     H'F1,H'FF,H'C0,H'FF,H'80,H'7F,H'00,H'7F,H'00,H'3F,H'00,H'3F,H'80,H'3F,H'80,H'7F,
             7F007F003F +                       H'C0,H'FF,H'E3,H'FF,H'FF,H'FF,H'FF,H'FF,H'FF,H'FF,H'FF,H'FF,H'FF,H'FF,H'FF,H'FF
             003F803F80   
             7FC0FFE3FF   
             FFFFFFFFFF   




SH SERIES C/C++ Compiler (Ver. 6.0C)                                                                 30-Jan-2015 21:53:33  PAGE  179


SCT OFFSET   CODE       C LABEL     INSTRUCTION OPERAND    COMMENT

             FFFFFFFFFF   
             FFFF         
    000005B8              __$laserGauche:                  ; static: laserGauche
    000005B8 7C8EADADAD             .DATA.B     H'7C,H'8E,H'AD,H'AD,H'AD,H'8E,H'7C,H'00
             8E7C00       
    000005C0              __$laserDroite:                  ; static: laserDroite
    000005C0 3E71B5B5B5             .DATA.B     H'3E,H'71,H'B5,H'B5,H'B5,H'71,H'3E,H'00
             713E00       
    000005C8              __$laserGaucheAlpha:             ; static: laserGaucheAlpha
    000005C8 8301000000             .DATA.B     H'83,H'01,H'00,H'00,H'00,H'01,H'83,H'FF
             0183FF       
    000005D0              __$laserDroiteAlpha:             ; static: laserDroiteAlpha
    000005D0 C180000000             .DATA.B     H'C1,H'80,H'00,H'00,H'00,H'80,H'C1,H'FF
             80C1FF       
    000005D8              __$missile1:                     ; static: missile1
    000005D8 03003F8070             .DATA.B     H'03,H'00,H'3F,H'80,H'70,H'78,H'D0,H'46,H'93,H'71,H'D0,H'46,H'70,H'78,H'3F,H'80,
             78D0469371 +                       H'03,H'00,H'00,H'00,H'00,H'00,H'00,H'00,H'00,H'00,H'00,H'00,H'00,H'00,H'00,H'00
             D04670783F   
             8003000000   
             0000000000   
             0000000000   
             0000         
    000005F8              __$missile2:                     ; static: missile2
    000005F8 03003FB070             .DATA.B     H'03,H'00,H'3F,H'B0,H'70,H'4C,H'D0,H'62,H'93,H'71,H'D0,H'62,H'70,H'4C,H'3F,H'B0,
             4CD0629371 +                       H'03,H'00,H'00,H'00,H'00,H'00,H'00,H'00,H'00,H'00,H'00,H'00,H'00,H'00,H'00,H'00
             D062704C3F   
             B003000000   
             0000000000   
             0000000000   
             0000         
    00000618              __$missile1Alpha:                ; static: missile1Alpha
    00000618 FCFFC07F80             .DATA.B     H'FC,H'FF,H'C0,H'7F,H'80,H'07,H'00,H'01,H'00,H'00,H'00,H'01,H'80,H'07,H'C0,H'7F,
             0700010000 +                       H'FC,H'FF,H'FF,H'FF,H'FF,H'FF,H'FF,H'FF,H'FF,H'FF,H'FF,H'FF,H'FF,H'FF,H'FF,H'FF
             00018007C0   
             7FFCFFFFFF   
             FFFFFFFFFF   
             FFFFFFFFFF   
             FFFF         
    00000638              __$missile2Alpha:                ; static: missile2Alpha
    00000638 FCFFC04F80             .DATA.B     H'FC,H'FF,H'C0,H'4F,H'80,H'03,H'00,H'01,H'00,H'00,H'00,H'01,H'80,H'03,H'C0,H'4F,
             0300010000 +                       H'FC,H'FF,H'FF,H'FF,H'FF,H'FF,H'FF,H'FF,H'FF,H'FF,H'FF,H'FF,H'FF,H'FF,H'FF,H'FF
             00018003C0   
             4FFCFFFFFF   
             FFFFFFFFFF   
             FFFFFFFFFF   
             FFFF         
    00000658              __$warning1:                     ; static: warning1
    00000658 1818181818             .DATA.B     H'18,H'18,H'18,H'18,H'18,H'00,H'18,H'18
             001818       
    00000660              __$warning2:                     ; static: warning2
    00000660 3C24242424             .DATA.B     H'3C,H'24,H'24,H'24,H'24,H'24,H'3C,H'24,H'24,H'3C
             243C24243C   
    0000066A              __$box:                          ; static: box
    0000066A 3FF04008BC             .DATA.B     H'3F,H'F0,H'40,H'08,H'BC,H'E4,H'E6,H'04,H'CA,H'74,H'C2,H'DC,H'E6,H'8C,H'BC,H'DC,
             E4E604CA74 +                       H'87,H'74,H'AD,H'84,H'A8,H'B4,H'8D,H'A4,H'47,H'08,H'3F,H'F0,H'00,H'00,H'00,H'00
             C2DCE68CBC   
             DC8774AD84   




SH SERIES C/C++ Compiler (Ver. 6.0C)                                                                 30-Jan-2015 21:53:33  PAGE  180


SCT OFFSET   CODE       C LABEL     INSTRUCTION OPERAND    COMMENT

             A8B48DA447   
             083FF00000   
             0000         
    0000068A              __$jetonSP:                      ; static: jetonSP
    0000068A 070018C030             .DATA.B     H'07,H'00,H'18,H'C0,H'30,H'60,H'78,H'F0,H'5D,H'D0,H'8F,H'88,H'87,H'08,H'8F,H'88,
             6078F05DD0 +                       H'5D,H'D0,H'78,H'F0,H'30,H'60,H'18,H'C0,H'07,H'00,H'00,H'00,H'00,H'00,H'00,H'00
             8F8887088F   
             885DD078F0   
             306018C007   
             0000000000   
             0000         
    000006AA              __$jetonSPAlpha:                 ; static: jetonSPAlpha
    000006AA F8FFE03FC0             .DATA.B     H'F8,H'FF,H'E0,H'3F,H'C0,H'1F,H'80,H'0F,H'80,H'0F,H'00,H'07,H'00,H'07,H'00,H'07,
             1F800F800F +                       H'80,H'0F,H'80,H'0F,H'C0,H'1F,H'E0,H'3F,H'F8,H'FF,H'FF,H'FF,H'FF,H'FF,H'FF,H'FF
             0007000700   
             07800F800F   
             C01FE03FF8   
             FFFFFFFFFF   
             FFFF         
    000006CA              __$fond:                         ; static: fond
    000006CA 0000000000             .DATA.B     H'00,H'00,H'00,H'00,H'00,H'00,H'00,H'00,H'00,H'00,H'00,H'00,H'00,H'00,H'00,H'00,
             0000000000 +                       H'00,H'00,H'00,H'00,H'00,H'00,H'00,H'00,H'00,H'00,H'00,H'00,H'00,H'00,H'00,H'00,
             0000000000 +                       H'00,H'00,H'00,H'00,H'00,H'00,H'00,H'00,H'00,H'00,H'00,H'00,H'00,H'00,H'00,H'00,
             0000000000 +                       H'00,H'00,H'00,H'00,H'00,H'00,H'00,H'00,H'00,H'00,H'00,H'00,H'00,H'00,H'00,H'00,
             0000000000 +                       H'F8,H'00,H'FF,H'FF,H'FC,H'00,H'7F,H'FF,H'FC,H'00,H'7F,H'FF,H'FF,H'80,H'0F,H'FF,
             0000000000 +                       H'04,H'01,H'00,H'00,H'02,H'00,H'80,H'00,H'02,H'00,H'80,H'00,H'00,H'40,H'10,H'00,
             0000000000 +                       H'02,H'02,H'00,H'00,H'01,H'01,H'00,H'00,H'01,H'01,H'00,H'00,H'00,H'20,H'20,H'00,
             0000000000 +                       H'01,H'04,H'00,H'00,H'00,H'FE,H'00,H'00,H'00,H'82,H'00,H'00,H'00,H'1F,H'C0,H'00,
             0000000000 +                       H'01,H'04,H'00,H'00,H'00,H'00,H'00,H'00,H'00,H'82,H'00,H'00,H'00,H'00,H'00,H'00,
             0000000000 +                       H'01,H'04,H'00,H'00,H'00,H'00,H'00,H'00,H'00,H'82,H'00,H'00,H'00,H'00,H'00,H'00,
             0000000000 +                       H'01,H'04,H'00,H'00,H'00,H'00,H'00,H'00,H'00,H'82,H'00,H'00,H'00,H'00,H'00,H'00,
             0000000000 +                       H'01,H'04,H'00,H'00,H'00,H'00,H'00,H'00,H'00,H'82,H'00,H'00,H'00,H'00,H'00,H'00,
             00000000F8 +                       H'01,H'04,H'00,H'00,H'00,H'00,H'00,H'00,H'00,H'82,H'00,H'00,H'00,H'00,H'00,H'00,
             00FFFFFC00 +                       H'01,H'04,H'00,H'00
             7FFFFC007F   
             FFFF800FFF   
             0401000002   
             0080000200   
             8000004010   
             0002020000   
             0101000001   
             0100000020   
             2000010400   
             0000FE0000   
             0082000000   
             1FC0000104   
             0000000000   
             0000820000   
             0000000001   
             0400000000   
             0000008200   
             0000000000   
             0104000000   
             0000000082   
             0000000000   
             0001040000   
             0000000000   




SH SERIES C/C++ Compiler (Ver. 6.0C)                                                                 30-Jan-2015 21:53:33  PAGE  181


SCT OFFSET   CODE       C LABEL     INSTRUCTION OPERAND    COMMENT

             8200000000   
             0000010400   
             0000000000   
             0082000000   
             0000000104   
             0000         
    0000079E 0000000000             .DATA.B     H'00,H'00,H'00,H'00,H'00,H'82,H'00,H'00,H'00,H'00,H'00,H'00,H'01,H'04,H'00,H'00,
             8200000000 +                       H'00,H'00,H'00,H'00,H'00,H'82,H'00,H'00,H'00,H'00,H'00,H'00,H'01,H'04,H'00,H'01,
             0000010400 +                       H'FF,H'FF,H'FE,H'00,H'00,H'82,H'00,H'00,H'00,H'00,H'00,H'00,H'01,H'04,H'00,H'02,
             0000000000 +                       H'00,H'00,H'01,H'00,H'00,H'82,H'00,H'00,H'00,H'00,H'00,H'00,H'01,H'04,H'00,H'04,
             0082000000 +                       H'FF,H'FF,H'FC,H'80,H'00,H'82,H'00,H'00,H'00,H'00,H'00,H'00,H'01,H'04,H'00,H'09,
             0000000104 +                       H'FF,H'FF,H'FE,H'40,H'00,H'82,H'00,H'00,H'00,H'00,H'00,H'00,H'01,H'04,H'00,H'13,
             0001FFFFFE +                       H'FF,H'FF,H'FF,H'20,H'00,H'82,H'00,H'00,H'00,H'00,H'00,H'00,H'01,H'04,H'00,H'27,
             0000820000 +                       H'FF,H'FF,H'FF,H'90,H'00,H'82,H'00,H'00,H'00,H'00,H'00,H'00,H'01,H'04,H'00,H'4F,
             0000000001 +                       H'FF,H'FF,H'FF,H'C8,H'00,H'82,H'00,H'00,H'00,H'00,H'00,H'00,H'FF,H'07,H'FF,H'9F,
             0400020000 +                       H'FF,H'FF,H'FF,H'E7,H'FF,H'83,H'FF,H'FF,H'FF,H'FF,H'FF,H'FF,H'01,H'04,H'00,H'3F,
             0100008200 +                       H'C0,H'00,H'0F,H'F0,H'00,H'82,H'00,H'00,H'00,H'00,H'00,H'00,H'FF,H'07,H'FF,H'FF,
             0000000000 +                       H'80,H'00,H'07,H'FF,H'FF,H'83,H'FF,H'FF,H'FF,H'FF,H'FF,H'FF,H'FF,H'07,H'FF,H'FF,
             01040004FF +                       H'00,H'00,H'03,H'FF,H'FF,H'83,H'FF,H'FF,H'FF,H'FF,H'FF,H'FF,H'FF,H'07,H'FF,H'FE,
             FFFC800082 +                       H'00,H'00,H'01,H'FF
             0000000000   
             0001040009   
             FFFFFE4000   
             8200000000   
             0000010400   
             13FFFFFF20   
             0082000000   
             0000000104   
             0027FFFFFF   
             9000820000   
             0000000001   
             04004FFFFF   
             FFC8008200   
             0000000000   
             FF07FF9FFF   
             FFFFE7FF83   
             FFFFFFFFFF   
             FF0104003F   
             C0000FF000   
             8200000000   
             0000FF07FF   
             FF800007FF   
             FF83FFFFFF   
             FFFFFFFF07   
             FFFF000003   
             FFFF83FFFF   
             FFFFFFFFFF   
             07FFFE0000   
             01FF         
    00000872 FF83FFFFFF             .DATA.B     H'FF,H'83,H'FF,H'FF,H'FF,H'FF,H'FF,H'FF,H'FF,H'07,H'FF,H'FC,H'00,H'00,H'00,H'FF,
             FFFFFFFF07 +                       H'FF,H'83,H'FF,H'FF,H'FF,H'FF,H'FF,H'FF,H'FF,H'07,H'FF,H'F8,H'00,H'00,H'00,H'7F,
             FFFC000000 +                       H'FF,H'83,H'FF,H'FF,H'FF,H'FF,H'FF,H'FF,H'FF,H'07,H'FF,H'F0,H'00,H'00,H'00,H'3F,
             FFFF83FFFF +                       H'FF,H'83,H'FF,H'FF,H'FF,H'FF,H'FF,H'FF,H'01,H'04,H'00,H'00,H'00,H'00,H'00,H'00,
             FFFFFFFFFF +                       H'00,H'82,H'00,H'00,H'00,H'00,H'00,H'00,H'01,H'04,H'00,H'00,H'00,H'00,H'00,H'00,
             07FFF80000 +                       H'00,H'82,H'00,H'00,H'00,H'00,H'00,H'00,H'01,H'04,H'00,H'00,H'00,H'00,H'00,H'00,
             007FFF83FF +                       H'00,H'82,H'00,H'00,H'00,H'00,H'00,H'00,H'01,H'04,H'00,H'00,H'00,H'00,H'00,H'00,
             FFFFFFFFFF +                       H'00,H'82,H'00,H'00,H'00,H'00,H'00,H'00,H'01,H'04,H'00,H'00,H'00,H'00,H'00,H'00,




SH SERIES C/C++ Compiler (Ver. 6.0C)                                                                 30-Jan-2015 21:53:33  PAGE  182


SCT OFFSET   CODE       C LABEL     INSTRUCTION OPERAND    COMMENT

             FF07FFF000 +                       H'00,H'82,H'00,H'00,H'00,H'00,H'00,H'00,H'01,H'04,H'00,H'00,H'00,H'00,H'00,H'00,
             00003FFF83 +                       H'00,H'82,H'00,H'00,H'00,H'00,H'00,H'00,H'01,H'04,H'00,H'00,H'00,H'00,H'00,H'00,
             FFFFFFFFFF +                       H'00,H'82,H'00,H'00,H'00,H'00,H'00,H'00,H'01,H'04,H'00,H'00,H'00,H'00,H'00,H'00,
             FF01040000 +                       H'00,H'82,H'00,H'00,H'00,H'00,H'00,H'00,H'01,H'04,H'00,H'00,H'00,H'00,H'00,H'00,
             0000000000 +                       H'00,H'82,H'00,H'00,H'00,H'00,H'00,H'00,H'01,H'04,H'00,H'00,H'00,H'00,H'00,H'00,
             8200000000 +                       H'00,H'82,H'00,H'00
             0000010400   
             0000000000   
             0082000000   
             0000000104   
             0000000000   
             0000820000   
             0000000001   
             0400000000   
             0000008200   
             0000000000   
             0104000000   
             0000000082   
             0000000000   
             0001040000   
             0000000000   
             8200000000   
             0000010400   
             0000000000   
             0082000000   
             0000000104   
             0000000000   
             0000820000   
             0000000001   
             0400000000   
             0000008200   
             0000000000   
             0104000000   
             0000000082   
             0000         
    00000946 0000000001             .DATA.B     H'00,H'00,H'00,H'00,H'01,H'04,H'00,H'00,H'00,H'00,H'00,H'00,H'00,H'82,H'00,H'00,
             0400000000 +                       H'00,H'00,H'00,H'00,H'01,H'04,H'00,H'00,H'00,H'00,H'00,H'00,H'00,H'82,H'00,H'00,
             0000008200 +                       H'00,H'00,H'00,H'00,H'01,H'04,H'00,H'00,H'00,H'00,H'00,H'00,H'00,H'82,H'00,H'00,
             0000000000 +                       H'00,H'00,H'00,H'00,H'01,H'04,H'00,H'00,H'00,H'00,H'00,H'00,H'00,H'82,H'00,H'00,
             0104000000 +                       H'00,H'00,H'00,H'00,H'01,H'04,H'00,H'00,H'00,H'FE,H'00,H'00,H'00,H'82,H'00,H'00,
             0000000082 +                       H'00,H'1F,H'C0,H'00,H'02,H'02,H'00,H'00,H'01,H'01,H'00,H'00,H'01,H'01,H'00,H'00,
             0000000000 +                       H'00,H'20,H'20,H'00,H'04,H'01,H'00,H'00,H'02,H'00,H'80,H'00,H'02,H'00,H'80,H'00,
             0001040000 +                       H'00,H'40,H'10,H'00,H'F8,H'00,H'FF,H'FF,H'FC,H'00,H'7F,H'FF,H'FC,H'00,H'7F,H'FF,
             0000000000 +                       H'FF,H'80,H'0F,H'FF,H'00,H'00,H'00,H'00,H'00,H'00,H'00,H'00,H'00,H'00,H'00,H'00,
             8200000000 +                       H'00,H'00,H'00,H'00,H'00,H'00,H'00,H'00,H'00,H'00,H'00,H'00,H'00,H'00,H'00,H'00,
             0000010400 +                       H'00,H'00,H'00,H'00,H'00,H'00,H'00,H'00,H'00,H'00,H'00,H'00,H'00,H'00,H'00,H'00,
             0000000000 +                       H'00,H'00,H'00,H'00
             0082000000   
             0000000104   
             000000FE00   
             0000820000   
             001FC00002   
             0200000101   
             0000010100   
             0000202000   
             0401000002   
             0080000200   




SH SERIES C/C++ Compiler (Ver. 6.0C)                                                                 30-Jan-2015 21:53:33  PAGE  183


SCT OFFSET   CODE       C LABEL     INSTRUCTION OPERAND    COMMENT

             8000004010   
             00F800FFFF   
             FC007FFFFC   
             007FFFFF80   
             0FFF000000   
             0000000000   
             0000000000   
             0000000000   
             0000000000   
             0000000000   
             0000000000   
             0000000000   
             0000000000   
             0000000000   
    000009FA              __$sol:                          ; static: sol
    000009FA FFFFFFFFFF             .DATA.B     H'FF,H'FF,H'FF,H'FF,H'FF,H'FF,H'FF,H'FF,H'FF,H'FF,H'FF,H'FF,H'FF,H'FF,H'FF,H'FF,
             FFFFFFFFFF +                       H'FF,H'FF,H'FF,H'FF,H'FF,H'FF,H'FF,H'FF,H'FF,H'FF,H'FF,H'FF,H'FF,H'FF,H'FF,H'FF,
             FFFFFFFFFF +                       H'C0,H'20,H'C0,H'20,H'C0,H'20,H'C0,H'20,H'C0,H'20,H'C0,H'20,H'C0,H'20,H'C0,H'20,
             FFFFFFFFFF +                       H'C0,H'20,H'C0,H'20,H'C0,H'20,H'C0,H'20,H'C0,H'20,H'C0,H'20,H'C0,H'20,H'C0,H'20,
             FFFFFFFFFF +                       H'60,H'10,H'60,H'10,H'60,H'10,H'60,H'10,H'60,H'10,H'60,H'10,H'60,H'10,H'60,H'10,
             FFFFFFFFFF +                       H'30,H'08,H'30,H'08,H'30,H'08,H'30,H'08,H'30,H'08,H'30,H'08,H'30,H'08,H'30,H'08,
             FFFFC020C0 +                       H'FF,H'FF,H'FF,H'FF,H'FF,H'FF,H'FF,H'FF,H'FF,H'FF,H'FF,H'FF,H'FF,H'FF,H'FF,H'FF,
             20C020C020 +                       H'18,H'08,H'18,H'08,H'18,H'08,H'18,H'08,H'18,H'08,H'18,H'08,H'18,H'08,H'18,H'08,
             C020C020C0 +                       H'0C,H'04,H'0C,H'04,H'0C,H'04,H'0C,H'04,H'0C,H'04,H'0C,H'04,H'0C,H'04,H'0C,H'04,
             20C020C020 +                       H'06,H'02,H'06,H'02,H'06,H'02,H'06,H'02,H'06,H'02,H'06,H'02,H'06,H'02,H'06,H'02,
             C020C020C0 +                       H'06,H'02,H'06,H'02,H'06,H'02,H'06,H'02,H'06,H'02,H'06,H'02,H'06,H'02,H'06,H'02,
             20C020C020 +                       H'03,H'01,H'03,H'01,H'03,H'01,H'03,H'01,H'03,H'01,H'03,H'01,H'03,H'01,H'03,H'01
             C020C02060   
             1060106010   
             6010601060   
             1060106010   
             3008300830   
             0830083008   
             3008300830   
             08FFFFFFFF   
             FFFFFFFFFF   
             FFFFFFFFFF   
             FFFF180818   
             0818081808   
             1808180818   
             0818080C04   
             0C040C040C   
             040C040C04   
             0C040C0406   
             0206020602   
             0602060206   
             0206020602   
             0602060206   
             0206020602   
             0602060206   
             0203010301   
             0301030103   
             0103010301   
             0301         
    00000ABA              __$jetpackJoyride:               ; static: jetpackJoyride
    00000ABA FE7DFFDFFF             .DATA.B     H'FE,H'7D,H'FF,H'DF,H'FF,H'7E,H'07,H'E0,H'FE,H'0F,H'FE,H'7F,H'FC,H'7F,H'C1,H'F8,
             7E07E0FE0F +                       H'FC,H'FF,H'FF,H'FF,H'FF,H'FF,H'0F,H'F1,H'FF,H'1F,H'FF,H'3F,H'F9,H'FF,H'FC,H'0F,




SH SERIES C/C++ Compiler (Ver. 6.0C)                                                                 30-Jan-2015 21:53:33  PAGE  184


SCT OFFSET   CODE       C LABEL     INSTRUCTION OPERAND    COMMENT

             FE7FFC7FC1 +                       H'F9,H'FF,H'FF,H'FF,H'FF,H'FF,H'9F,H'FB,H'FF,H'BF,H'FF,H'BF,H'F3,H'FF,H'FF,H'E3,
             F8FCFFFFFF +                       H'FB,H'FF,H'FF,H'FF,H'FF,H'FF,H'FF,H'FF,H'FF,H'FF,H'FF,H'BF,H'E7,H'FF,H'FF,H'F9,
             FFFF0FF1FF +                       H'FA,H'1E,H'01,H'80,H'07,H'83,H'FC,H'3F,H'83,H'E1,H'8F,H'BF,H'EF,H'FF,H'FF,H'FC,
             1FFF3FF9FF +                       H'FA,H'1C,H'01,H'80,H'07,H'01,H'F8,H'1F,H'01,H'E1,H'87,H'BF,H'CF,H'FF,H'FF,H'FE,
             FC0FF9FFFF +                       H'FA,H'18,H'01,H'80,H'06,H'00,H'F0,H'0E,H'00,H'E1,H'87,H'BF,H'DF,H'FF,H'FF,H'FE,
             FFFFFF9FFB +                       H'FA,H'18,H'01,H'80,H'06,H'00,H'60,H'06,H'00,H'E1,H'87,H'BF,H'DF,H'FF,H'FF,H'FE,
             FFBFFFBFF3 +                       H'FA,H'18,H'7F,H'F8,H'7E,H'18,H'61,H'86,H'1F,H'E1,H'87,H'BF,H'9F,H'FF,H'FF,H'FE,
             FFFFE3FBFF +                       H'FA,H'18,H'7F,H'88,H'7A,H'18,H'61,H'86,H'18,H'21,H'8F,H'BF,H'BF,H'FF,H'FF,H'FE,
             FFFFFFFFFF +                       H'FA,H'18,H'07,H'88,H'7A,H'00,H'61,H'86,H'18,H'20,H'1F,H'3F,H'3F,H'E0,H'7F,H'FE,
             FFFFFFFFBF +                       H'C2,H'18,H'07,H'88,H'7A,H'00,H'E1,H'86,H'18,H'20,H'1E,H'7F,H'7F,H'80,H'0F,H'FE,
             E7FFFFF9FA +                       H'9E,H'18,H'07,H'88,H'7A,H'01,H'E0,H'06,H'18,H'20,H'1E,H'7C,H'7F,H'00,H'01,H'FC,
             1E01800783 +                       H'3E,H'18,H'07,H'88
             FC3F83E18F   
             BFEFFFFFFC   
             FA1C018007   
             01F81F01E1   
             87BFCFFFFF   
             FEFA180180   
             0600F00E00   
             E187BFDFFF   
             FFFEFA1801   
             8006006006   
             00E187BFDF   
             FFFFFEFA18   
             7FF87E1861   
             861FE187BF   
             9FFFFFFEFA   
             187F887A18   
             618618218F   
             BFBFFFFFFE   
             FA1807887A   
             0061861820   
             1F3F3FE07F   
             FEC2180788   
             7A00E18618   
             201E7F7F80   
             0FFE9E1807   
             887A01E006   
             18201E7C7F   
             0001FC3E18   
             0788         
    00000B8E 7A03E00618             .DATA.B     H'7A,H'03,H'E0,H'06,H'18,H'20,H'1F,H'31,H'FF,H'00,H'00,H'7D,H'7E,H'18,H'7F,H'88,
             201F31FF00 +                       H'7A,H'1F,H'A0,H'06,H'18,H'21,H'8F,H'A7,H'3F,H'07,H'80,H'05,H'FE,H'18,H'7F,H'E8,
             007D7E187F +                       H'7A,H'1E,H'20,H'06,H'1F,H'E1,H'87,H'8D,H'BF,H'80,H'E0,H'05,H'80,H'18,H'01,H'E8,
             887A1FA006 +                       H'7A,H'1E,H'21,H'86,H'00,H'E1,H'87,H'B7,H'3F,H'0F,H'30,H'F5,H'80,H'18,H'01,H'E8,
             18218FA73F +                       H'7A,H'1E,H'21,H'86,H'00,H'E1,H'87,H'FC,H'3E,H'17,H'91,H'05,H'C0,H'3C,H'01,H'E8,
             078005FE18 +                       H'7A,H'1E,H'21,H'87,H'01,H'E1,H'87,H'F0,H'FE,H'13,H'40,H'7D,H'60,H'76,H'01,H'C8,
             7FE87A1E20 +                       H'72,H'1C,H'21,H'87,H'83,H'E1,H'8F,H'01,H'FE,H'13,H'40,H'E9,H'3F,H'E3,H'FF,H'8F,
             061FE1878D +                       H'E3,H'F8,H'3F,H'FE,H'FF,H'BF,H'FE,H'01,H'1E,H'15,H'40,H'6B,H'80,H'00,H'00,H'00,
             BF80E00580 +                       H'00,H'00,H'00,H'00,H'00,H'00,H'0A,H'01,H'0E,H'17,H'44,H'AB,H'FC,H'FD,H'FC,H'3C,
             1801E87A1E +                       H'3E,H'7F,H'0F,H'FF,H'C1,H'FF,H'8F,H'03,H'6E,H'0F,H'82,H'EB,H'F9,H'FF,H'FE,H'7E,
             218600E187 +                       H'7F,H'FF,H'9F,H'FF,H'E3,H'FF,H'CD,H'87,H'26,H'00,H'02,H'7B,H'FB,H'FF,H'FF,H'FF,
             B73F0F30F5 +                       H'FF,H'FF,H'FF,H'FF,H'FF,H'FF,H'ED,H'C7,H'20,H'00,H'0C,H'0B,H'FB,H'FF,H'FF,H'FF,
             801801E87A +                       H'FF,H'FF,H'FF,H'FF,H'FF,H'FF,H'ED,H'7F,H'84,H'03,H'00,H'0B,H'FA,H'1E,H'07,H'87,
             1E218600E1 +                       H'87,H'81,H'E1,H'80
             87FC3E1791   
             05C03C01E8   




SH SERIES C/C++ Compiler (Ver. 6.0C)                                                                 30-Jan-2015 21:53:33  PAGE  185


SCT OFFSET   CODE       C LABEL     INSTRUCTION OPERAND    COMMENT

             7A1E218701   
             E187F0FE13   
             407D607601   
             C8721C2187   
             83E18F01FE   
             1340E93FE3   
             FF8FE3F83F   
             FEFFBFFE01   
             1E15406B80   
             0000000000   
             000000000A   
             010E1744AB   
             FCFDFC3C3E   
             7F0FFFC1FF   
             8F036E0F82   
             EBF9FFFE7E   
             7FFF9FFFE3   
             FFCD872600   
             027BFBFFFF   
             FFFFFFFFFF   
             FFFFEDC720   
             000C0BFBFF   
             FFFFFFFFFF   
             FFFFFFED7F   
             8403000BFA   
             1E07878781   
             E180         
    00000C62 7E01ED5FE4             .DATA.B     H'7E,H'01,H'ED,H'5F,H'E4,H'02,H'FF,H'0B,H'FA,H'1C,H'03,H'87,H'87,H'00,H'E1,H'80,
             02FF0BFA1C +                       H'3C,H'01,H'E5,H'5F,H'FC,H'02,H'00,H'8B,H'FA,H'18,H'01,H'87,H'86,H'00,H'61,H'80,
             03878700E1 +                       H'18,H'01,H'E3,H'5F,H'F6,H'03,H'FF,H'8B,H'FA,H'18,H'01,H'83,H'06,H'00,H'61,H'80,
             803C01E55F +                       H'18,H'01,H'C9,H'DF,H'EE,H'02,H'00,H'93,H'FA,H'18,H'61,H'80,H'06,H'18,H'61,H'86,
             FC02008BFA +                       H'18,H'7F,H'9C,H'7F,H'DF,H'81,H'FF,H'27,H'FA,H'18,H'61,H'C0,H'0E,H'18,H'61,H'86,
             1801878600 +                       H'18,H'7F,H'BF,H'3F,H'BF,H'E0,H'00,H'4F,H'FA,H'18,H'61,H'E0,H'1A,H'00,H'61,H'86,
             61801801E3 +                       H'18,H'07,H'BF,H'BF,H'7F,H'F8,H'00,H'DF,H'82,H'18,H'61,H'F0,H'3A,H'00,H'61,H'86,
             5FF603FF8B +                       H'18,H'07,H'BF,H'BF,H'CF,H'FF,H'FF,H'DF,H'3E,H'18,H'61,H'F8,H'7A,H'01,H'E1,H'86,
             FA18018306 +                       H'18,H'07,H'BF,H'3E,H'47,H'FA,H'1F,H'DF,H'7E,H'18,H'61,H'E8,H'7A,H'00,H'E1,H'86,
             0061801801 +                       H'18,H'07,H'BF,H'7E,H'47,H'F9,H'FF,H'DF,H'FE,H'18,H'61,H'E8,H'7A,H'00,H'61,H'86,
             C9DFEE0200 +                       H'18,H'7F,H'8F,H'7F,H'47,H'F9,H'5F,H'DF,H'FE,H'18,H'61,H'E8,H'7A,H'00,H'61,H'86,
             93FA186180 +                       H'18,H'7F,H'EE,H'7F,H'47,H'FE,H'9E,H'5F,H'80,H'18,H'01,H'E8,H'7A,H'18,H'61,H'80,
             0618618618 +                       H'18,H'01,H'EE,H'FF,H'43,H'F8,H'9E,H'4F,H'80,H'18,H'01,H'E8,H'7A,H'18,H'61,H'80,
             7F9C7FDF81 +                       H'18,H'01,H'EE,H'FF
             FF27FA1861   
             C00E186186   
             187FBF3FBF   
             E0004FFA18   
             61E01A0061   
             861807BFBF   
             7FF800DF82   
             1861F03A00   
             61861807BF   
             BFCFFFFFDF   
             3E1861F87A   
             01E1861807   
             BF3E47FA1F   
             DF7E1861E8   
             7A00E18618   
             07BF7E47F9   




SH SERIES C/C++ Compiler (Ver. 6.0C)                                                                 30-Jan-2015 21:53:33  PAGE  186


SCT OFFSET   CODE       C LABEL     INSTRUCTION OPERAND    COMMENT

             FFDFFE1861   
             E87A006186   
             187F8F7F47   
             F95FDFFE18   
             61E87A0061   
             86187FEE7F   
             47FE9E5F80   
             1801E87A18   
             61801801EE   
             FF43F89E4F   
             801801E87A   
             1861801801   
             EEFF         
    00000D36 43F99E6FC0             .DATA.B     H'43,H'F9,H'9E,H'6F,H'C0,H'3C,H'03,H'C8,H'7A,H'18,H'61,H'80,H'3C,H'01,H'EE,H'FF,
             3C03C87A18 +                       H'44,H'F9,H'1C,H'27,H'60,H'76,H'07,H'88,H'72,H'18,H'61,H'80,H'76,H'01,H'CE,H'FF,
             61803C01EE +                       H'46,H'FB,H'1C,H'F7,H'3F,H'E3,H'FF,H'0F,H'E3,H'FF,H'FF,H'FF,H'E3,H'FF,H'9C,H'FF,
             FF44F91C27 +                       H'42,H'FE,H'FE,H'97,H'00,H'00,H'00,H'00,H'00,H'00,H'00,H'00,H'08,H'00,H'3D,H'FF,
             6076078872 +                       H'D3,H'F9,H'FE,H'F7,H'FF,H'FF,H'FF,H'FE,H'7D,H'F7,H'CF,H'FF,H'FF,H'FF,H'FD,H'FF,
             1861807601 +                       H'D3,H'FF,H'FA,H'17,H'FF,H'FF,H'FF,H'FE,H'C7,H'1C,H'6F,H'FF,H'FF,H'FF,H'FD,H'7F,
             CEFF46FB1C +                       H'F7,H'FF,H'E2,H'D7,H'FF,H'FF,H'FF,H'FE,H'82,H'08,H'2F,H'FF,H'FF,H'FF,H'FD,H'3F,
             F73FE3FF0F +                       H'DF,H'FF,H'F3,H'37,H'FF,H'FF,H'FF,H'FE,H'92,H'49,H'2F,H'FF,H'FF,H'FF,H'FD,H'2F,
             E3FFFFFFE3 +                       H'C7,H'FF,H'E1,H'E7,H'FF,H'FF,H'FF,H'FE,H'82,H'48,H'2F,H'FF,H'FF,H'FF,H'FD,H'28,
             FF9CFF42FE +                       H'47,H'AE,H'E4,H'0F,H'FF,H'FF,H'FF,H'FE,H'86,H'08,H'6F,H'FF,H'FF,H'FF,H'FC,H'EB,
             FE97000000 +                       H'50,H'2A,H'CF,H'FF,H'FF,H'FF,H'FF,H'FE,H'9E,H'08,H'2F,H'FF,H'FF,H'FF,H'FC,H'7D,
             0000000000 +                       H'DF,H'AA,H'CF,H'FF,H'FF,H'FF,H'FF,H'FE,H'9E,H'49,H'2F,H'FF,H'FF,H'FF,H'FC,H'47,
             08003DFFD3 +                       H'DF,H'BF,H'CF,H'FF,H'FF,H'FF,H'FF,H'FE,H'9E,H'49,H'2F,H'FF,H'FF,H'FF,H'FD,H'54,
             F9FEF7FFFF +                       H'9F,H'85,H'4F,H'FF
             FFFE7DF7CF   
             FFFFFFFDFF   
             D3FFFA17FF   
             FFFFFEC71C   
             6FFFFFFFFD   
             7FF7FFE2D7   
             FFFFFFFE82   
             082FFFFFFF   
             FD3FDFFFF3   
             37FFFFFFFE   
             92492FFFFF   
             FFFD2FC7FF   
             E1E7FFFFFF   
             FE82482FFF   
             FFFFFD2847   
             AEE40FFFFF   
             FFFE86086F   
             FFFFFFFCEB   
             502ACFFFFF   
             FFFFFE9E08   
             2FFFFFFFFC   
             7DDFAACFFF   
             FFFFFFFE9E   
             492FFFFFFF   
             FC47DFBFCF   
             FFFFFFFFFE   
             9E492FFFFF   
             FFFD549F85   
             4FFF         
    00000E0A FFC00000FF             .DATA.B     H'FF,H'C0,H'00,H'00,H'FF,H'FF,H'E0,H'00,H'00,H'07,H'FD,H'10,H'BF,H'85,H'0F,H'FF,




SH SERIES C/C++ Compiler (Ver. 6.0C)                                                                 30-Jan-2015 21:53:33  PAGE  187


SCT OFFSET   CODE       C LABEL     INSTRUCTION OPERAND    COMMENT

             FFE0000007 +                       H'FF,H'9F,H'7D,H'F6,H'FF,H'FF,H'F6,H'DF,H'7D,H'F3,H'FD,H'14,H'3F,H'A0,H'0F,H'FF,
             FD10BF850F +                       H'FF,H'A1,H'C7,H'19,H'31,H'9F,H'09,H'20,H'82,H'0B,H'FD,H'14,H'3F,H'A8,H'2F,H'FF,
             FFFF9F7DF6 +                       H'FF,H'A0,H'82,H'09,H'20,H'9E,H'09,H'20,H'82,H'0B,H'FC,H'44,H'3F,H'A0,H'2F,H'FF,
             FFFFF6DF7D +                       H'FF,H'A4,H'92,H'49,H'24,H'9E,H'78,H'24,H'93,H'CB,H'FC,H'05,H'3F,H'AA,H'4F,H'FF,
             F3FD143FA0 +                       H'FF,H'A4,H'82,H'48,H'64,H'9E,H'1C,H'64,H'93,H'CB,H'FC,H'05,H'3F,H'8A,H'0F,H'FF,
             0FFFFFA1C7 +                       H'FF,H'A4,H'86,H'08,H'60,H'9E,H'1C,H'64,H'93,H'CB,H'FC,H'85,H'3F,H'8A,H'4F,H'FF,
             19319F0920 +                       H'FF,H'A4,H'82,H'09,H'20,H'9E,H'78,H'24,H'93,H'CB,H'FC,H'91,H'3F,H'88,H'0F,H'FF,
             820BFD143F +                       H'FF,H'A0,H'92,H'49,H'24,H'82,H'09,H'20,H'83,H'CB,H'FC,H'20,H'3F,H'84,H'0F,H'FF,
             A82FFFFFA0 +                       H'FF,H'A1,H'92,H'49,H'24,H'C3,H'09,H'20,H'83,H'CB,H'FC,H'20,H'3F,H'89,H'0F,H'FF,
             8209209E09 +                       H'FF,H'9F,H'6D,H'B6,H'DB,H'7D,H'F6,H'DF,H'7D,H'B3,H'FC,H'00,H'3F,H'88,H'AF,H'FF
             20820BFC44   
             3FA02FFFFF   
             A49249249E   
             782493CBFC   
             053FAA4FFF   
             FFA4824864   
             9E1C6493CB   
             FC053F8A0F   
             FFFFA48608   
             609E1C6493   
             CBFC853F8A   
             4FFFFFA482   
             09209E7824   
             93CBFC913F   
             880FFFFFA0   
             9249248209   
             2083CBFC20   
             3F840FFFFF   
             A1924924C3   
             092083CBFC   
             203F890FFF   
             FF9F6DB6DB   
             7DF6DF7DB3   
             FC003F88AF   
             FF           
    00000EBA              __$menu:                         ; static: menu
    00000EBA FFFFFFFFFF             .DATA.B     H'FF,H'FF,H'FF,H'FF,H'FF,H'FF,H'FF,H'FF,H'FF,H'FF,H'FF,H'FF,H'FF,H'FF,H'FF,H'FF,
             FFFFFFFFFF +                       H'FF,H'FF,H'FF,H'FF,H'FF,H'FF,H'FF,H'FF,H'FF,H'3F,H'FF,H'FF,H'FF,H'FF,H'FF,H'FF,
             FFFFFFFFFF +                       H'FF,H'FF,H'FF,H'FF,H'F3,H'E3,H'E3,H'3E,H'3F,H'31,H'93,H'1F,H'FF,H'FF,H'FF,H'FF,
             FFFFFFFFFF +                       H'FF,H'FF,H'FF,H'FF,H'F3,H'C1,H'C1,H'3C,H'13,H'20,H'92,H'1F,H'FF,H'FF,H'FF,H'FF,
             FFFFFFFFFF +                       H'FF,H'FF,H'FF,H'FF,H'F3,H'C9,H'C9,H'3C,H'91,H'20,H'92,H'7F,H'FF,H'FF,H'FF,H'FF,
             3FFFFFFFFF +                       H'FF,H'FF,H'FF,H'FF,H'F3,H'C9,H'C1,H'3C,H'90,H'24,H'92,H'3F,H'FF,H'FF,H'FF,H'FF,
             FFFFFFFFFF +                       H'FF,H'FF,H'FF,H'FF,H'F3,H'C1,H'C3,H'3C,H'10,H'24,H'92,H'3F,H'FF,H'FF,H'FF,H'FF,
             FFF3E3E33E +                       H'FF,H'FF,H'FF,H'FF,H'F3,H'C1,H'CF,H'3C,H'12,H'20,H'92,H'7F,H'FF,H'FF,H'FF,H'FF,
             3F31931FFF +                       H'00,H'00,H'00,H'03,H'F0,H'49,H'CF,H'04,H'93,H'20,H'82,H'1F,H'C0,H'00,H'00,H'00,
             FFFFFFFFFF +                       H'00,H'00,H'00,H'01,H'F8,H'49,H'CF,H'84,H'93,H'F0,H'C7,H'1F,H'80,H'00,H'00,H'00,
             FFFFF3C1C1 +                       H'00,H'00,H'00,H'00,H'FF,H'FF,H'FF,H'FF,H'F3,H'FC,H'7F,H'FF,H'00,H'00,H'00,H'00,
             3C1320921F +                       H'00,H'00,H'00,H'00,H'7F,H'FF,H'FF,H'FF,H'FF,H'FF,H'FF,H'FE,H'00,H'00,H'00,H'00,
             FFFFFFFFFF +                       H'00,H'00,H'00,H'00,H'00,H'00,H'00,H'00,H'00,H'00,H'00,H'00,H'00,H'00,H'00,H'00,
             FFFFFFF3C9 +                       H'00,H'00,H'00,H'00
             C93C912092   
             7FFFFFFFFF   
             FFFFFFFFF3   
             C9C13C9024   
             923FFFFFFF   
             FFFFFFFFFF   
             F3C1C33C10   




SH SERIES C/C++ Compiler (Ver. 6.0C)                                                                 30-Jan-2015 21:53:33  PAGE  188


SCT OFFSET   CODE       C LABEL     INSTRUCTION OPERAND    COMMENT

             24923FFFFF   
             FFFFFFFFFF   
             FFF3C1CF3C   
             1220927FFF   
             FFFFFF0000   
             0003F049CF   
             049320821F   
             C000000000   
             000001F849   
             CF8493F0C7   
             1F80000000   
             00000000FF   
             FFFFFFF3FC   
             7FFF000000   
             0000000000   
             7FFFFFFFFF   
             FFFFFE0000   
             0000000000   
             0000000000   
             0000000000   
             0000000000   
             0000         
    00000F8E 0000000000             .DATA.B     H'00,H'00,H'00,H'00,H'00,H'00,H'00,H'00,H'00,H'00,H'00,H'00,H'00,H'00,H'00,H'00,
             0000000000 +                       H'00,H'00,H'00,H'00,H'00,H'00,H'00,H'00,H'00,H'00,H'00,H'00,H'00,H'00,H'00,H'00,
             0000000000 +                       H'00,H'00,H'00,H'00,H'00,H'00,H'00,H'00,H'00,H'00,H'00,H'00,H'00,H'00,H'00,H'00,
             0000000000 +                       H'00,H'00,H'00,H'00,H'00,H'00,H'00,H'00,H'00,H'00,H'00,H'00,H'00,H'7F,H'FF,H'F8,
             0000000000 +                       H'01,H'FF,H'FF,H'E0,H'07,H'FF,H'FF,H'80,H'1F,H'FF,H'FE,H'00,H'00,H'40,H'00,H'08,
             0000000000 +                       H'01,H'00,H'00,H'20,H'04,H'00,H'00,H'80,H'10,H'00,H'02,H'00,H'00,H'40,H'00,H'08,
             0000000000 +                       H'01,H'0C,H'0C,H'20,H'04,H'38,H'70,H'80,H'10,H'00,H'02,H'00,H'00,H'47,H'87,H'88,
             0000000000 +                       H'01,H'12,H'12,H'20,H'04,H'44,H'88,H'80,H'10,H'00,H'02,H'00,H'00,H'4C,H'CC,H'C8,
             0000000000 +                       H'01,H'21,H'21,H'20,H'04,H'48,H'48,H'80,H'10,H'00,H'02,H'00,H'00,H'50,H'78,H'28,
             0000000000 +                       H'01,H'21,H'21,H'20,H'04,H'48,H'48,H'80,H'10,H'10,H'02,H'00,H'00,H'50,H'00,H'28,
             0000000000 +                       H'01,H'21,H'21,H'20,H'04,H'44,H'88,H'80,H'13,H'FF,H'F2,H'00,H'00,H'4F,H'03,H'C8,
             0000000000 +                       H'01,H'21,H'E1,H'20,H'04,H'23,H'10,H'80,H'10,H'10,H'02,H'00,H'00,H'41,H'02,H'08,
             007FFFF801 +                       H'01,H'21,H'21,H'20,H'04,H'18,H'60,H'80,H'10,H'00,H'02,H'00,H'00,H'41,H'02,H'08,
             FFFFE007FF +                       H'01,H'21,H'21,H'20
             FF801FFFFE   
             0000400008   
             0100002004   
             0000801000   
             0200004000   
             08010C0C20   
             0438708010   
             0002000047   
             8788011212   
             2004448880   
             1000020000   
             4CCCC80121   
             2120044848   
             8010000200   
             0050782801   
             2121200448   
             4880101002   
             0000500028   
             0121212004   
             44888013FF   
             F200004F03   




SH SERIES C/C++ Compiler (Ver. 6.0C)                                                                 30-Jan-2015 21:53:33  PAGE  189


SCT OFFSET   CODE       C LABEL     INSTRUCTION OPERAND    COMMENT

             C80121E120   
             0423108010   
             1002000041   
             0208012121   
             2004186080   
             1000020000   
             4102080121   
             2120         
    00001062 0404808010             .DATA.B     H'04,H'04,H'80,H'80,H'10,H'00,H'42,H'00,H'00,H'41,H'02,H'08,H'01,H'21,H'21,H'20,
             0042000041 +                       H'04,H'04,H'80,H'80,H'13,H'FF,H'F2,H'00,H'00,H'41,H'02,H'08,H'01,H'21,H'21,H'20,
             0208012121 +                       H'04,H'04,H'80,H'80,H'10,H'00,H'42,H'00,H'00,H'41,H'02,H'08,H'01,H'21,H'21,H'20,
             2004048080 +                       H'04,H'04,H'80,H'80,H'10,H'00,H'02,H'00,H'00,H'41,H'02,H'08,H'01,H'3F,H'3F,H'20,
             13FFF20000 +                       H'04,H'04,H'80,H'80,H'11,H'00,H'02,H'00,H'00,H'41,H'02,H'08,H'01,H'1E,H'1E,H'20,
             4102080121 +                       H'04,H'04,H'80,H'80,H'13,H'FF,H'F2,H'00,H'00,H'41,H'86,H'08,H'01,H'0C,H'0C,H'20,
             2120040480 +                       H'04,H'04,H'80,H'80,H'11,H'00,H'02,H'00,H'00,H'40,H'FC,H'08,H'01,H'0C,H'0C,H'20,
             8010004200 +                       H'04,H'04,H'80,H'80,H'10,H'00,H'02,H'00,H'00,H'40,H'00,H'08,H'01,H'0C,H'0C,H'20,
             0041020801 +                       H'04,H'03,H'00,H'80,H'10,H'00,H'02,H'00,H'00,H'40,H'00,H'08,H'01,H'00,H'00,H'20,
             2121200404 +                       H'04,H'00,H'00,H'80,H'10,H'00,H'02,H'00,H'00,H'7F,H'FF,H'F8,H'01,H'FF,H'FF,H'E0,
             8080100002 +                       H'07,H'FF,H'FF,H'80,H'1F,H'FF,H'FE,H'00,H'00,H'00,H'00,H'00,H'00,H'00,H'00,H'00,
             0000410208 +                       H'00,H'00,H'00,H'00,H'00,H'00,H'00,H'00,H'00,H'00,H'00,H'00,H'00,H'00,H'00,H'00,
             013F3F2004 +                       H'00,H'00,H'00,H'00,H'00,H'00,H'00,H'00,H'00,H'00,H'00,H'00,H'00,H'00,H'00,H'00,
             0480801100 +                       H'00,H'00,H'00,H'00
             0200004102   
             08011E1E20   
             0404808013   
             FFF2000041   
             8608010C0C   
             2004048080   
             1100020000   
             40FC08010C   
             0C20040480   
             8010000200   
             0040000801   
             0C0C200403   
             0080100002   
             0000400008   
             0100002004   
             0000801000   
             0200007FFF   
             F801FFFFE0   
             07FFFF801F   
             FFFE000000   
             0000000000   
             0000000000   
             0000000000   
             0000000000   
             0000000000   
             0000000000   
             0000000000   
             0000000000   
             0000         
    00001136 0000000000             .DATA.B     H'00,H'00,H'00,H'00,H'00,H'00,H'00,H'00,H'00,H'00,H'00,H'00,H'00,H'00,H'00,H'00,
             0000000000 +                       H'00,H'00,H'00,H'00,H'00,H'7F,H'FF,H'F8,H'01,H'FF,H'FF,H'E0,H'07,H'FF,H'FF,H'80,
             0000000000 +                       H'1F,H'FF,H'FE,H'00,H'00,H'40,H'00,H'08,H'01,H'00,H'00,H'20,H'04,H'00,H'00,H'80,
             0000000000 +                       H'10,H'00,H'02,H'00,H'00,H'40,H'00,H'08,H'01,H'00,H'00,H'20,H'04,H'00,H'00,H'80,
             007FFFF801 +                       H'17,H'54,H'AA,H'00,H'00,H'40,H'04,H'08,H'01,H'00,H'00,H'20,H'04,H'00,H'00,H'80,
             FFFFE007FF +                       H'15,H'56,H'AA,H'00,H'00,H'40,H'04,H'08,H'01,H'00,H'00,H'20,H'04,H'FF,H'FC,H'80,




SH SERIES C/C++ Compiler (Ver. 6.0C)                                                                 30-Jan-2015 21:53:33  PAGE  190


SCT OFFSET   CODE       C LABEL     INSTRUCTION OPERAND    COMMENT

             FF801FFFFE +                       H'17,H'55,H'AA,H'00,H'00,H'41,H'C4,H'08,H'01,H'00,H'18,H'20,H'04,H'9F,H'E4,H'80,
             0000400008 +                       H'16,H'54,H'82,H'00,H'00,H'43,H'FF,H'08,H'01,H'00,H'18,H'20,H'04,H'5F,H'E8,H'80,
             0100002004 +                       H'15,H'74,H'AA,H'00,H'00,H'42,H'01,H'08,H'01,H'00,H'18,H'20,H'04,H'3F,H'F0,H'80,
             0000801000 +                       H'10,H'00,H'02,H'00,H'00,H'42,H'31,H'08,H'01,H'06,H'18,H'20,H'04,H'0F,H'C0,H'80,
             0200004000 +                       H'10,H'00,H'02,H'00,H'00,H'42,H'49,H'08,H'01,H'06,H'18,H'20,H'04,H'07,H'80,H'80,
             0801000020 +                       H'10,H'03,H'02,H'00,H'00,H'42,H'85,H'08,H'01,H'06,H'1B,H'20,H'04,H'03,H'00,H'80,
             0400008017 +                       H'10,H'03,H'82,H'00,H'00,H'42,H'85,H'08,H'01,H'06,H'1B,H'20,H'04,H'03,H'00,H'80,
             54AA000040 +                       H'11,H'FF,H'C2,H'00
             0408010000   
             2004000080   
             1556AA0000   
             4004080100   
             002004FFFC   
             801755AA00   
             0041C40801   
             001820049F   
             E480165482   
             000043FF08   
             0100182004   
             5FE8801574   
             AA00004201   
             0801001820   
             043FF08010   
             0002000042   
             3108010618   
             20040FC080   
             1000020000   
             4249080106   
             1820040780   
             8010030200   
             0042850801   
             061B200403   
             0080100382   
             0000428508   
             01061B2004   
             03008011FF   
             C200         
    0000120A 0042490801             .DATA.B     H'00,H'42,H'49,H'08,H'01,H'36,H'1B,H'20,H'04,H'03,H'00,H'80,H'11,H'FF,H'E2,H'00,
             361B200403 +                       H'00,H'42,H'31,H'08,H'01,H'36,H'1B,H'20,H'04,H'03,H'00,H'80,H'11,H'FF,H'E2,H'00,
             008011FFE2 +                       H'00,H'42,H'01,H'08,H'01,H'36,H'DB,H'20,H'04,H'0F,H'C0,H'80,H'11,H'FF,H'C2,H'00,
             0000423108 +                       H'00,H'43,H'FF,H'08,H'01,H'3F,H'FF,H'20,H'04,H'38,H'70,H'80,H'10,H'03,H'82,H'00,
             01361B2004 +                       H'00,H'40,H'00,H'08,H'01,H'00,H'00,H'20,H'04,H'3F,H'F0,H'80,H'10,H'03,H'02,H'00,
             03008011FF +                       H'00,H'40,H'00,H'08,H'01,H'00,H'00,H'20,H'04,H'00,H'00,H'80,H'10,H'00,H'02,H'00,
             E200004201 +                       H'00,H'40,H'00,H'08,H'01,H'00,H'00,H'20,H'04,H'00,H'00,H'80,H'10,H'00,H'02,H'00,
             080136DB20 +                       H'00,H'7F,H'FF,H'F8,H'01,H'FF,H'FF,H'E0,H'07,H'FF,H'FF,H'80,H'1F,H'FF,H'FE,H'00,
             040FC08011 +                       H'00,H'00,H'00,H'00,H'00,H'00,H'00,H'00,H'00,H'00,H'00,H'00,H'00,H'00,H'00,H'00,
             FFC2000043 +                       H'00,H'00,H'00,H'00,H'00,H'00,H'00,H'00,H'00,H'00,H'00,H'00,H'00,H'00,H'00,H'00,
             FF08013FFF +                       H'00,H'00,H'00,H'00,H'00,H'00,H'00,H'00,H'00,H'00,H'00,H'00,H'00,H'00,H'00,H'00
             2004387080   
             1003820000   
             4000080100   
             0020043FF0   
             8010030200   
             0040000801   
             0000200400   
             0080100002   
             0000400008   




SH SERIES C/C++ Compiler (Ver. 6.0C)                                                                 30-Jan-2015 21:53:33  PAGE  191


SCT OFFSET   CODE       C LABEL     INSTRUCTION OPERAND    COMMENT

             0100002004   
             0000801000   
             0200007FFF   
             F801FFFFE0   
             07FFFF801F   
             FFFE000000   
             0000000000   
             0000000000   
             0000000000   
             0000000000   
             0000000000   
             0000000000   
             0000000000   
             0000000000   
             0000000000   
             00           
    000012BA              __$menuMort:                     ; static: menuMort
    000012BA FFFFFFFFFF             .DATA.B     H'FF,H'FF,H'FF,H'FF,H'FF,H'FF,H'FF,H'FF,H'FF,H'FF,H'FF,H'FF,H'FF,H'FF,H'FF,H'FF,
             FFFFFFFFFF +                       H'FF,H'FF,H'FF,H'FF,H'FF,H'FF,H'FF,H'FF,H'FF,H'FF,H'FF,H'FF,H'FF,H'FF,H'FF,H'FF,
             FFFFFFFFFF +                       H'FF,H'FF,H'FF,H'FF,H'FF,H'FF,H'FF,H'FF,H'FF,H'FF,H'FF,H'FF,H'FF,H'FF,H'FF,H'FF,
             FFFFFFFFFF +                       H'E0,H'00,H'00,H'00,H'00,H'00,H'00,H'00,H'00,H'00,H'00,H'00,H'00,H'00,H'00,H'07,
             FFFFFFFFFF +                       H'E0,H'00,H'00,H'00,H'00,H'00,H'00,H'00,H'00,H'3F,H'FC,H'03,H'FF,H'C0,H'00,H'07,
             FFFFFFFFFF +                       H'E0,H'00,H'00,H'00,H'00,H'00,H'00,H'00,H'00,H'40,H'02,H'04,H'00,H'20,H'00,H'07,
             FFFFFFFFFF +                       H'E0,H'00,H'00,H'00,H'00,H'00,H'00,H'00,H'00,H'80,H'01,H'08,H'00,H'10,H'00,H'07,
             FFFFFFFFFF +                       H'E0,H'00,H'00,H'00,H'00,H'00,H'00,H'00,H'00,H'80,H'01,H'08,H'00,H'10,H'00,H'07,
             FFFFFFFFFF +                       H'E0,H'03,H'8E,H'38,H'E3,H'C0,H'00,H'00,H'00,H'80,H'01,H'08,H'00,H'10,H'00,H'07,
             FFFFFFE000 +                       H'E0,H'07,H'DF,H'7D,H'F7,H'C0,H'00,H'00,H'00,H'80,H'01,H'08,H'00,H'10,H'00,H'07,
             0000000000 +                       H'E0,H'06,H'18,H'7D,H'B6,H'00,H'00,H'00,H'00,H'80,H'01,H'08,H'00,H'10,H'00,H'07,
             0000000000 +                       H'E0,H'07,H'98,H'6D,H'F7,H'98,H'00,H'00,H'00,H'80,H'01,H'08,H'00,H'10,H'00,H'07,
             00000007E0 +                       H'E0,H'03,H'D8,H'6D,H'E7,H'98,H'00,H'00,H'00,H'80,H'01,H'08,H'00,H'10,H'00,H'07,
             0000000000 +                       H'E0,H'00,H'D8,H'7D
             0000003FFC   
             03FFC00007   
             E000000000   
             0000000040   
             0204002000   
             07E0000000   
             0000000000   
             8001080010   
             0007E00000   
             0000000000   
             0080010800   
             100007E003   
             8E38E3C000   
             0000800108   
             00100007E0   
             07DF7DF7C0   
             0000008001   
             0800100007   
             E006187DB6   
             0000000080   
             0108001000   
             07E007986D   
             F798000000   
             8001080010   
             0007E003D8   
             6DE7980000   




SH SERIES C/C++ Compiler (Ver. 6.0C)                                                                 30-Jan-2015 21:53:33  PAGE  192


SCT OFFSET   CODE       C LABEL     INSTRUCTION OPERAND    COMMENT

             0080010800   
             100007E000   
             D87D         
    0000138E F600000000             .DATA.B     H'F6,H'00,H'00,H'00,H'00,H'80,H'01,H'08,H'00,H'10,H'00,H'07,H'E0,H'07,H'DF,H'7D,
             8001080010 +                       H'B7,H'D8,H'00,H'00,H'00,H'80,H'01,H'08,H'00,H'10,H'00,H'07,H'E0,H'03,H'8E,H'39,
             0007E007DF +                       H'B3,H'D8,H'00,H'00,H'00,H'80,H'01,H'08,H'00,H'10,H'00,H'07,H'E0,H'00,H'00,H'00,
             7DB7D80000 +                       H'00,H'00,H'00,H'00,H'00,H'80,H'01,H'08,H'00,H'10,H'00,H'07,H'E0,H'00,H'00,H'00,
             0080010800 +                       H'00,H'00,H'00,H'00,H'00,H'80,H'01,H'08,H'00,H'10,H'00,H'07,H'E0,H'00,H'00,H'00,
             100007E003 +                       H'00,H'00,H'00,H'00,H'00,H'40,H'02,H'04,H'00,H'20,H'00,H'07,H'E0,H'00,H'00,H'00,
             8E39B3D800 +                       H'00,H'00,H'00,H'00,H'00,H'3F,H'FC,H'03,H'FF,H'C0,H'00,H'07,H'E0,H'00,H'00,H'00,
             0000800108 +                       H'00,H'00,H'00,H'00,H'00,H'00,H'00,H'00,H'00,H'00,H'00,H'07,H'E0,H'00,H'00,H'00,
             00100007E0 +                       H'00,H'00,H'00,H'00,H'00,H'00,H'00,H'00,H'00,H'00,H'00,H'07,H'E0,H'00,H'00,H'00,
             0000000000 +                       H'00,H'00,H'00,H'00,H'00,H'1C,H'CE,H'3B,H'FE,H'E0,H'00,H'07,H'E0,H'00,H'00,H'00,
             0000008001 +                       H'00,H'00,H'00,H'00,H'00,H'21,H'29,H'42,H'09,H'00,H'00,H'07,H'E0,H'00,H'00,H'00,
             0800100007 +                       H'00,H'00,H'00,H'00,H'00,H'21,H'E9,H'43,H'88,H'C0,H'00,H'07,H'E0,H'00,H'00,H'00,
             E000000000 +                       H'00,H'00,H'00,H'00,H'00,H'25,H'29,H'4A,H'08,H'20,H'00,H'07,H'E0,H'00,H'00,H'00,
             0000000080 +                       H'00,H'00,H'00,H'00
             0108001000   
             07E0000000   
             0000000000   
             4002040020   
             0007E00000   
             0000000000   
             003FFC03FF   
             C00007E000   
             0000000000   
             0000000000   
             00000007E0   
             0000000000   
             0000000000   
             0000000007   
             E000000000   
             000000001C   
             CE3BFEE000   
             07E0000000   
             0000000000   
             2129420900   
             0007E00000   
             0000000000   
             0021E94388   
             C00007E000   
             0000000000   
             000025294A   
             08200007E0   
             0000000000   
             0000         
    00001462 001D2E3BC9             .DATA.B     H'00,H'1D,H'2E,H'3B,H'C9,H'C0,H'00,H'07,H'E0,H'00,H'00,H'00,H'00,H'00,H'00,H'00,
             C00007E000 +                       H'00,H'00,H'00,H'00,H'00,H'00,H'00,H'07,H'E0,H'00,H'00,H'00,H'00,H'00,H'00,H'00,
             0000000000 +                       H'00,H'00,H'00,H'00,H'00,H'00,H'00,H'07,H'E0,H'00,H'00,H'00,H'00,H'00,H'00,H'1F,
             0000000000 +                       H'FF,H'FF,H'FF,H'FF,H'FF,H'FF,H'FF,H'87,H'E0,H'00,H'00,H'00,H'00,H'00,H'00,H'10,
             00000007E0 +                       H'00,H'00,H'00,H'00,H'00,H'00,H'00,H'87,H'E0,H'00,H'00,H'00,H'00,H'00,H'00,H'10,
             0000000000 +                       H'00,H'00,H'00,H'00,H'00,H'00,H'00,H'87,H'E0,H'00,H'00,H'00,H'00,H'00,H'00,H'13,
             0000000000 +                       H'07,H'07,H'30,H'73,H'33,H'9B,H'3C,H'87,H'E0,H'00,H'00,H'00,H'00,H'00,H'00,H'13,
             0000000007 +                       H'0F,H'8F,H'B0,H'FB,H'37,H'DB,H'7C,H'87,H'E0,H'00,H'00,H'00,H'00,H'00,H'00,H'13,
             E000000000 +                       H'0D,H'8D,H'B0,H'DB,H'B7,H'DB,H'60,H'87,H'E0,H'00,H'00,H'00,H'00,H'00,H'00,H'13,
             00001FFFFF +                       H'0D,H'8F,H'B0,H'DB,H'F6,H'DB,H'78,H'87,H'E0,H'00,H'00,H'00,H'00,H'00,H'00,H'13,
             FFFFFFFFFF +                       H'0F,H'8F,H'30,H'FB,H'F6,H'DB,H'78,H'87,H'E0,H'00,H'00,H'00,H'00,H'00,H'00,H'13,




SH SERIES C/C++ Compiler (Ver. 6.0C)                                                                 30-Jan-2015 21:53:33  PAGE  193


SCT OFFSET   CODE       C LABEL     INSTRUCTION OPERAND    COMMENT

             87E0000000 +                       H'0F,H'8C,H'30,H'FB,H'77,H'DB,H'60,H'87,H'E0,H'00,H'00,H'00,H'00,H'00,H'00,H'13,
             0000001000 +                       H'ED,H'8C,H'3E,H'DB,H'37,H'DF,H'7C,H'87,H'E0,H'00,H'00,H'00,H'00,H'00,H'00,H'11,
             0000000000 +                       H'ED,H'8C,H'1E,H'DB
             0087E00000   
             0000000010   
             0000000000   
             000087E000   
             0000000000   
             1307073073   
             339B3C87E0   
             0000000000   
             00130F8FB0   
             FB37DB7C87   
             E000000000   
             0000130D8D   
             B0DBB7DB60   
             87E0000000   
             000000130D   
             8FB0DBF6DB   
             7887E00000   
             0000000013   
             0F8F30FBF6   
             DB7887E000   
             0000000000   
             130F8C30FB   
             77DB6087E0   
             0000000000   
             0013ED8C3E   
             DB37DF7C87   
             E000000000   
             000011ED8C   
             1EDB         
    00001536 33CE3C87E0             .DATA.B     H'33,H'CE,H'3C,H'87,H'E0,H'00,H'00,H'00,H'00,H'00,H'00,H'10,H'00,H'00,H'00,H'00,
             0000000000 +                       H'00,H'E0,H'00,H'87,H'E0,H'00,H'00,H'00,H'00,H'00,H'00,H'10,H'00,H'00,H'00,H'00,
             0010000000 +                       H'00,H'00,H'00,H'87,H'E0,H'00,H'00,H'00,H'00,H'00,H'00,H'1F,H'FF,H'FF,H'FF,H'FF,
             0000E00087 +                       H'FF,H'FF,H'FF,H'87,H'E0,H'00,H'00,H'00,H'00,H'00,H'00,H'00,H'00,H'00,H'00,H'00,
             E000000000 +                       H'00,H'00,H'00,H'07,H'E0,H'00,H'00,H'00,H'00,H'00,H'00,H'00,H'00,H'00,H'00,H'00,
             0000100000 +                       H'00,H'00,H'00,H'07,H'E0,H'00,H'00,H'00,H'00,H'00,H'00,H'00,H'00,H'00,H'00,H'00,
             0000000000 +                       H'00,H'00,H'00,H'07,H'E0,H'00,H'00,H'00,H'00,H'00,H'00,H'1F,H'FF,H'FF,H'FF,H'FF,
             87E0000000 +                       H'FF,H'FF,H'FF,H'87,H'E0,H'00,H'00,H'00,H'00,H'00,H'00,H'10,H'00,H'00,H'00,H'00,
             0000001FFF +                       H'00,H'00,H'00,H'87,H'E0,H'00,H'00,H'00,H'00,H'00,H'00,H'10,H'00,H'00,H'00,H'00,
             FFFFFFFFFF +                       H'00,H'00,H'00,H'87,H'E0,H'00,H'00,H'00,H'00,H'00,H'00,H'10,H'01,H'C7,H'86,H'73,
             FF87E00000 +                       H'67,H'9C,H'00,H'87,H'E0,H'00,H'00,H'00,H'00,H'00,H'00,H'10,H'03,H'EF,H'86,H'FB,
             0000000000 +                       H'6F,H'BE,H'00,H'87,H'E0,H'00,H'00,H'00,H'00,H'00,H'00,H'10,H'03,H'6C,H'06,H'FB,
             0000000000 +                       H'6C,H'36,H'00,H'87,H'E0,H'00,H'00,H'00,H'00,H'00,H'00,H'10,H'03,H'EF,H'06,H'DB,
             000007E000 +                       H'6F,H'3E,H'00,H'87
             0000000000   
             0000000000   
             00000007E0   
             0000000000   
             0000000000   
             0000000007   
             E000000000   
             00001FFFFF   
             FFFFFFFFFF   
             87E0000000   
             0000001000   




SH SERIES C/C++ Compiler (Ver. 6.0C)                                                                 30-Jan-2015 21:53:33  PAGE  194


SCT OFFSET   CODE       C LABEL     INSTRUCTION OPERAND    COMMENT

             0000000000   
             0087E00000   
             0000000010   
             0000000000   
             000087E000   
             0000000000   
             1001C78673   
             679C0087E0   
             0000000000   
             001003EF86   
             FB6FBE0087   
             E000000000   
             000010036C   
             06FB6C3600   
             87E0000000   
             0000001003   
             EF06DB6F3E   
             0087         
    0000160A E000000000             .DATA.B     H'E0,H'00,H'00,H'00,H'00,H'00,H'00,H'10,H'03,H'CF,H'06,H'DB,H'6F,H'3C,H'00,H'87,
             00001003CF +                       H'E0,H'00,H'00,H'00,H'00,H'00,H'00,H'10,H'03,H'EC,H'06,H'FB,H'6C,H'3E,H'00,H'87,
             06DB6F3C00 +                       H'E0,H'00,H'00,H'00,H'00,H'00,H'00,H'10,H'03,H'6F,H'BE,H'FB,H'EF,H'B6,H'00,H'87,
             87E0000000 +                       H'E0,H'00,H'00,H'00,H'00,H'00,H'00,H'10,H'03,H'67,H'9C,H'71,H'C7,H'B6,H'00,H'87,
             0000001003 +                       H'E0,H'00,H'00,H'00,H'00,H'00,H'00,H'10,H'00,H'00,H'00,H'00,H'00,H'00,H'00,H'87,
             EC06FB6C3E +                       H'E0,H'00,H'00,H'00,H'00,H'00,H'00,H'10,H'00,H'00,H'00,H'00,H'00,H'00,H'00,H'87,
             0087E00000 +                       H'E0,H'00,H'00,H'00,H'00,H'00,H'00,H'1F,H'FF,H'FF,H'FF,H'FF,H'FF,H'FF,H'FF,H'87,
             0000000010 +                       H'E0,H'00,H'00,H'00,H'00,H'00,H'00,H'00,H'00,H'00,H'00,H'00,H'00,H'00,H'00,H'07,
             036FBEFBEF +                       H'FF,H'FF,H'FF,H'FF,H'FF,H'FF,H'FF,H'FF,H'FF,H'FF,H'FF,H'FF,H'FF,H'FF,H'FF,H'FF,
             B60087E000 +                       H'FF,H'FF,H'FF,H'FF,H'FF,H'FF,H'FF,H'FF,H'FF,H'FF,H'FF,H'FF,H'FF,H'FF,H'FF,H'FF,
             0000000000 +                       H'FF,H'FF,H'FF,H'FF,H'FF,H'FF,H'FF,H'FF,H'FF,H'FF,H'FF,H'FF,H'FF,H'FF,H'FF,H'FF
             1003679C71   
             C7B60087E0   
             0000000000   
             0010000000   
             0000000087   
             E000000000   
             0000100000   
             0000000000   
             87E0000000   
             0000001FFF   
             FFFFFFFFFF   
             FF87E00000   
             0000000000   
             0000000000   
             000007FFFF   
             FFFFFFFFFF   
             FFFFFFFFFF   
             FFFFFFFFFF   
             FFFFFFFFFF   
             FFFFFFFFFF   
             FFFFFFFFFF   
             FFFFFFFFFF   
             FFFFFFFFFF   
             FFFFFFFFFF   
             FF           
    000016BA              __$gadgetTop:                    ; static: gadgetTop
    000016BA FFFFFFFFFF             .DATA.B     H'FF,H'FF,H'FF,H'FF,H'FF,H'FF,H'FF,H'FF,H'FF,H'FF,H'FF,H'FF,H'FF,H'FF,H'FF,H'FF,
             FFFFFFFFFF +                       H'FF,H'FF,H'FF,H'FF,H'FF,H'FF,H'FF,H'FF,H'FE,H'00,H'1C,H'00,H'3F,H'FF,H'FF,H'FF,




SH SERIES C/C++ Compiler (Ver. 6.0C)                                                                 30-Jan-2015 21:53:33  PAGE  195


SCT OFFSET   CODE       C LABEL     INSTRUCTION OPERAND    COMMENT

             FFFFFFFFFF +                       H'FF,H'FF,H'FF,H'FF,H'FF,H'FF,H'FF,H'FF,H'FC,H'00,H'08,H'00,H'1F,H'FF,H'FF,H'FF,
             FFFFFFFFFF +                       H'FF,H'FF,H'FF,H'F1,H'C6,H'1C,H'70,H'81,H'8C,H'00,H'08,H'00,H'1F,H'FF,H'FF,H'FF,
             FFFFFFFFFE +                       H'FF,H'FF,H'FF,H'E0,H'82,H'08,H'20,H'81,H'04,H'00,H'08,H'00,H'1F,H'FF,H'FF,H'FF,
             001C003FFF +                       H'FF,H'FF,H'FF,H'E7,H'92,H'49,H'E7,H'E7,H'3C,H'00,H'08,H'00,H'1F,H'FF,H'FF,H'FF,
             FFFFFFFFFF +                       H'FF,H'FF,H'FF,H'E7,H'92,H'49,H'E1,H'E7,H'0C,H'00,H'08,H'00,H'1F,H'FF,H'FF,H'FF,
             FFFFFFFFFF +                       H'FF,H'FF,H'FF,H'E4,H'82,H'49,H'21,H'E7,H'84,H'00,H'08,H'00,H'1F,H'FF,H'FF,H'FF,
             FC0008001F +                       H'FF,H'FF,H'FF,H'E4,H'82,H'49,H'27,H'E7,H'E4,H'00,H'08,H'00,H'1F,H'FF,H'FF,H'FF,
             FFFFFFFFFF +                       H'FF,H'FF,H'FF,H'E0,H'92,H'08,H'20,H'E7,H'04,H'00,H'08,H'00,H'1F,H'FF,H'FF,H'FF,
             FFF1C61C70 +                       H'00,H'00,H'00,H'F1,H'92,H'1C,H'70,H'E7,H'8C,H'00,H'08,H'00,H'1F,H'00,H'00,H'00,
             818C000800 +                       H'00,H'00,H'00,H'7F,H'FF,H'FF,H'FF,H'FF,H'FC,H'00,H'08,H'00,H'1E,H'00,H'00,H'00,
             1FFFFFFFFF +                       H'00,H'00,H'00,H'3F,H'FF,H'FF,H'FF,H'FF,H'FC,H'00,H'08,H'00,H'1C,H'00,H'00,H'00,
             FFFFE08208 +                       H'00,H'00,H'00,H'1F
             2081040008   
             001FFFFFFF   
             FFFFFFE792   
             49E7E73C00   
             08001FFFFF   
             FFFFFFFFE7   
             9249E1E70C   
             0008001FFF   
             FFFFFFFFFF   
             E4824921E7   
             840008001F   
             FFFFFFFFFF   
             FFE4824927   
             E7E4000800   
             1FFFFFFFFF   
             FFFFE09208   
             20E7040008   
             001FFFFFFF   
             000000F192   
             1C70E78C00   
             08001F0000   
             000000007F   
             FFFFFFFFFC   
             0008001E00   
             0000000000   
             3FFFFFFFFF   
             FC0008001C   
             0000000000   
             001F         
    0000178E FFFFFFFFFC             .DATA.B     H'FF,H'FF,H'FF,H'FF,H'FC,H'00,H'08,H'00,H'18,H'00,H'00,H'00,H'00,H'00,H'00,H'00,
             0008001800 +                       H'00,H'00,H'00,H'00,H'02,H'00,H'14,H'00,H'20,H'00,H'00,H'00,H'00,H'00,H'00,H'00,
             0000000000 +                       H'00,H'00,H'00,H'00,H'01,H'FF,H'E3,H'FF,H'C0,H'00,H'00,H'00
             0000000000   
             0200140020   
             0000000000   
             0000000000   
             0001FFE3FF   
             C0000000     
    000017BA              __$tenuesTop:                    ; static: tenuesTop
    000017BA FFFFFFFFFF             .DATA.B     H'FF,H'FF,H'FF,H'FF,H'FF,H'FF,H'FF,H'FF,H'FF,H'FF,H'FF,H'FF,H'FF,H'FF,H'FF,H'FF,
             FFFFFFFFFF +                       H'FF,H'FF,H'FF,H'FF,H'FF,H'FF,H'FF,H'FF,H'FF,H'FF,H'00,H'0F,H'FF,H'FF,H'FF,H'FF,
             FFFFFFFFFF +                       H'FF,H'FF,H'FF,H'FF,H'FF,H'FF,H'FF,H'FF,H'FF,H'FE,H'00,H'07,H'FF,H'FF,H'FF,H'FF,
             FFFFFFFFFF +                       H'FF,H'FF,H'FF,H'FF,H'81,H'84,H'C9,H'30,H'C7,H'FE,H'00,H'07,H'FF,H'FF,H'FF,H'FF,
             FFFFFFFFFF +                       H'FF,H'FF,H'FF,H'FF,H'81,H'04,H'C9,H'20,H'83,H'FE,H'00,H'07,H'FF,H'FF,H'FF,H'FF,
             FF000FFFFF +                       H'FF,H'FF,H'FF,H'FF,H'E7,H'3C,H'49,H'27,H'9F,H'FE,H'00,H'07,H'FF,H'FF,H'FF,H'FF,




SH SERIES C/C++ Compiler (Ver. 6.0C)                                                                 30-Jan-2015 21:53:33  PAGE  196


SCT OFFSET   CODE       C LABEL     INSTRUCTION OPERAND    COMMENT

             FFFFFFFFFF +                       H'FF,H'FF,H'FF,H'FF,H'E7,H'0C,H'09,H'21,H'87,H'FE,H'00,H'07,H'FF,H'FF,H'FF,H'FF,
             FFFFFFFFFF +                       H'FF,H'FF,H'FF,H'FF,H'E7,H'0C,H'09,H'21,H'C3,H'FE,H'00,H'07,H'FF,H'FF,H'FF,H'FF,
             FFFE0007FF +                       H'FF,H'FF,H'FF,H'FF,H'E7,H'3C,H'89,H'27,H'F3,H'FE,H'00,H'07,H'FF,H'FF,H'FF,H'FF,
             FFFFFFFFFF +                       H'FF,H'FF,H'FF,H'FF,H'E7,H'04,H'C8,H'20,H'83,H'FE,H'00,H'07,H'FF,H'FF,H'FF,H'FF,
             FFFF8184C9 +                       H'00,H'00,H'00,H'FF,H'E7,H'84,H'CC,H'70,H'C7,H'FE,H'00,H'07,H'FF,H'00,H'00,H'00,
             30C7FE0007 +                       H'00,H'00,H'00,H'7F,H'FF,H'FF,H'FF,H'FF,H'FF,H'FE,H'00,H'07,H'FE,H'00,H'00,H'00,
             FFFFFFFFFF +                       H'00,H'00,H'00,H'3F,H'FF,H'FF,H'FF,H'FF,H'FF,H'FE,H'00,H'07,H'FC,H'00,H'00,H'00,
             FFFFFF8104 +                       H'00,H'00,H'00,H'1F
             C92083FE00   
             07FFFFFFFF   
             FFFFFFFFE7   
             3C49279FFE   
             0007FFFFFF   
             FFFFFFFFFF   
             E70C092187   
             FE0007FFFF   
             FFFFFFFFFF   
             FFE70C0921   
             C3FE0007FF   
             FFFFFFFFFF   
             FFFFE73C89   
             27F3FE0007   
             FFFFFFFFFF   
             FFFFFFE704   
             C82083FE00   
             07FFFFFFFF   
             000000FFE7   
             84CC70C7FE   
             0007FF0000   
             000000007F   
             FFFFFFFFFF   
             FE0007FE00   
             0000000000   
             3FFFFFFFFF   
             FFFE0007FC   
             0000000000   
             001F         
    0000188E FFFFFFFFFF             .DATA.B     H'FF,H'FF,H'FF,H'FF,H'FF,H'FE,H'00,H'07,H'F8,H'00,H'00,H'00,H'00,H'00,H'00,H'00,
             FE0007F800 +                       H'00,H'00,H'00,H'00,H'00,H'01,H'00,H'08,H'00,H'00,H'00,H'00,H'00,H'00,H'00,H'00,
             0000000000 +                       H'00,H'00,H'00,H'00,H'00,H'00,H'FF,H'F0,H'00,H'00,H'00,H'00
             0000000000   
             0001000800   
             0000000000   
             0000000000   
             000000FFF0   
             00000000     
    000018BA              __$jetpacksTop:                  ; static: jetpacksTop
    000018BA FFFFFFFFFF             .DATA.B     H'FF,H'FF,H'FF,H'FF,H'FF,H'FF,H'FF,H'FF,H'FF,H'FF,H'FF,H'FF,H'FF,H'FF,H'FF,H'FF,
             FFFFFFFFFF +                       H'FF,H'FF,H'FF,H'FF,H'FF,H'FF,H'FF,H'FF,H'FF,H'FF,H'F8,H'00,H'7F,H'FF,H'FF,H'FF,
             FFFFFFFFFF +                       H'FF,H'FF,H'FF,H'FF,H'FF,H'FF,H'FF,H'FF,H'FF,H'FF,H'F0,H'00,H'3F,H'FF,H'FF,H'FF,
             FFFFFFFFFF +                       H'FF,H'FF,H'FF,H'FF,H'98,H'40,H'C7,H'1C,H'64,H'C7,H'F0,H'00,H'3F,H'FF,H'FF,H'FF,
             FFFFFFFFFF +                       H'FF,H'FF,H'FF,H'FF,H'90,H'40,H'82,H'08,H'24,H'83,H'F0,H'00,H'3F,H'FF,H'FF,H'FF,
             FFF8007FFF +                       H'FF,H'FF,H'FF,H'FF,H'93,H'F3,H'92,H'49,H'E4,H'9F,H'F0,H'00,H'3F,H'FF,H'FF,H'FF,
             FFFFFFFFFF +                       H'FF,H'FF,H'FF,H'FF,H'90,H'F3,H'82,H'49,H'E1,H'87,H'F0,H'00,H'3F,H'FF,H'FF,H'FF,
             FFFFFFFFFF +                       H'FF,H'FF,H'FF,H'FF,H'90,H'F3,H'86,H'09,H'E1,H'C3,H'F0,H'00,H'3F,H'FF,H'FF,H'FF,
             FFFFF0003F +                       H'FF,H'FF,H'FF,H'FF,H'93,H'F3,H'9E,H'09,H'E4,H'F3,H'F0,H'00,H'3F,H'FF,H'FF,H'FF,
             FFFFFFFFFF +                       H'FF,H'FF,H'FF,H'FC,H'10,H'73,H'9E,H'48,H'24,H'83,H'F0,H'00,H'3F,H'FF,H'FF,H'FF,




SH SERIES C/C++ Compiler (Ver. 6.0C)                                                                 30-Jan-2015 21:53:33  PAGE  197


SCT OFFSET   CODE       C LABEL     INSTRUCTION OPERAND    COMMENT

             FFFF9840C7 +                       H'00,H'00,H'00,H'FE,H'38,H'73,H'9E,H'4C,H'64,H'C7,H'F0,H'00,H'3F,H'00,H'00,H'00,
             1C64C7F000 +                       H'00,H'00,H'00,H'7F,H'FF,H'FF,H'FF,H'FF,H'FF,H'FF,H'F0,H'00,H'3E,H'00,H'00,H'00,
             3FFFFFFFFF +                       H'00,H'00,H'00,H'3F,H'FF,H'FF,H'FF,H'FF,H'FF,H'FF,H'F0,H'00,H'3C,H'00,H'00,H'00,
             FFFFFF9040 +                       H'00,H'00,H'00,H'1F
             82082483F0   
             003FFFFFFF   
             FFFFFFFF93   
             F39249E49F   
             F0003FFFFF   
             FFFFFFFFFF   
             90F38249E1   
             87F0003FFF   
             FFFFFFFFFF   
             FF90F38609   
             E1C3F0003F   
             FFFFFFFFFF   
             FFFF93F39E   
             09E4F3F000   
             3FFFFFFFFF   
             FFFFFC1073   
             9E482483F0   
             003FFFFFFF   
             000000FE38   
             739E4C64C7   
             F0003F0000   
             000000007F   
             FFFFFFFFFF   
             FFF0003E00   
             0000000000   
             3FFFFFFFFF   
             FFFFF0003C   
             0000000000   
             001F         
    0000198E FFFFFFFFFF             .DATA.B     H'FF,H'FF,H'FF,H'FF,H'FF,H'FF,H'F0,H'00,H'38,H'00,H'00,H'00,H'00,H'00,H'00,H'00,
             FFF0003800 +                       H'00,H'00,H'00,H'00,H'00,H'00,H'08,H'00,H'40,H'00,H'00,H'00,H'00,H'00,H'00,H'00,
             0000000000 +                       H'00,H'00,H'00,H'00,H'00,H'00,H'07,H'FF,H'80,H'00,H'00,H'00
             0000000000   
             0000080040   
             0000000000   
             0000000000   
             00000007FF   
             80000000     
    000019BA              __$ameliorationsTop:             ; static: ameliorationsTop
    000019BA FFFFFFFFFF             .DATA.B     H'FF,H'FF,H'FF,H'FF,H'FF,H'FF,H'FF,H'FF,H'FF,H'FF,H'FF,H'FF,H'FF,H'FF,H'FF,H'FF,
             FFFFFFFFFF +                       H'FF,H'FF,H'FF,H'FF,H'FF,H'FF,H'FF,H'FF,H'FF,H'FF,H'FF,H'FF,H'FF,H'FF,H'FF,H'FF,
             FFFFFFFFFF +                       H'FF,H'FF,H'FF,H'FF,H'FF,H'FF,H'FF,H'FF,H'FF,H'FF,H'FF,H'FF,H'FF,H'FF,H'FF,H'FF,
             FFFFFFFFFF +                       H'FF,H'FF,H'FF,H'E3,H'93,H'84,H'F3,H'1C,H'71,H'81,H'31,H'99,H'8F,H'FF,H'FF,H'FF,
             FFFFFFFFFF +                       H'FF,H'FF,H'FF,H'C1,H'01,H'04,H'F2,H'08,H'20,H'81,H'20,H'99,H'07,H'FF,H'FF,H'FF,
             FFFFFFFFFF +                       H'FF,H'FF,H'FF,H'C9,H'29,H'3C,H'F2,H'49,H'24,H'E7,H'24,H'89,H'3F,H'FF,H'FF,H'FF,
             FFFFFFFFFF +                       H'FF,H'FF,H'FF,H'C9,H'29,H'0C,H'F2,H'48,H'24,H'E7,H'24,H'81,H'0F,H'FF,H'FF,H'FF,
             FFFFFFFFFF +                       H'FF,H'FF,H'FF,H'C1,H'29,H'0C,H'F2,H'48,H'60,H'E7,H'24,H'81,H'87,H'FF,H'FF,H'FF,
             FFFFFFFFFF +                       H'FF,H'FF,H'FF,H'C1,H'39,H'3C,H'F2,H'48,H'20,H'E7,H'24,H'91,H'E7,H'FF,H'FF,H'FF,
             FFFFFFFFFF +                       H'FF,H'FF,H'FF,H'C9,H'39,H'04,H'12,H'09,H'24,H'E7,H'20,H'99,H'07,H'FF,H'FF,H'FF,
             FFE39384F3 +                       H'00,H'00,H'03,H'C9,H'39,H'86,H'13,H'19,H'24,H'E7,H'31,H'99,H'8F,H'80,H'00,H'00,
             1C71813199 +                       H'00,H'00,H'01,H'FF,H'FF,H'FF,H'FF,H'FF,H'FF,H'FF,H'FF,H'FF,H'FF,H'00,H'00,H'00,
             8FFFFFFFFF +                       H'00,H'00,H'00,H'FF,H'FF,H'FF,H'FF,H'FF,H'FF,H'FF,H'FF,H'FF,H'FE,H'00,H'00,H'00,
             FFFFC10104 +                       H'00,H'00,H'00,H'7F




SH SERIES C/C++ Compiler (Ver. 6.0C)                                                                 30-Jan-2015 21:53:33  PAGE  198


SCT OFFSET   CODE       C LABEL     INSTRUCTION OPERAND    COMMENT

             F208208120   
             9907FFFFFF   
             FFFFFFC929   
             3CF24924E7   
             24893FFFFF   
             FFFFFFFFC9   
             290CF24824   
             E724810FFF   
             FFFFFFFFFF   
             C1290CF248   
             60E7248187   
             FFFFFFFFFF   
             FFC1393CF2   
             4820E72491   
             E7FFFFFFFF   
             FFFFC93904   
             120924E720   
             9907FFFFFF   
             000003C939   
             86131924E7   
             31998F8000   
             00000001FF   
             FFFFFFFFFF   
             FFFFFFFF00   
             0000000000   
             FFFFFFFFFF   
             FFFFFFFFFE   
             0000000000   
             007F         
    00001A8E FFFFFFFFFF             .DATA.B     H'FF,H'FF,H'FF,H'FF,H'FF,H'FF,H'FF,H'FF,H'FC,H'00,H'00,H'00,H'00,H'00,H'00,H'00,
             FFFFFFFC00 +                       H'00,H'00,H'00,H'00,H'00,H'00,H'00,H'00,H'00,H'00,H'00,H'00,H'00,H'00,H'00,H'00,
             0000000000 +                       H'00,H'00,H'00,H'00,H'00,H'00,H'00,H'00,H'00,H'00,H'00,H'00
             0000000000   
             0000000000   
             0000000000   
             0000000000   
             0000000000   
             00000000     
    00001ABA              __$statistiquesTop:              ; static: statistiquesTop
    00001ABA FFFFFFFFFF             .DATA.B     H'FF,H'FF,H'FF,H'FF,H'FF,H'FF,H'FF,H'FF,H'FF,H'FF,H'FF,H'FF,H'FF,H'FF,H'FF,H'FF,
             FFFFFFFFFF +                       H'FF,H'FF,H'FF,H'FF,H'FF,H'FF,H'FF,H'FF,H'FF,H'FF,H'FF,H'FF,H'FF,H'FF,H'FF,H'FF,
             FFFFFFFFFF +                       H'FF,H'FF,H'FF,H'FF,H'FF,H'FF,H'FF,H'FF,H'FF,H'FF,H'FF,H'FF,H'FF,H'FF,H'FF,H'FF,
             FFFFFFFFFF +                       H'FF,H'FF,H'FF,H'FC,H'60,H'63,H'02,H'63,H'02,H'63,H'93,H'0C,H'7F,H'FF,H'FF,H'FF,
             FFFFFFFFFF +                       H'FF,H'FF,H'FF,H'F8,H'20,H'41,H'02,H'41,H'02,H'41,H'92,H'08,H'3F,H'FF,H'FF,H'FF,
             FFFFFFFFFF +                       H'FF,H'FF,H'FF,H'F9,H'F9,H'C9,H'CE,H'4F,H'CE,H'41,H'92,H'79,H'FF,H'FF,H'FF,H'FF,
             FFFFFFFFFF +                       H'FF,H'FF,H'FF,H'F8,H'79,H'C9,H'CE,H'43,H'CE,H'49,H'92,H'18,H'7F,H'FF,H'FF,H'FF,
             FFFFFFFFFF +                       H'FF,H'FF,H'FF,H'FC,H'39,H'C1,H'CE,H'61,H'CE,H'49,H'92,H'1C,H'3F,H'FF,H'FF,H'FF,
             FFFFFFFFFF +                       H'FF,H'FF,H'FF,H'FF,H'39,H'C1,H'CE,H'79,H'CE,H'41,H'92,H'7F,H'3F,H'FF,H'FF,H'FF,
             FFFFFFFFFF +                       H'FF,H'FF,H'FF,H'F8,H'39,H'C9,H'CE,H'41,H'CE,H'41,H'82,H'08,H'3F,H'FF,H'FF,H'FF,
             FFFC606302 +                       H'00,H'00,H'03,H'FC,H'79,H'C9,H'CE,H'63,H'CE,H'61,H'C7,H'0C,H'7F,H'80,H'00,H'00,
             630263930C +                       H'00,H'00,H'01,H'FF,H'FF,H'FF,H'FF,H'FF,H'FF,H'F8,H'FF,H'FF,H'FF,H'00,H'00,H'00,
             7FFFFFFFFF +                       H'00,H'00,H'00,H'FF,H'FF,H'FF,H'FF,H'FF,H'FF,H'FF,H'FF,H'FF,H'FE,H'00,H'00,H'00,
             FFFFF82041 +                       H'00,H'00,H'00,H'7F
             0241024192   
             083FFFFFFF   
             FFFFFFF9F9   
             C9CE4FCE41   




SH SERIES C/C++ Compiler (Ver. 6.0C)                                                                 30-Jan-2015 21:53:33  PAGE  199


SCT OFFSET   CODE       C LABEL     INSTRUCTION OPERAND    COMMENT

             9279FFFFFF   
             FFFFFFFFF8   
             79C9CE43CE   
             4992187FFF   
             FFFFFFFFFF   
             FC39C1CE61   
             CE49921C3F   
             FFFFFFFFFF   
             FFFF39C1CE   
             79CE41927F   
             3FFFFFFFFF   
             FFFFF839C9   
             CE41CE4182   
             083FFFFFFF   
             000003FC79   
             C9CE63CE61   
             C70C7F8000   
             00000001FF   
             FFFFFFFFFF   
             F8FFFFFF00   
             0000000000   
             FFFFFFFFFF   
             FFFFFFFFFE   
             0000000000   
             007F         
    00001B8E FFFFFFFFFF             .DATA.B     H'FF,H'FF,H'FF,H'FF,H'FF,H'FF,H'FF,H'FF,H'FC,H'00,H'00,H'00,H'00,H'00,H'00,H'00,
             FFFFFFFC00 +                       H'00,H'00,H'00,H'00,H'00,H'00,H'00,H'00,H'00,H'00,H'00,H'00,H'00,H'00,H'00,H'00,
             0000000000 +                       H'00,H'00,H'00,H'00,H'00,H'00,H'00,H'00,H'00,H'00,H'00,H'00
             0000000000   
             0000000000   
             0000000000   
             0000000000   
             0000000000   
             00000000     
    00001BBA              __$succesTop:                    ; static: succesTop
    00001BBA FFFFFFFFFF             .DATA.B     H'FF,H'FF,H'FF,H'FF,H'FF,H'FF,H'FF,H'FF,H'FF,H'FF,H'FF,H'FF,H'FF,H'FF,H'FF,H'FF,
             FFFFFFFFFF +                       H'FF,H'FF,H'FF,H'FF,H'FF,H'FF,H'FF,H'FF,H'FF,H'FF,H'FF,H'FF,H'FF,H'FF,H'FF,H'FF,
             FFFFFFFFFF +                       H'FF,H'FF,H'FF,H'FF,H'FF,H'FF,H'FF,H'FF,H'FF,H'FF,H'FF,H'FF,H'FF,H'FF,H'FF,H'FF,
             FFFFFFFFFF +                       H'FF,H'FF,H'FF,H'FF,H'FF,H'FF,H'19,H'31,H'C7,H'0C,H'7F,H'FF,H'FF,H'FF,H'FF,H'FF,
             FFFFFFFFFF +                       H'FF,H'FF,H'FF,H'FF,H'FF,H'FE,H'09,H'20,H'82,H'08,H'3F,H'FF,H'FF,H'FF,H'FF,H'FF,
             FFFFFFFFFF +                       H'FF,H'FF,H'FF,H'FF,H'FF,H'FE,H'79,H'27,H'9E,H'79,H'FF,H'FF,H'FF,H'FF,H'FF,H'FF,
             FFFFFFFFFF +                       H'FF,H'FF,H'FF,H'FF,H'FF,H'FE,H'19,H'27,H'9E,H'18,H'7F,H'FF,H'FF,H'FF,H'FF,H'FF,
             FFFFFFFFFF +                       H'FF,H'FF,H'FF,H'FF,H'FF,H'FF,H'09,H'27,H'9E,H'1C,H'3F,H'FF,H'FF,H'FF,H'FF,H'FF,
             FFFFFFFFFF +                       H'FF,H'FF,H'FF,H'FF,H'FF,H'FF,H'C9,H'27,H'9E,H'7F,H'3F,H'FF,H'FF,H'FF,H'FF,H'FF,
             FFFFFFFFFF +                       H'FF,H'FF,H'FF,H'FF,H'FF,H'FE,H'08,H'20,H'82,H'08,H'3F,H'FF,H'FF,H'FF,H'FF,H'FF,
             FFFFFFFF19 +                       H'00,H'00,H'00,H'00,H'0F,H'FF,H'1C,H'71,H'C7,H'0C,H'7F,H'F0,H'00,H'00,H'00,H'00,
             31C70C7FFF +                       H'00,H'00,H'00,H'00,H'07,H'FF,H'FF,H'FF,H'FF,H'FF,H'FF,H'E0,H'00,H'00,H'00,H'00,
             FFFFFFFFFF +                       H'00,H'00,H'00,H'00,H'03,H'FF,H'FF,H'FF,H'FF,H'FF,H'FF,H'C0,H'00,H'00,H'00,H'00,
             FFFFFFFFFE +                       H'00,H'00,H'00,H'00
             092082083F   
             FFFFFFFFFF   
             FFFFFFFFFF   
             FE79279E79   
             FFFFFFFFFF   
             FFFFFFFFFF   
             FFFE19279E   
             187FFFFFFF   




SH SERIES C/C++ Compiler (Ver. 6.0C)                                                                 30-Jan-2015 21:53:33  PAGE  200


SCT OFFSET   CODE       C LABEL     INSTRUCTION OPERAND    COMMENT

             FFFFFFFFFF   
             FFFFFF0927   
             9E1C3FFFFF   
             FFFFFFFFFF   
             FFFFFFFFC9   
             279E7F3FFF   
             FFFFFFFFFF   
             FFFFFFFFFE   
             082082083F   
             FFFFFFFFFF   
             000000000F   
             FF1C71C70C   
             7FF0000000   
             0000000000   
             07FFFFFFFF   
             FFFFE00000   
             0000000000   
             0003FFFFFF   
             FFFFFFC000   
             0000000000   
             0000         
    00001C8E 01FFFFFFFF             .DATA.B     H'01,H'FF,H'FF,H'FF,H'FF,H'FF,H'FF,H'80,H'00,H'00,H'00,H'00,H'00,H'00,H'00,H'00,
             FFFF800000 +                       H'00,H'00,H'00,H'00,H'00,H'00,H'00,H'00,H'00,H'00,H'00,H'00,H'00,H'00,H'00,H'00,
             0000000000 +                       H'00,H'00,H'00,H'00,H'00,H'00,H'00,H'00,H'00,H'00,H'00,H'00
             0000000000   
             0000000000   
             0000000000   
             0000000000   
             0000000000   
             00000000     
    00001CBA              __$optionsTop:                   ; static: optionsTop
    00001CBA FFFFFFFFFF             .DATA.B     H'FF,H'FF,H'FF,H'FF,H'FF,H'FF,H'FF,H'FF,H'FF,H'FF,H'FF,H'FF,H'FF,H'FF,H'FF,H'FF,
             FFFFFFFFFF +                       H'FF,H'FF,H'FF,H'FF,H'FF,H'FF,H'FF,H'FF,H'FF,H'FF,H'FF,H'FF,H'FF,H'FF,H'FF,H'FF,
             FFFFFFFFFF +                       H'FF,H'FF,H'FF,H'FF,H'FF,H'FF,H'FF,H'FF,H'FF,H'FF,H'FF,H'FF,H'FF,H'FF,H'FF,H'FF,
             FFFFFFFFFF +                       H'FF,H'FF,H'FF,H'FF,H'FF,H'F8,H'E3,H'02,H'63,H'33,H'1F,H'FF,H'FF,H'FF,H'FF,H'FF,
             FFFFFFFFFF +                       H'FF,H'FF,H'FF,H'FF,H'FF,H'F0,H'41,H'02,H'41,H'32,H'0F,H'FF,H'FF,H'FF,H'FF,H'FF,
             FFFFFFFFFF +                       H'FF,H'FF,H'FF,H'FF,H'FF,H'F0,H'49,H'CE,H'41,H'12,H'7F,H'FF,H'FF,H'FF,H'FF,H'FF,
             FFFFFFFFFF +                       H'FF,H'FF,H'FF,H'FF,H'FF,H'F2,H'41,H'CE,H'49,H'02,H'1F,H'FF,H'FF,H'FF,H'FF,H'FF,
             FFFFFFFFFF +                       H'FF,H'FF,H'FF,H'FF,H'FF,H'F2,H'43,H'CE,H'49,H'03,H'0F,H'FF,H'FF,H'FF,H'FF,H'FF,
             FFFFFFFFFF +                       H'FF,H'FF,H'FF,H'FF,H'FF,H'F0,H'4F,H'CE,H'41,H'23,H'CF,H'FF,H'FF,H'FF,H'FF,H'FF,
             FFFFFFFFFF +                       H'FF,H'FF,H'FF,H'FF,H'FF,H'F0,H'4F,H'CE,H'41,H'32,H'0F,H'FF,H'FF,H'FF,H'FF,H'FF,
             FFFFFFF8E3 +                       H'00,H'00,H'00,H'00,H'0F,H'F8,H'CF,H'CE,H'63,H'33,H'1F,H'F0,H'00,H'00,H'00,H'00,
             0263331FFF +                       H'00,H'00,H'00,H'00,H'07,H'FF,H'FF,H'FF,H'FF,H'FF,H'FF,H'E0,H'00,H'00,H'00,H'00,
             FFFFFFFFFF +                       H'00,H'00,H'00,H'00,H'03,H'FF,H'FF,H'FF,H'FF,H'FF,H'FF,H'C0,H'00,H'00,H'00,H'00,
             FFFFFFFFF0 +                       H'00,H'00,H'00,H'00
             410241320F   
             FFFFFFFFFF   
             FFFFFFFFFF   
             F049CE4112   
             7FFFFFFFFF   
             FFFFFFFFFF   
             FFF241CE49   
             021FFFFFFF   
             FFFFFFFFFF   
             FFFFF243CE   
             49030FFFFF   
             FFFFFFFFFF   




SH SERIES C/C++ Compiler (Ver. 6.0C)                                                                 30-Jan-2015 21:53:33  PAGE  201


SCT OFFSET   CODE       C LABEL     INSTRUCTION OPERAND    COMMENT

             FFFFFFF04F   
             CE4123CFFF   
             FFFFFFFFFF   
             FFFFFFFFF0   
             4FCE41320F   
             FFFFFFFFFF   
             000000000F   
             F8CFCE6333   
             1FF0000000   
             0000000000   
             07FFFFFFFF   
             FFFFE00000   
             0000000000   
             0003FFFFFF   
             FFFFFFC000   
             0000000000   
             0000         
    00001D8E 01FFFFFFFF             .DATA.B     H'01,H'FF,H'FF,H'FF,H'FF,H'FF,H'FF,H'80,H'00,H'00,H'00,H'00,H'00,H'00,H'00,H'00,
             FFFF800000 +                       H'00,H'00,H'00,H'00,H'00,H'00,H'00,H'00,H'00,H'00,H'00,H'00,H'00,H'00,H'00,H'00,
             0000000000 +                       H'00,H'00,H'00,H'00,H'00,H'00,H'00,H'00,H'00,H'00,H'00,H'00
             0000000000   
             0000000000   
             0000000000   
             0000000000   
             0000000000   
             00000000     
    00001DBA              __$trophee:                      ; static: trophee
    00001DBA F00FFFFFFF             .DATA.B     H'F0,H'0F,H'FF,H'FF,H'FF,H'FF,H'CF,H'F3,H'6F,H'F6,H'3F,H'FC,H'1F,H'F8,H'07,H'E0,
             FFCFF36FF6 +                       H'03,H'C0,H'03,H'C0,H'03,H'C0,H'07,H'E0,H'1F,H'F8,H'3F,H'FC,H'3F,H'FC,H'3F,H'FC,
             3FFC1FF807 +                       H'F0,H'0F,H'8F,H'F1,H'80,H'01,H'B0,H'0D,H'50,H'0A,H'20,H'04,H'18,H'18,H'04,H'20,
             E003C003C0 +                       H'02,H'40,H'02,H'40,H'02,H'40,H'06,H'60,H'18,H'18,H'23,H'C4,H'20,H'04,H'3F,H'FC
             03C007E01F   
             F83FFC3FFC   
             3FFCF00F8F   
             F18001B00D   
             500A200418   
             1804200240   
             0240024006   
             60181823C4   
             20043FFC     
    00001DFA              __$expand:                       ; static: expand
    00001DFA F870200000             .DATA.B     H'F8,H'70,H'20,H'00,H'00,H'00,H'00,H'00,H'20,H'70,H'F8,H'00,H'00,H'00,H'00,H'00
             0000002070   
             F800000000   
             00           
    00001E0A              __$succes:                       ; static: succes
    00001E0A 8000000000             .DATA.B     H'80,H'00,H'00,H'00,H'00,H'00,H'00,H'00,H'00,H'00,H'00,H'00,H'00,H'80,H'BC,H'03,
             0000000000 +                       H'C0,H'00,H'00,H'00,H'00,H'00,H'00,H'00,H'00,H'00,H'00,H'80,H'A3,H'FC,H'40,H'00,
             00000080BC +                       H'00,H'00,H'00,H'00,H'00,H'00,H'00,H'00,H'00,H'80,H'A0,H'00,H'4C,H'CE,H'6D,H'B3,
             03C0000000 +                       H'CE,H'6C,H'0E,H'6C,H'E3,H'8F,H'38,H'80,H'AC,H'03,H'4C,H'DF,H'6D,H'B7,H'DF,H'6C,
             0000000000 +                       H'1F,H'6D,H'F7,H'DF,H'7C,H'80,H'94,H'02,H'8E,H'DB,H'6D,H'B6,H'1B,H'6C,H'18,H'6D,
             000080A3FC +                       H'86,H'18,H'60,H'80,H'88,H'01,H'0F,H'DB,H'6D,H'B7,H'9B,H'6C,H'1E,H'6D,H'86,H'1E,
             4000000000 +                       H'78,H'80,H'86,H'06,H'0F,H'DB,H'6D,H'B7,H'9F,H'6C,H'0F,H'6D,H'86,H'1E,H'3C,H'80,
             0000000000 +                       H'81,H'08,H'0D,H'DB,H'6D,H'B6,H'1F,H'6C,H'03,H'6D,H'86,H'18,H'0C,H'80,H'80,H'90,
             0080A0004C +                       H'0C,H'DF,H'7C,H'E7,H'DB,H'7C,H'1F,H'7D,H'F7,H'DF,H'7C,H'80,H'80,H'90,H'0C,H'CE,
             CE6DB3CE6C +                       H'38,H'43,H'DB,H'38,H'0E,H'38,H'E3,H'8F,H'38,H'80,H'80,H'90,H'00,H'00,H'00,H'00,
             0E6CE38F38 +                       H'00,H'00,H'00,H'00,H'00,H'00,H'00,H'80,H'81,H'98,H'00,H'00,H'00,H'00,H'00,H'00,




SH SERIES C/C++ Compiler (Ver. 6.0C)                                                                 30-Jan-2015 21:53:33  PAGE  202


SCT OFFSET   CODE       C LABEL     INSTRUCTION OPERAND    COMMENT

             80AC034CDF +                       H'00,H'00,H'00,H'00,H'01,H'00,H'86,H'06,H'0F,H'FF,H'FF,H'FF,H'FF,H'FF,H'FF,H'FF,
             6DB7DF6C1F +                       H'FF,H'FF,H'FE,H'00,H'88,H'F1,H'10,H'00,H'00,H'00,H'00,H'00,H'00,H'00,H'00,H'00,
             6DF7DF7C80 +                       H'00,H'00,H'88,H'01
             94028EDB6D   
             B61B6C186D   
             8618608088   
             010FDB6DB7   
             9B6C1E6D86   
             1E78808606   
             0FDB6DB79F   
             6C0F6D861E   
             3C8081080D   
             DB6DB61F6C   
             036D86180C   
             8080900CDF   
             7CE7DB7C1F   
             7DF7DF7C80   
             80900CCE38   
             43DB380E38   
             E38F388080   
             9000000000   
             0000000000   
             0000808198   
             0000000000   
             0000000000   
             010086060F   
             FFFFFFFFFF   
             FFFFFFFFFE   
             0088F11000   
             0000000000   
             0000000000   
             8801         
    00001EDE 1000000000             .DATA.B     H'10,H'00,H'00,H'00,H'00,H'00,H'00,H'00,H'00,H'00,H'00,H'00,H'8F,H'FF,H'10,H'00,
             0000000000 +                       H'00,H'00,H'00,H'00,H'00,H'00,H'00,H'00,H'00,H'00,H'80,H'00,H'10,H'00,H'00,H'00,
             00008FFF10 +                       H'00,H'00,H'00,H'00,H'00,H'00,H'00,H'00,H'40,H'00,H'20,H'00,H'00,H'00,H'00,H'00,
             0000000000 +                       H'00,H'00,H'00,H'00,H'00,H'00,H'3F,H'FF,H'C0,H'00,H'00,H'00,H'00,H'00,H'00,H'00,
             0000000000 +                       H'00,H'00,H'00,H'00
             0080001000   
             0000000000   
             0000000000   
             4000200000   
             0000000000   
             000000003F   
             FFC0000000   
             0000000000   
             000000       
    00001F22              __$succesAlpha:                  ; static: succesAlpha
    00001F22 0000000000             .DATA.B     H'00,H'00,H'00,H'00,H'00,H'00,H'00,H'00,H'00,H'00,H'00,H'00,H'00,H'00,H'00,H'00,
             0000000000 +                       H'00,H'00,H'00,H'00,H'00,H'00,H'00,H'00,H'00,H'00,H'00,H'00,H'00,H'00,H'00,H'00,
             0000000000 +                       H'00,H'00,H'00,H'00,H'00,H'00,H'00,H'00,H'00,H'00,H'00,H'00,H'00,H'00,H'00,H'00,
             0000000000 +                       H'00,H'00,H'00,H'00,H'00,H'00,H'00,H'00,H'00,H'00,H'00,H'00,H'00,H'00,H'00,H'00,
             0000000000 +                       H'00,H'00,H'00,H'00,H'00,H'00,H'00,H'00,H'00,H'00,H'00,H'00,H'00,H'00,H'00,H'00,
             0000000000 +                       H'00,H'00,H'00,H'00,H'00,H'00,H'00,H'00,H'00,H'00,H'00,H'00,H'00,H'00,H'00,H'00,
             0000000000 +                       H'00,H'00,H'00,H'00,H'00,H'00,H'00,H'00,H'00,H'00,H'00,H'00,H'00,H'00,H'00,H'00,
             0000000000 +                       H'00,H'00,H'00,H'00,H'00,H'00,H'00,H'00,H'00,H'00,H'00,H'00,H'00,H'00,H'00,H'00,
             0000000000 +                       H'00,H'00,H'00,H'00,H'00,H'00,H'00,H'00,H'00,H'00,H'00,H'00,H'00,H'00,H'00,H'00,
             0000000000 +                       H'00,H'00,H'00,H'00,H'00,H'00,H'00,H'00,H'00,H'00,H'00,H'00,H'00,H'00,H'00,H'00,




SH SERIES C/C++ Compiler (Ver. 6.0C)                                                                 30-Jan-2015 21:53:33  PAGE  203


SCT OFFSET   CODE       C LABEL     INSTRUCTION OPERAND    COMMENT

             0000000000 +                       H'00,H'00,H'00,H'00,H'00,H'00,H'00,H'00,H'00,H'00,H'00,H'00,H'00,H'00,H'00,H'00,
             0000000000 +                       H'00,H'00,H'00,H'00,H'00,H'80,H'00,H'00,H'00,H'00,H'00,H'00,H'00,H'00,H'00,H'00,
             0000000000 +                       H'00,H'00,H'01,H'80,H'00,H'00,H'0F,H'FF,H'FF,H'FF,H'FF,H'FF,H'FF,H'FF,H'FF,H'FF,
             0000000000 +                       H'FF,H'80,H'00,H'00
             0000000000   
             0000000000   
             0000000000   
             0000000000   
             0000000000   
             0000000000   
             0000000000   
             0000000000   
             0000000000   
             0000000000   
             0000000000   
             0000000000   
             0000000000   
             0000000000   
             0000000000   
             0000000000   
             0000000000   
             0000000000   
             0000000000   
             0000000000   
             0000000000   
             0000000000   
             0080000000   
             0000000000   
             0000000001   
             8000000FFF   
             FFFFFFFFFF   
             FFFFFFFF80   
             0000         
    00001FF6 0FFFFFFFFF             .DATA.B     H'0F,H'FF,H'FF,H'FF,H'FF,H'FF,H'FF,H'FF,H'FF,H'FF,H'FF,H'80,H'00,H'00,H'0F,H'FF,
             FFFFFFFFFF +                       H'FF,H'FF,H'FF,H'FF,H'FF,H'FF,H'FF,H'FF,H'FF,H'80,H'00,H'00,H'0F,H'FF,H'FF,H'FF,
             FF8000000F +                       H'FF,H'FF,H'FF,H'FF,H'FF,H'FF,H'FF,H'80,H'80,H'00,H'1F,H'FF,H'FF,H'FF,H'FF,H'FF,
             FFFFFFFFFF +                       H'FF,H'FF,H'FF,H'FF,H'FF,H'80,H'C0,H'00,H'3F,H'FF,H'FF,H'FF,H'FF,H'FF,H'FF,H'FF,
             FFFFFFFFFF +                       H'FF,H'FF,H'FF,H'80
             8000000FFF   
             FFFFFFFFFF   
             FFFFFFFF80   
             80001FFFFF   
             FFFFFFFFFF   
             FFFFFF80C0   
             003FFFFFFF   
             FFFFFFFFFF   
             FFFF80       
    0000203A              __$sixtyNine:                    ; static: sixtyNine
    0000203A 7C3EFE7FC6             .DATA.B     H'7C,H'3E,H'FE,H'7F,H'C6,H'63,H'C6,H'63,H'C0,H'63,H'C0,H'7F,H'FC,H'3F,H'FE,H'03,
             63C663C063 +                       H'C6,H'03,H'C6,H'63,H'C6,H'63,H'FE,H'7F,H'7C,H'3E,H'00,H'00,H'00,H'00,H'00,H'00
             C07FFC3FFE   
             03C603C663   
             C663FE7F7C   
             3E00000000   
             0000         
    0000205A              __$record:                       ; static: record
    0000205A 71E71C73C6             .DATA.B     H'71,H'E7,H'1C,H'73,H'C6,H'C0,H'FB,H'EF,H'BE,H'FB,H'E6,H'C0,H'DB,H'0C,H'3E,H'DB,




SH SERIES C/C++ Compiler (Ver. 6.0C)                                                                 30-Jan-2015 21:53:33  PAGE  204


SCT OFFSET   CODE       C LABEL     INSTRUCTION OPERAND    COMMENT

             C0FBEFBEFB +                       H'66,H'C0,H'FB,H'CC,H'36,H'FB,H'66,H'C0,H'F3,H'CC,H'36,H'F3,H'66,H'C0,H'FB,H'0C,
             E6C0DB0C3E +                       H'3E,H'FB,H'60,H'00,H'DB,H'EF,H'BE,H'DB,H'E6,H'C0,H'D9,H'E7,H'1C,H'DB,H'C6,H'C0
             DB66C0FBCC   
             36FB66C0F3   
             CC36F366C0   
             FB0C3EFB60   
             00DBEFBEDB   
             E6C0D9E71C   
             DBC6C0       
    0000208A              __$tirageFinal:                  ; static: tirageFinal
    0000208A FFFFFFFFFF             .DATA.B     H'FF,H'FF,H'FF,H'FF,H'FF,H'FF,H'FF,H'FF,H'FF,H'FF,H'FF,H'FF,H'FF,H'FF,H'FF,H'FF,
             FFFFFFFFFF +                       H'80,H'00,H'00,H'00,H'00,H'00,H'00,H'00,H'00,H'FF,H'00,H'00,H'00,H'00,H'01,H'FF,
             FFFFFFFFFF +                       H'BF,H'FF,H'FF,H'FF,H'FF,H'FF,H'FF,H'FF,H'FE,H'FF,H'7F,H'FF,H'FF,H'FF,H'FD,H'FF,
             FF80000000 +                       H'A0,H'00,H'00,H'00,H'00,H'00,H'00,H'00,H'02,H'FF,H'41,H'C0,H'00,H'00,H'05,H'FF,
             0000000000 +                       H'A0,H'00,H'00,H'00,H'00,H'00,H'00,H'00,H'02,H'FF,H'46,H'30,H'00,H'00,H'05,H'FF,
             FF00000000 +                       H'A0,H'00,H'00,H'00,H'00,H'00,H'00,H'00,H'02,H'FF,H'4C,H'18,H'00,H'00,H'05,H'FF,
             01FFBFFFFF +                       H'AF,H'D9,H'C7,H'1C,H'78,H'3D,H'B3,H'39,H'82,H'FF,H'5E,H'3C,H'00,H'00,H'05,H'FF,
             FFFFFFFFFF +                       H'AF,H'DB,H'EF,H'BE,H'F8,H'7D,H'B3,H'7D,H'82,H'FF,H'57,H'74,H'00,H'00,H'05,H'FF,
             FEFF7FFFFF +                       H'A3,H'1B,H'6D,H'B0,H'C0,H'61,H'BB,H'6D,H'82,H'FF,H'63,H'E2,H'00,H'00,H'05,H'FF,
             FFFDFFA000 +                       H'A3,H'1B,H'ED,H'B0,H'F0,H'79,H'BF,H'6D,H'82,H'FF,H'61,H'C2,H'00,H'00,H'05,H'FF,
             0000000000 +                       H'A3,H'1B,H'CF,H'B6,H'F0,H'79,H'BF,H'7D,H'82,H'FF,H'63,H'E2,H'00,H'00,H'05,H'FF,
             0002FF41C0 +                       H'A3,H'1B,H'EF,H'B6,H'C0,H'61,H'B7,H'7D,H'82,H'FF,H'57,H'74,H'00,H'00,H'05,H'FF,
             000005FFA0 +                       H'A3,H'1B,H'6D,H'BE,H'F8,H'61,H'B3,H'6D,H'F2,H'FF,H'5E,H'3C,H'00,H'00,H'05,H'FF,
             0000000000 +                       H'A3,H'1B,H'6D,H'9C
             000002FF46   
             30000005FF   
             A000000000   
             00000002FF   
             4C18000005   
             FFAFD9C71C   
             783DB33982   
             FF5E3C0000   
             05FFAFDBEF   
             BEF87DB37D   
             82FF577400   
             0005FFA31B   
             6DB0C061BB   
             6D82FF63E2   
             000005FFA3   
             1BEDB0F079   
             BF6D82FF61   
             C2000005FF   
             A31BCFB6F0   
             79BF7D82FF   
             63E2000005   
             FFA31BEFB6   
             C061B77D82   
             FF57740000   
             05FFA31B6D   
             BEF861B36D   
             F2FF5E3C00   
             0005FFA31B   
             6D9C         
    0000215E 7861B36CF2             .DATA.B     H'78,H'61,H'B3,H'6C,H'F2,H'FF,H'4C,H'18,H'00,H'00,H'05,H'FF,H'A0,H'00,H'00,H'00,
             FF4C180000 +                       H'00,H'00,H'00,H'00,H'02,H'FF,H'46,H'30,H'00,H'00,H'05,H'FF,H'A0,H'00,H'00,H'00,
             05FFA00000 +                       H'00,H'00,H'00,H'00,H'02,H'FF,H'41,H'C0,H'00,H'00,H'05,H'FF,H'BF,H'FF,H'FF,H'FF,
             0000000000 +                       H'FF,H'FF,H'FF,H'FF,H'FE,H'FF,H'7F,H'FF,H'FF,H'FF,H'FD,H'FF,H'80,H'00,H'00,H'00,




SH SERIES C/C++ Compiler (Ver. 6.0C)                                                                 30-Jan-2015 21:53:33  PAGE  205


SCT OFFSET   CODE       C LABEL     INSTRUCTION OPERAND    COMMENT

             02FF463000 +                       H'00,H'00,H'00,H'00,H'00,H'FF,H'00,H'00,H'00,H'00,H'01,H'FF,H'FF,H'FF,H'FF,H'FF,
             0005FFA000 +                       H'FF,H'FF,H'FF,H'FF,H'FF,H'FF,H'FF,H'FF,H'FF,H'FF,H'FF,H'FF,H'FF,H'FF,H'FF,H'FF,
             0000000000 +                       H'FF,H'FF,H'FF,H'FF,H'FF,H'FF,H'E0,H'00,H'00,H'00,H'07,H'FF,H'80,H'00,H'00,H'80,
             0002FF41C0 +                       H'00,H'00,H'80,H'00,H'00,H'FF,H'EF,H'FF,H'FF,H'FF,H'F7,H'FF,H'BF,H'FF,H'FE,H'BF,
             000005FFBF +                       H'FF,H'FE,H'BF,H'FF,H'FE,H'FF,H'E8,H'00,H'00,H'00,H'17,H'FF,H'A0,H'00,H'02,H'A0,
             FFFFFFFFFF +                       H'00,H'02,H'A0,H'00,H'02,H'EC,H'E8,H'00,H'00,H'00,H'16,H'07,H'A0,H'00,H'02,H'A0,
             FFFFFEFF7F +                       H'00,H'02,H'A0,H'00,H'02,H'DB,H'68,H'00,H'00,H'00,H'14,H'03,H'A0,H'00,H'02,H'A0,
             FFFFFFFDFF +                       H'00,H'02,H'A0,H'00,H'02,H'80,H'28,H'00,H'00,H'00,H'14,H'93,H'A0,H'00,H'02,H'A0,
             8000000000 +                       H'00,H'02,H'A0,H'00,H'02,H'DB,H'68,H'00,H'00,H'00,H'14,H'93,H'A0,H'00,H'02,H'A0,
             00000000FF +                       H'00,H'02,H'A0,H'00
             0000000001   
             FFFFFFFFFF   
             FFFFFFFFFF   
             FFFFFFFFFF   
             FFFFFFFFFF   
             FFFFFFFFFF   
             FFFFE00000   
             0007FF8000   
             0080000080   
             0000FFEFFF   
             FFFFF7FFBF   
             FFFEBFFFFE   
             BFFFFEFFE8   
             00000017FF   
             A00002A000   
             02A00002EC   
             E800000016   
             07A00002A0   
             0002A00002   
             DB68000000   
             1403A00002   
             A00002A000   
             0280280000   
             001493A000   
             02A00002A0   
             0002DB6800   
             00001493A0   
             0002A00002   
             A000         
    00002232 02E6E80000             .DATA.B     H'02,H'E6,H'E8,H'00,H'00,H'00,H'14,H'F3,H'A0,H'00,H'02,H'A0,H'00,H'02,H'A0,H'00,
             0014F3A000 +                       H'02,H'FF,H'E8,H'00,H'00,H'00,H'17,H'FF,H'A0,H'00,H'02,H'A0,H'00,H'02,H'A0,H'00,
             02A00002A0 +                       H'02,H'FF,H'E8,H'00,H'00,H'00,H'14,H'63,H'A0,H'00,H'02,H'A0,H'00,H'02,H'A0,H'00,
             0002FFE800 +                       H'02,H'F2,H'6B,H'E0,H'00,H'07,H'D4,H'03,H'A0,H'00,H'02,H'A0,H'00,H'02,H'A0,H'00,
             000017FFA0 +                       H'02,H'F2,H'69,H'C0,H'00,H'03,H'97,H'9F,H'A0,H'00,H'02,H'A0,H'00,H'02,H'A0,H'00,
             0002A00002 +                       H'02,H'FF,H'E8,H'80,H'00,H'01,H'14,H'03,H'A0,H'00,H'02,H'A0,H'00,H'02,H'A0,H'00,
             A00002FFE8 +                       H'02,H'CF,H'E8,H'00,H'00,H'00,H'14,H'63,H'A0,H'00,H'02,H'A0,H'00,H'02,H'A0,H'00,
             0000001463 +                       H'02,H'CF,H'E8,H'00,H'00,H'00,H'17,H'FF,H'A0,H'00,H'02,H'A0,H'00,H'02,H'A0,H'00,
             A00002A000 +                       H'02,H'C0,H'28,H'00,H'00,H'00,H'16,H'07,H'A0,H'00,H'02,H'A0,H'00,H'02,H'A0,H'00,
             02A00002F2 +                       H'02,H'C0,H'28,H'00,H'00,H'00,H'14,H'03,H'A0,H'00,H'02,H'A0,H'00,H'02,H'A0,H'00,
             6BE00007D4 +                       H'02,H'CF,H'EB,H'E0,H'00,H'07,H'D4,H'93,H'A0,H'00,H'02,H'A0,H'00,H'02,H'A0,H'00,
             03A00002A0 +                       H'02,H'CF,H'E9,H'C0,H'00,H'03,H'94,H'93,H'A0,H'00,H'02,H'A0,H'00,H'02,H'A0,H'00,
             0002A00002 +                       H'02,H'FF,H'E8,H'80,H'00,H'01,H'14,H'F3,H'A0,H'00,H'02,H'A0,H'00,H'02,H'A0,H'00,
             F269C00003 +                       H'02,H'CF,H'E8,H'00
             979FA00002   
             A00002A000   
             02FFE88000   
             011403A000   




SH SERIES C/C++ Compiler (Ver. 6.0C)                                                                 30-Jan-2015 21:53:33  PAGE  206


SCT OFFSET   CODE       C LABEL     INSTRUCTION OPERAND    COMMENT

             02A00002A0   
             0002CFE800   
             00001463A0   
             0002A00002   
             A00002CFE8   
             00000017FF   
             A00002A000   
             02A00002C0   
             2800000016   
             07A00002A0   
             0002A00002   
             C028000000   
             1403A00002   
             A00002A000   
             02CFEBE000   
             07D493A000   
             02A00002A0   
             0002CFE9C0   
             00039493A0   
             0002A00002   
             A00002FFE8   
             80000114F3   
             A00002A000   
             02A00002CF   
             E800         
    00002306 000017FFA0             .DATA.B     H'00,H'00,H'17,H'FF,H'A0,H'00,H'02,H'A0,H'00,H'02,H'A0,H'00,H'02,H'C9,H'E8,H'00,
             0002A00002 +                       H'00,H'00,H'17,H'FF,H'A0,H'00,H'02,H'A0,H'00,H'02,H'A0,H'00,H'02,H'C9,H'E8,H'00,
             A00002C9E8 +                       H'00,H'00,H'17,H'FF,H'A0,H'00,H'02,H'A0,H'00,H'02,H'A0,H'00,H'02,H'C0,H'28,H'00,
             00000017FF +                       H'00,H'00,H'17,H'0F,H'A0,H'00,H'02,H'A0,H'00,H'02,H'A0,H'00,H'02,H'E0,H'2B,H'E0,
             A00002A000 +                       H'00,H'07,H'D7,H'0F,H'A0,H'00,H'02,H'A0,H'00,H'02,H'A0,H'00,H'02,H'FF,H'E9,H'C0,
             02A00002C9 +                       H'00,H'03,H'97,H'0F,H'A0,H'00,H'02,H'A0,H'00,H'02,H'A0,H'00,H'02,H'C0,H'28,H'80,
             E800000017 +                       H'00,H'01,H'17,H'0F,H'A0,H'00,H'02,H'A0,H'00,H'02,H'A0,H'00,H'02,H'C0,H'28,H'00,
             FFA00002A0 +                       H'00,H'00,H'17,H'0F,H'A0,H'00,H'02,H'A0,H'00,H'02,H'A0,H'00,H'02,H'FF,H'E8,H'00,
             0002A00002 +                       H'00,H'00,H'17,H'0F,H'A0,H'00,H'02,H'A0,H'00,H'02,H'A0,H'00,H'02,H'C0,H'28,H'00,
             C028000000 +                       H'00,H'00,H'17,H'0F,H'A0,H'00,H'02,H'A0,H'00,H'02,H'A0,H'00,H'02,H'C0,H'28,H'00,
             170FA00002 +                       H'00,H'00,H'17,H'0F,H'A0,H'00,H'02,H'A0,H'00,H'02,H'A0,H'00,H'02,H'F9,H'EB,H'E0,
             A00002A000 +                       H'00,H'07,H'D7,H'0F,H'A0,H'00,H'02,H'A0,H'00,H'02,H'A0,H'00,H'02,H'C0,H'29,H'C0,
             02E02BE000 +                       H'00,H'03,H'97,H'0F,H'A0,H'00,H'02,H'A0,H'00,H'02,H'A0,H'00,H'02,H'C0,H'28,H'80,
             07D70FA000 +                       H'00,H'01,H'17,H'0F
             02A00002A0   
             0002FFE9C0   
             0003970FA0   
             0002A00002   
             A00002C028   
             800001170F   
             A00002A000   
             02A00002C0   
             2800000017   
             0FA00002A0   
             0002A00002   
             FFE8000000   
             170FA00002   
             A00002A000   
             02C0280000   
             00170FA000   
             02A00002A0   
             0002C02800   




SH SERIES C/C++ Compiler (Ver. 6.0C)                                                                 30-Jan-2015 21:53:33  PAGE  207


SCT OFFSET   CODE       C LABEL     INSTRUCTION OPERAND    COMMENT

             0000170FA0   
             0002A00002   
             A00002F9EB   
             E00007D70F   
             A00002A000   
             02A00002C0   
             29C0000397   
             0FA00002A0   
             0002A00002   
             C028800001   
             170F         
    000023DA A00002A000             .DATA.B     H'A0,H'00,H'02,H'A0,H'00,H'02,H'A0,H'00,H'02,H'FF,H'E8,H'00,H'00,H'00,H'17,H'0F,
             02A00002FF +                       H'A0,H'00,H'02,H'A0,H'00,H'02,H'A0,H'00,H'02,H'EC,H'68,H'00,H'00,H'00,H'14,H'03,
             E800000017 +                       H'A0,H'00,H'02,H'A0,H'00,H'02,H'A0,H'00,H'02,H'C8,H'28,H'00,H'00,H'00,H'16,H'07,
             0FA00002A0 +                       H'A0,H'00,H'02,H'A0,H'00,H'02,H'A0,H'00,H'02,H'C9,H'28,H'00,H'00,H'00,H'17,H'0F,
             0002A00002 +                       H'A0,H'00,H'02,H'A0,H'00,H'02,H'A0,H'00,H'02,H'C1,H'28,H'00,H'00,H'00,H'17,H'9F,
             EC68000000 +                       H'A0,H'00,H'02,H'A0,H'00,H'02,H'A0,H'00,H'02,H'E3,H'68,H'00,H'00,H'00,H'17,H'FF,
             1403A00002 +                       H'A0,H'00,H'02,H'A0,H'00,H'02,H'A0,H'00,H'02,H'FF,H'E8,H'00,H'00,H'00,H'17,H'FF,
             A00002A000 +                       H'A0,H'00,H'02,H'A0,H'00,H'02,H'A0,H'00,H'02,H'FF,H'E8,H'00,H'00,H'00,H'17,H'FF,
             02C8280000 +                       H'BF,H'FF,H'FE,H'BF,H'FF,H'FE,H'BF,H'FF,H'FE,H'FF,H'EF,H'FF,H'FF,H'FF,H'F7,H'FF,
             001607A000 +                       H'80,H'00,H'00,H'80,H'00,H'00,H'80,H'00,H'00,H'FF,H'E0,H'00,H'00,H'00,H'07,H'FF,
             02A00002A0 +                       H'FF,H'FF,H'FF,H'FF,H'FF,H'FF,H'FF,H'FF,H'FF,H'FF,H'FF,H'FF,H'FF,H'FF,H'FF,H'FF
             0002C92800   
             0000170FA0   
             0002A00002   
             A00002C128   
             000000179F   
             A00002A000   
             02A00002E3   
             6800000017   
             FFA00002A0   
             0002A00002   
             FFE8000000   
             17FFA00002   
             A00002A000   
             02FFE80000   
             0017FFBFFF   
             FEBFFFFEBF   
             FFFEFFEFFF   
             FFFFF7FF80   
             0000800000   
             800000FFE0   
             00000007FF   
             FFFFFFFFFF   
             FFFFFFFFFF   
             FFFFFFFFFF   
             FF           
    0000248A              __$tirageFinalAlpha:             ; static: tirageFinalAlpha
    0000248A 0000000000             .DATA.B     H'00,H'00,H'00,H'00,H'00,H'00,H'00,H'00,H'00,H'00,H'00,H'00,H'00,H'00,H'00,H'00,
             0000000000 +                       H'00,H'00,H'00,H'00,H'00,H'00,H'00,H'00,H'00,H'00,H'00,H'00,H'00,H'00,H'00,H'00,
             0000000000 +                       H'00,H'00,H'00,H'00,H'00,H'00,H'00,H'00,H'00,H'00,H'7F,H'FF,H'FF,H'FF,H'FC,H'00,
             0000000000 +                       H'00,H'00,H'00,H'00,H'00,H'00,H'00,H'00,H'00,H'00,H'7F,H'FF,H'FF,H'FF,H'FC,H'00,
             0000000000 +                       H'00,H'00,H'00,H'00,H'00,H'00,H'00,H'00,H'00,H'00,H'7F,H'FF,H'FF,H'FF,H'FC,H'00,
             0000000000 +                       H'00,H'00,H'00,H'00,H'00,H'00,H'00,H'00,H'00,H'00,H'7F,H'FF,H'FF,H'FF,H'FC,H'00,
             0000000000 +                       H'00,H'00,H'00,H'00,H'00,H'00,H'00,H'00,H'00,H'00,H'7F,H'FF,H'FF,H'FF,H'FC,H'00,
             0000000000 +                       H'00,H'00,H'00,H'00,H'00,H'00,H'00,H'00,H'00,H'00,H'7F,H'FF,H'FF,H'FF,H'FC,H'00,
             00007FFFFF +                       H'00,H'00,H'00,H'00,H'00,H'00,H'00,H'00,H'00,H'00,H'7F,H'FF,H'FF,H'FF,H'FC,H'00,




SH SERIES C/C++ Compiler (Ver. 6.0C)                                                                 30-Jan-2015 21:53:33  PAGE  208


SCT OFFSET   CODE       C LABEL     INSTRUCTION OPERAND    COMMENT

             FFFC000000 +                       H'00,H'00,H'00,H'00,H'00,H'00,H'00,H'00,H'00,H'00,H'7F,H'FF,H'FF,H'FF,H'FC,H'00,
             0000000000 +                       H'00,H'00,H'00,H'00,H'00,H'00,H'00,H'00,H'00,H'00,H'7F,H'FF,H'FF,H'FF,H'FC,H'00,
             0000007FFF +                       H'00,H'00,H'00,H'00,H'00,H'00,H'00,H'00,H'00,H'00,H'7F,H'FF,H'FF,H'FF,H'FC,H'00,
             FFFFFC0000 +                       H'00,H'00,H'00,H'00,H'00,H'00,H'00,H'00,H'00,H'00,H'7F,H'FF,H'FF,H'FF,H'FC,H'00,
             0000000000 +                       H'00,H'00,H'00,H'00
             000000007F   
             FFFFFFFC00   
             0000000000   
             0000000000   
             7FFFFFFFFC   
             0000000000   
             0000000000   
             007FFFFFFF   
             FC00000000   
             0000000000   
             00007FFFFF   
             FFFC000000   
             0000000000   
             0000007FFF   
             FFFFFC0000   
             0000000000   
             000000007F   
             FFFFFFFC00   
             0000000000   
             0000000000   
             7FFFFFFFFC   
             0000000000   
             0000000000   
             007FFFFFFF   
             FC00000000   
             0000000000   
             00007FFFFF   
             FFFC000000   
             0000         
    0000255E 0000000000             .DATA.B     H'00,H'00,H'00,H'00,H'00,H'00,H'7F,H'FF,H'FF,H'FF,H'FC,H'00,H'00,H'00,H'00,H'00,
             007FFFFFFF +                       H'00,H'00,H'00,H'00,H'00,H'00,H'7F,H'FF,H'FF,H'FF,H'FC,H'00,H'00,H'00,H'00,H'00,
             FC00000000 +                       H'00,H'00,H'00,H'00,H'00,H'00,H'7F,H'FF,H'FF,H'FF,H'FC,H'00,H'00,H'00,H'00,H'00,
             0000000000 +                       H'00,H'00,H'00,H'00,H'00,H'00,H'7F,H'FF,H'FF,H'FF,H'FC,H'00,H'00,H'00,H'00,H'00,
             00007FFFFF +                       H'00,H'00,H'00,H'00,H'00,H'00,H'00,H'00,H'00,H'00,H'00,H'00,H'00,H'00,H'00,H'00,
             FFFC000000 +                       H'00,H'00,H'00,H'00,H'00,H'00,H'00,H'00,H'00,H'00,H'00,H'00,H'00,H'00,H'00,H'00,
             0000000000 +                       H'00,H'00,H'00,H'00,H'00,H'00,H'00,H'00,H'00,H'00,H'00,H'00,H'00,H'00,H'00,H'00,
             0000007FFF +                       H'00,H'00,H'00,H'00,H'00,H'00,H'00,H'00,H'00,H'00,H'00,H'00,H'00,H'00,H'00,H'00,
             FFFFFC0000 +                       H'00,H'00,H'00,H'00,H'00,H'00,H'00,H'00,H'00,H'00,H'00,H'00,H'1F,H'FF,H'FC,H'1F,
             0000000000 +                       H'FF,H'FC,H'1F,H'FF,H'FC,H'00,H'00,H'00,H'00,H'00,H'00,H'00,H'1F,H'FF,H'FC,H'1F,
             000000007F +                       H'FF,H'FC,H'1F,H'FF,H'FC,H'00,H'00,H'00,H'00,H'00,H'00,H'00,H'1F,H'FF,H'FC,H'1F,
             FFFFFFFC00 +                       H'FF,H'FC,H'1F,H'FF,H'FC,H'00,H'00,H'00,H'00,H'00,H'00,H'00,H'1F,H'FF,H'FC,H'1F,
             0000000000 +                       H'FF,H'FC,H'1F,H'FF,H'FC,H'00,H'00,H'00,H'00,H'00,H'00,H'00,H'1F,H'FF,H'FC,H'1F,
             0000000000 +                       H'FF,H'FC,H'1F,H'FF
             0000000000   
             0000000000   
             0000000000   
             0000000000   
             0000000000   
             0000000000   
             0000000000   
             0000000000   
             0000000000   




SH SERIES C/C++ Compiler (Ver. 6.0C)                                                                 30-Jan-2015 21:53:33  PAGE  209


SCT OFFSET   CODE       C LABEL     INSTRUCTION OPERAND    COMMENT

             0000000000   
             0000000000   
             0000000000   
             0000000000   
             0000000000   
             1FFFFC1FFF   
             FC1FFFFC00   
             0000000000   
             001FFFFC1F   
             FFFC1FFFFC   
             0000000000   
             00001FFFFC   
             1FFFFC1FFF   
             FC00000000   
             0000001FFF   
             FC1FFFFC1F   
             FFFC000000   
             000000001F   
             FFFC1FFFFC   
             1FFF         
    00002632 FC00000000             .DATA.B     H'FC,H'00,H'00,H'00,H'00,H'00,H'00,H'00,H'1F,H'FF,H'FC,H'1F,H'FF,H'FC,H'1F,H'FF,
             0000001FFF +                       H'FC,H'00,H'00,H'00,H'00,H'00,H'00,H'00,H'1F,H'FF,H'FC,H'1F,H'FF,H'FC,H'1F,H'FF,
             FC1FFFFC1F +                       H'FC,H'00,H'00,H'00,H'00,H'00,H'00,H'00,H'1F,H'FF,H'FC,H'1F,H'FF,H'FC,H'1F,H'FF,
             FFFC000000 +                       H'FC,H'00,H'00,H'00,H'00,H'00,H'00,H'00,H'1F,H'FF,H'FC,H'1F,H'FF,H'FC,H'1F,H'FF,
             000000001F +                       H'FC,H'00,H'00,H'00,H'00,H'00,H'00,H'00,H'1F,H'FF,H'FC,H'1F,H'FF,H'FC,H'1F,H'FF,
             FFFC1FFFFC +                       H'FC,H'00,H'00,H'00,H'00,H'00,H'00,H'00,H'1F,H'FF,H'FC,H'1F,H'FF,H'FC,H'1F,H'FF,
             1FFFFC0000 +                       H'FC,H'00,H'00,H'00,H'00,H'00,H'00,H'00,H'1F,H'FF,H'FC,H'1F,H'FF,H'FC,H'1F,H'FF,
             0000000000 +                       H'FC,H'00,H'00,H'00,H'00,H'00,H'00,H'00,H'1F,H'FF,H'FC,H'1F,H'FF,H'FC,H'1F,H'FF,
             1FFFFC1FFF +                       H'FC,H'00,H'00,H'00,H'00,H'00,H'00,H'00,H'1F,H'FF,H'FC,H'1F,H'FF,H'FC,H'1F,H'FF,
             FC1FFFFC00 +                       H'FC,H'00,H'00,H'00,H'00,H'00,H'00,H'00,H'1F,H'FF,H'FC,H'1F,H'FF,H'FC,H'1F,H'FF,
             0000000000 +                       H'FC,H'00,H'00,H'00,H'00,H'00,H'00,H'00,H'1F,H'FF,H'FC,H'1F,H'FF,H'FC,H'1F,H'FF,
             001FFFFC1F +                       H'FC,H'00,H'00,H'00,H'00,H'00,H'00,H'00,H'1F,H'FF,H'FC,H'1F,H'FF,H'FC,H'1F,H'FF,
             FFFC1FFFFC +                       H'FC,H'00,H'00,H'00,H'00,H'00,H'00,H'00,H'1F,H'FF,H'FC,H'1F,H'FF,H'FC,H'1F,H'FF,
             0000000000 +                       H'FC,H'00,H'00,H'00
             00001FFFFC   
             1FFFFC1FFF   
             FC00000000   
             0000001FFF   
             FC1FFFFC1F   
             FFFC000000   
             000000001F   
             FFFC1FFFFC   
             1FFFFC0000   
             0000000000   
             1FFFFC1FFF   
             FC1FFFFC00   
             0000000000   
             001FFFFC1F   
             FFFC1FFFFC   
             0000000000   
             00001FFFFC   
             1FFFFC1FFF   
             FC00000000   
             0000001FFF   
             FC1FFFFC1F   
             FFFC000000   
             000000001F   




SH SERIES C/C++ Compiler (Ver. 6.0C)                                                                 30-Jan-2015 21:53:33  PAGE  210


SCT OFFSET   CODE       C LABEL     INSTRUCTION OPERAND    COMMENT

             FFFC1FFFFC   
             1FFFFC0000   
             0000000000   
             1FFFFC1FFF   
             FC1FFFFC00   
             0000         
    00002706 000000001F             .DATA.B     H'00,H'00,H'00,H'00,H'1F,H'FF,H'FC,H'1F,H'FF,H'FC,H'1F,H'FF,H'FC,H'00,H'00,H'00,
             FFFC1FFFFC +                       H'00,H'00,H'00,H'00,H'1F,H'FF,H'FC,H'1F,H'FF,H'FC,H'1F,H'FF,H'FC,H'00,H'00,H'00,
             1FFFFC0000 +                       H'00,H'00,H'00,H'00,H'1F,H'FF,H'FC,H'1F,H'FF,H'FC,H'1F,H'FF,H'FC,H'00,H'00,H'00,
             0000000000 +                       H'00,H'00,H'00,H'00,H'1F,H'FF,H'FC,H'1F,H'FF,H'FC,H'1F,H'FF,H'FC,H'00,H'00,H'00,
             1FFFFC1FFF +                       H'00,H'00,H'00,H'00,H'1F,H'FF,H'FC,H'1F,H'FF,H'FC,H'1F,H'FF,H'FC,H'00,H'00,H'00,
             FC1FFFFC00 +                       H'00,H'00,H'00,H'00,H'1F,H'FF,H'FC,H'1F,H'FF,H'FC,H'1F,H'FF,H'FC,H'00,H'00,H'00,
             0000000000 +                       H'00,H'00,H'00,H'00,H'1F,H'FF,H'FC,H'1F,H'FF,H'FC,H'1F,H'FF,H'FC,H'00,H'00,H'00,
             001FFFFC1F +                       H'00,H'00,H'00,H'00,H'1F,H'FF,H'FC,H'1F,H'FF,H'FC,H'1F,H'FF,H'FC,H'00,H'00,H'00,
             FFFC1FFFFC +                       H'00,H'00,H'00,H'00,H'1F,H'FF,H'FC,H'1F,H'FF,H'FC,H'1F,H'FF,H'FC,H'00,H'00,H'00,
             0000000000 +                       H'00,H'00,H'00,H'00,H'1F,H'FF,H'FC,H'1F,H'FF,H'FC,H'1F,H'FF,H'FC,H'00,H'00,H'00,
             00001FFFFC +                       H'00,H'00,H'00,H'00,H'1F,H'FF,H'FC,H'1F,H'FF,H'FC,H'1F,H'FF,H'FC,H'00,H'00,H'00,
             1FFFFC1FFF +                       H'00,H'00,H'00,H'00,H'1F,H'FF,H'FC,H'1F,H'FF,H'FC,H'1F,H'FF,H'FC,H'00,H'00,H'00,
             FC00000000 +                       H'00,H'00,H'00,H'00,H'1F,H'FF,H'FC,H'1F,H'FF,H'FC,H'1F,H'FF,H'FC,H'00,H'00,H'00,
             0000001FFF +                       H'00,H'00,H'00,H'00
             FC1FFFFC1F   
             FFFC000000   
             000000001F   
             FFFC1FFFFC   
             1FFFFC0000   
             0000000000   
             1FFFFC1FFF   
             FC1FFFFC00   
             0000000000   
             001FFFFC1F   
             FFFC1FFFFC   
             0000000000   
             00001FFFFC   
             1FFFFC1FFF   
             FC00000000   
             0000001FFF   
             FC1FFFFC1F   
             FFFC000000   
             000000001F   
             FFFC1FFFFC   
             1FFFFC0000   
             0000000000   
             1FFFFC1FFF   
             FC1FFFFC00   
             0000000000   
             001FFFFC1F   
             FFFC1FFFFC   
             0000000000   
             0000         
    000027DA 1FFFFC1FFF             .DATA.B     H'1F,H'FF,H'FC,H'1F,H'FF,H'FC,H'1F,H'FF,H'FC,H'00,H'00,H'00,H'00,H'00,H'00,H'00,
             FC1FFFFC00 +                       H'1F,H'FF,H'FC,H'1F,H'FF,H'FC,H'1F,H'FF,H'FC,H'00,H'00,H'00,H'00,H'00,H'00,H'00,
             0000000000 +                       H'1F,H'FF,H'FC,H'1F,H'FF,H'FC,H'1F,H'FF,H'FC,H'00,H'00,H'00,H'00,H'00,H'00,H'00,
             001FFFFC1F +                       H'1F,H'FF,H'FC,H'1F,H'FF,H'FC,H'1F,H'FF,H'FC,H'00,H'00,H'00,H'00,H'00,H'00,H'00,
             FFFC1FFFFC +                       H'1F,H'FF,H'FC,H'1F,H'FF,H'FC,H'1F,H'FF,H'FC,H'00,H'00,H'00,H'00,H'00,H'00,H'00,
             0000000000 +                       H'1F,H'FF,H'FC,H'1F,H'FF,H'FC,H'1F,H'FF,H'FC,H'00,H'00,H'00,H'00,H'00,H'00,H'00,
             00001FFFFC +                       H'1F,H'FF,H'FC,H'1F,H'FF,H'FC,H'1F,H'FF,H'FC,H'00,H'00,H'00,H'00,H'00,H'00,H'00,
             1FFFFC1FFF +                       H'1F,H'FF,H'FC,H'1F,H'FF,H'FC,H'1F,H'FF,H'FC,H'00,H'00,H'00,H'00,H'00,H'00,H'00,




SH SERIES C/C++ Compiler (Ver. 6.0C)                                                                 30-Jan-2015 21:53:33  PAGE  211


SCT OFFSET   CODE       C LABEL     INSTRUCTION OPERAND    COMMENT

             FC00000000 +                       H'00,H'00,H'00,H'00,H'00,H'00,H'00,H'00,H'00,H'00,H'00,H'00,H'00,H'00,H'00,H'00,
             0000001FFF +                       H'00,H'00,H'00,H'00,H'00,H'00,H'00,H'00,H'00,H'00,H'00,H'00,H'00,H'00,H'00,H'00,
             FC1FFFFC1F +                       H'00,H'00,H'00,H'00,H'00,H'00,H'00,H'00,H'00,H'00,H'00,H'00,H'00,H'00,H'00,H'00
             FFFC000000   
             000000001F   
             FFFC1FFFFC   
             1FFFFC0000   
             0000000000   
             1FFFFC1FFF   
             FC1FFFFC00   
             0000000000   
             001FFFFC1F   
             FFFC1FFFFC   
             0000000000   
             00001FFFFC   
             1FFFFC1FFF   
             FC00000000   
             0000000000   
             0000000000   
             0000000000   
             0000000000   
             0000000000   
             0000000000   
             0000000000   
             0000000000   
             0000000000   
             0000000000   
             00           
    0000288A              __$moto:                         ; static: moto
    0000288A 00880003F8             .DATA.B     H'00,H'88,H'00,H'03,H'F8,H'00,H'07,H'F8,H'00,H'0F,H'F0,H'00,H'0F,H'88,H'00,H'0F,
             0007F8000F +                       H'88,H'00,H'0C,H'F8,H'00,H'0C,H'B4,H'00,H'06,H'88,H'00,H'05,H'08,H'00,H'02,H'F7,
             F0000F8800 +                       H'40,H'04,H'0F,H'C0,H'07,H'DF,H'C0,H'FF,H'2F,H'AE,H'9F,H'9F,H'15,H'41,H'CE,H'2F,
             0F88000CF8 +                       H'7F,H'FE,H'3D,H'57,H'FC,H'2B,H'3C,H'00,H'1E,H'00,H'00,H'00,H'00,H'00,H'00,H'00,
             000CB40006 +                       H'00,H'00,H'00,H'00,H'00,H'00,H'00,H'00,H'00,H'88,H'00,H'03,H'F8,H'00,H'07,H'F8,
             8800050800 +                       H'00,H'0F,H'F0,H'00,H'0F,H'88,H'00,H'0F,H'88,H'00,H'0C,H'F8,H'00,H'0C,H'B4,H'00,
             02F740040F +                       H'06,H'88,H'00,H'05,H'08,H'00,H'02,H'F7,H'40,H'04,H'0F,H'C0,H'07,H'DF,H'C0,H'FF,
             C007DFC0FF +                       H'2F,H'AE,H'FF,H'9F,H'1F,H'7F,H'CE,H'3F,H'7F,H'FE,H'3F,H'7F,H'FC,H'3F,H'3C,H'00,
             2FAE9F9F15 +                       H'1E,H'00,H'00,H'00,H'00,H'00,H'00,H'00,H'00,H'00,H'00,H'00,H'00,H'00,H'00,H'00
             41CE2F7FFE   
             3D57FC2B3C   
             001E000000   
             0000000000   
             0000000000   
             0000008800   
             03F80007F8   
             000FF0000F   
             88000F8800   
             0CF8000CB4   
             0006880005   
             080002F740   
             040FC007DF   
             C0FF2FAEFF   
             9F1F7FCE3F   
             7FFE3F7FFC   
             3F3C001E00   
             0000000000   
             0000000000   




SH SERIES C/C++ Compiler (Ver. 6.0C)                                                                 30-Jan-2015 21:53:33  PAGE  212


SCT OFFSET   CODE       C LABEL     INSTRUCTION OPERAND    COMMENT

             00000000     
    0000291A              __$motoAir:                      ; static: motoAir
    0000291A 0420000FE0             .DATA.B     H'04,H'20,H'00,H'0F,H'E0,H'00,H'1F,H'C0,H'00,H'3F,H'20,H'00,H'3E,H'20,H'00,H'3F,
             001FC0003F +                       H'E0,H'00,H'3A,H'D0,H'00,H'3A,H'20,H'00,H'1E,H'26,H'80,H'0B,H'CF,H'80,H'0D,H'AF,
             20003E2000 +                       H'80,H'02,H'5F,H'80,H'07,H'87,H'5C,H'07,H'9F,H'36,H'7F,H'CF,H'7A,H'CC,H'EE,H'5E,
             3FE0003AD0 +                       H'63,H'FC,H'6A,H'3F,H'C0,H'3C,H'35,H'00,H'00,H'1E,H'00,H'00,H'00,H'00,H'00,H'00,
             003A20001E +                       H'00,H'00,H'00,H'00,H'00,H'00,H'00,H'00,H'04,H'20,H'00,H'0F,H'E0,H'00,H'1F,H'C0,
             26800BCF80 +                       H'00,H'3F,H'20,H'00,H'3E,H'20,H'00,H'3F,H'E0,H'00,H'3A,H'D0,H'00,H'3A,H'20,H'00,
             0DAF80025F +                       H'1E,H'26,H'80,H'0B,H'CF,H'80,H'0D,H'AF,H'80,H'02,H'5F,H'80,H'07,H'87,H'5C,H'07,
             8007875C07 +                       H'9E,H'3E,H'7F,H'CF,H'7E,H'FF,H'EE,H'7E,H'7F,H'FC,H'7E,H'3F,H'C0,H'3C,H'3F,H'00,
             9F367FCF7A +                       H'00,H'1E,H'00,H'00,H'00,H'00,H'00,H'00,H'00,H'00,H'00,H'00,H'00,H'00,H'00,H'00
             CCEE5E63FC   
             6A3FC03C35   
             00001E0000   
             0000000000   
             0000000000   
             0000042000   
             0FE0001FC0   
             003F20003E   
             20003FE000   
             3AD0003A20   
             001E26800B   
             CF800DAF80   
             025F800787   
             5C079E3E7F   
             CF7EFFEE7E   
             7FFC7E3FC0   
             3C3F00001E   
             0000000000   
             0000000000   
             00000000     
    000029AA              __$moto2:                        ; static: moto2
    000029AA 00880003F8             .DATA.B     H'00,H'88,H'00,H'03,H'F8,H'00,H'07,H'F8,H'00,H'0F,H'F0,H'00,H'0F,H'88,H'00,H'0F,
             0007F8000F +                       H'88,H'00,H'0C,H'F8,H'00,H'0C,H'B4,H'00,H'06,H'88,H'00,H'05,H'08,H'00,H'02,H'F7,
             F0000F8800 +                       H'40,H'04,H'0F,H'C0,H'07,H'DF,H'C0,H'FF,H'2F,H'AE,H'9F,H'9F,H'1B,H'41,H'CE,H'3D,
             0F88000CF8 +                       H'7F,H'FE,H'2F,H'6B,H'FC,H'35,H'3C,H'00,H'1E,H'00,H'00,H'00,H'00,H'00,H'00,H'00,
             000CB40006 +                       H'00,H'00,H'00,H'00,H'00,H'00,H'00,H'00
             8800050800   
             02F740040F   
             C007DFC0FF   
             2FAE9F9F1B   
             41CE3D7FFE   
             2F6BFC353C   
             001E000000   
             0000000000   
             0000000000   
             0000         
    000029F2              __$motoAlpha:                    ; static: motoAlpha
    000029F2 FF77FFFC07             .DATA.B     H'FF,H'77,H'FF,H'FC,H'07,H'FF,H'F8,H'07,H'FF,H'F0,H'0F,H'FF,H'F0,H'07,H'FF,H'F0,
             FFF807FFF0 +                       H'07,H'FF,H'F0,H'07,H'FF,H'F0,H'03,H'FF,H'F8,H'07,H'FF,H'F8,H'07,H'FF,H'FC,H'00,
             0FFFF007FF +                       H'BF,H'F8,H'00,H'3F,H'F8,H'00,H'3F,H'00,H'00,H'51,H'00,H'00,H'E0,H'80,H'01,H'C0,
             F007FFF007 +                       H'80,H'01,H'C0,H'80,H'03,H'C0,H'C7,H'FF,H'E1,H'FF,H'FF,H'FF,H'FF,H'FF,H'FF,H'FF,
             FFF003FFF8 +                       H'FF,H'FF,H'FF,H'FF,H'FF,H'FF,H'FF,H'FF
             07FFF807FF   
             FC00BFF800   
             3FF8003F00   
             00510000E0   




SH SERIES C/C++ Compiler (Ver. 6.0C)                                                                 30-Jan-2015 21:53:33  PAGE  213


SCT OFFSET   CODE       C LABEL     INSTRUCTION OPERAND    COMMENT

             8001C08001   
             C08003C0C7   
             FFE1FFFFFF   
             FFFFFFFFFF   
             FFFFFFFFFF   
             FFFF         
    00002A3A              __$motoAirAlpha:                 ; static: motoAirAlpha
    00002A3A FBDFFFF01F             .DATA.B     H'FB,H'DF,H'FF,H'F0,H'1F,H'FF,H'E0,H'3F,H'FF,H'C0,H'1F,H'FF,H'C0,H'1F,H'FF,H'C0,
             FFE03FFFC0 +                       H'1F,H'FF,H'C0,H'0F,H'FF,H'C0,H'1F,H'FF,H'E0,H'19,H'7F,H'F0,H'30,H'7F,H'F0,H'10,
             1FFFC01FFF +                       H'7F,H'FC,H'00,H'7F,H'F8,H'00,H'A3,H'F8,H'00,H'C1,H'80,H'00,H'81,H'00,H'01,H'81,
             C01FFFC00F +                       H'80,H'03,H'81,H'C0,H'3F,H'C3,H'C0,H'FF,H'FF,H'E1,H'FF,H'FF,H'FF,H'FF,H'FF,H'FF,
             FFC01FFFE0 +                       H'FF,H'FF,H'FF,H'FF,H'FF,H'FF,H'FF,H'FF
             197FF0307F   
             F0107FFC00   
             7FF800A3F8   
             00C1800081   
             0001818003   
             81C03FC3C0   
             FFFFE1FFFF   
             FFFFFFFFFF   
             FFFFFFFFFF   
             FFFF         
    00002A82              __$teleporteur1:                 ; static: teleporteur1
    00002A82 81423C7EE7             .DATA.B     H'81,H'42,H'3C,H'7E,H'E7,H'C3,H'81,H'81,H'81,H'81,H'C3,H'E7,H'7E,H'3C,H'42,H'81,
             C381818181 +                       H'81,H'42,H'3C,H'7E,H'EF,H'DF,H'FF,H'FF,H'FF,H'FF,H'FF,H'FF,H'7E,H'3C,H'42,H'81
             C3E77E3C42   
             8181423C7E   
             EFDFFFFFFF   
             FFFFFF7E3C   
             4281         
    00002AA2              __$teleporteur2:                 ; static: teleporteur2
    00002AA2 000081423C             .DATA.B     H'00,H'00,H'81,H'42,H'3C,H'7E,H'E7,H'81,H'81,H'E7,H'7E,H'3C,H'42,H'81,H'00,H'00,
             7EE78181E7 +                       H'00,H'00,H'81,H'42,H'3C,H'7E,H'EF,H'DF,H'FF,H'FF,H'7E,H'3C,H'42,H'81,H'00,H'00
             7E3C428100   
             0000008142   
             3C7EEFDFFF   
             FF7E3C4281   
             0000         
    00002AC2              __$teleporteur3:                 ; static: teleporteur3
    00002AC2 0000000081             .DATA.B     H'00,H'00,H'00,H'00,H'81,H'42,H'3C,H'7E,H'81,H'7E,H'3C,H'42,H'81,H'00,H'00,H'00,
             423C7E817E +                       H'00,H'00,H'00,H'00,H'81,H'42,H'3C,H'7E,H'DF,H'7E,H'3C,H'42,H'81,H'00,H'00,H'00
             3C42810000   
             0000000000   
             81423C7EDF   
             7E3C428100   
             0000         
    00002AE2              __$teleporteur1Alpha:            ; static: teleporteur1Alpha
    00002AE2 7EBDC38100             .DATA.B     H'7E,H'BD,H'C3,H'81,H'00,H'00,H'00,H'00,H'00,H'00,H'00,H'00,H'81,H'C3,H'BD,H'7E
             0000000000   
             000081C3BD   
             7E           
    00002AF2              __$teleporteur2Alpha:            ; static: teleporteur2Alpha
    00002AF2 FFFF7EBDC3             .DATA.B     H'FF,H'FF,H'7E,H'BD,H'C3,H'81,H'00,H'00,H'00,H'00,H'81,H'C3,H'BD,H'7E,H'FF,H'FF
             8100000000   
             81C3BD7EFF   
             FF           
    00002B02              __$teleporteur3Alpha:            ; static: teleporteur3Alpha




SH SERIES C/C++ Compiler (Ver. 6.0C)                                                                 30-Jan-2015 21:53:33  PAGE  214


SCT OFFSET   CODE       C LABEL     INSTRUCTION OPERAND    COMMENT

    00002B02 FFFFFFFF7E             .DATA.B     H'FF,H'FF,H'FF,H'FF,H'7E,H'BD,H'C3,H'81,H'00,H'81,H'C3,H'BD,H'7E,H'FF,H'FF,H'FF
             BDC3810081   
             C3BD7EFFFF   
             FF           
    00002B12              __$gravitySolUp1:                ; static: gravitySolUp1
    00002B12 FE007F803F             .DATA.B     H'FE,H'00,H'7F,H'80,H'3F,H'E0,H'38,H'10,H'31,H'F0,H'13,H'E0,H'17,H'F0,H'17,H'B0,
             E0381031F0 +                       H'13,H'F8,H'12,H'10,H'0E,H'10,H'05,H'E0,H'04,H'90,H'03,H'D0,H'04,H'A0,H'09,H'20,
             13E017F017 +                       H'0E,H'E0,H'00,H'00,H'00,H'00,H'00,H'00,H'00,H'00,H'00,H'00,H'00,H'00,H'00,H'00,
             B013F81210 +                       H'FE,H'00,H'7F,H'80,H'3F,H'E0,H'38,H'10,H'31,H'F0,H'13,H'E0,H'17,H'F0,H'17,H'B0,
             0E1005E004 +                       H'13,H'F8,H'12,H'10,H'0E,H'10,H'07,H'E0,H'07,H'F0,H'03,H'F0,H'07,H'E0,H'0F,H'E0,
             9003D004A0 +                       H'0E,H'E0,H'00,H'00,H'00,H'00,H'00,H'00,H'00,H'00,H'00,H'00,H'00,H'00,H'00,H'00
             09200EE000   
             0000000000   
             0000000000   
             000000FE00   
             7F803FE038   
             1031F013E0   
             17F017B013   
             F812100E10   
             07E007F003   
             F007E00FE0   
             0EE0000000   
             0000000000   
             0000000000   
             00           
    00002B72              __$gravitySolUp2:                ; static: gravitySolUp2
    00002B72 FE007F803F             .DATA.B     H'FE,H'00,H'7F,H'80,H'3F,H'E0,H'38,H'10,H'31,H'F0,H'13,H'E0,H'17,H'F0,H'17,H'B0,
             E0381031F0 +                       H'13,H'F8,H'12,H'10,H'0E,H'10,H'05,H'E0,H'04,H'90,H'07,H'D0,H'04,H'60,H'03,H'40,
             13E017F017 +                       H'01,H'C0,H'00,H'00,H'00,H'00,H'00,H'00,H'00,H'00,H'00,H'00,H'00,H'00,H'00,H'00,
             B013F81210 +                       H'FE,H'00,H'7F,H'80,H'3F,H'E0,H'38,H'10,H'31,H'F0,H'13,H'E0,H'17,H'F0,H'17,H'B0,
             0E1005E004 +                       H'13,H'F8,H'12,H'10,H'0E,H'10,H'07,H'E0,H'07,H'F0,H'07,H'F0,H'07,H'E0,H'03,H'C0,
             9007D00460 +                       H'01,H'C0,H'00,H'00,H'00,H'00,H'00,H'00,H'00,H'00,H'00,H'00,H'00,H'00,H'00,H'00
             034001C000   
             0000000000   
             0000000000   
             000000FE00   
             7F803FE038   
             1031F013E0   
             17F017B013   
             F812100E10   
             07E007F007   
             F007E003C0   
             01C0000000   
             0000000000   
             0000000000   
             00           
    00002BD2              __$gravitySolDown1:              ; static: gravitySolDown1
    00002BD2 0EE0092004             .DATA.B     H'0E,H'E0,H'09,H'20,H'04,H'A0,H'03,H'D0,H'04,H'90,H'05,H'E0,H'0E,H'10,H'12,H'10,
             A003D00490 +                       H'13,H'F8,H'17,H'B0,H'17,H'F0,H'13,H'E0,H'31,H'F0,H'38,H'10,H'3F,H'E0,H'7F,H'80,
             05E00E1012 +                       H'FE,H'00,H'00,H'00,H'00,H'00,H'00,H'00,H'00,H'00,H'00,H'00,H'00,H'00,H'00,H'00,
             1013F817B0 +                       H'0E,H'E0,H'0F,H'E0,H'07,H'E0,H'03,H'F0,H'07,H'F0,H'07,H'E0,H'0E,H'10,H'12,H'10,
             17F013E031 +                       H'13,H'F8,H'17,H'B0,H'17,H'F0,H'13,H'E0,H'31,H'F0,H'38,H'10,H'3F,H'E0,H'7F,H'80,
             F038103FE0 +                       H'FE,H'00,H'00,H'00,H'00,H'00,H'00,H'00,H'00,H'00,H'00,H'00,H'00,H'00,H'00,H'00
             7F80FE0000   
             0000000000   
             0000000000   
             0000000EE0   




SH SERIES C/C++ Compiler (Ver. 6.0C)                                                                 30-Jan-2015 21:53:33  PAGE  215


SCT OFFSET   CODE       C LABEL     INSTRUCTION OPERAND    COMMENT

             0FE007E003   
             F007F007E0   
             0E10121013   
             F817B017F0   
             13E031F038   
             103FE07F80   
             FE00000000   
             0000000000   
             0000000000   
             00           
    00002C32              __$gravitySolDown2:              ; static: gravitySolDown2
    00002C32 01C0034004             .DATA.B     H'01,H'C0,H'03,H'40,H'04,H'60,H'07,H'D0,H'04,H'90,H'05,H'E0,H'0E,H'10,H'12,H'10,
             6007D00490 +                       H'13,H'F8,H'17,H'B0,H'17,H'F0,H'13,H'E0,H'31,H'F0,H'38,H'10,H'3F,H'E0,H'7F,H'80,
             05E00E1012 +                       H'FE,H'00,H'00,H'00,H'00,H'00,H'00,H'00,H'00,H'00,H'00,H'00,H'00,H'00,H'00,H'00,
             1013F817B0 +                       H'01,H'C0,H'03,H'C0,H'07,H'E0,H'07,H'F0,H'07,H'F0,H'07,H'E0,H'0E,H'10,H'12,H'10,
             17F013E031 +                       H'13,H'F8,H'17,H'B0,H'17,H'F0,H'13,H'E0,H'31,H'F0,H'38,H'10,H'3F,H'E0,H'7F,H'80,
             F038103FE0 +                       H'FE,H'00,H'00,H'00,H'00,H'00,H'00,H'00,H'00,H'00,H'00,H'00,H'00,H'00,H'00,H'00
             7F80FE0000   
             0000000000   
             0000000000   
             00000001C0   
             03C007E007   
             F007F007E0   
             0E10121013   
             F817B017F0   
             13E031F038   
             103FE07F80   
             FE00000000   
             0000000000   
             0000000000   
             00           
    00002C92              __$gravitySolUp1Alpha:           ; static: gravitySolUp1Alpha
    00002C92 01FF807FC0             .DATA.B     H'01,H'FF,H'80,H'7F,H'C0,H'1F,H'C0,H'0F,H'C0,H'0F,H'E0,H'1F,H'E0,H'0F,H'E0,H'0F,
             1FC00FC00F +                       H'E0,H'07,H'E0,H'0F,H'F0,H'0F,H'F8,H'1F,H'F8,H'0F,H'FC,H'0F,H'F8,H'1F,H'F0,H'1F,
             E01FE00FE0 +                       H'F1,H'1F,H'FF,H'FF,H'FF,H'FF,H'FF,H'FF,H'FF,H'FF,H'FF,H'FF,H'FF,H'FF,H'FF,H'FF
             0FE007E00F   
             F00FF81FF8   
             0FFC0FF81F   
             F01FF11FFF   
             FFFFFFFFFF   
             FFFFFFFFFF   
             FFFFFF       
    00002CC2              __$gravitySolUp2Alpha:           ; static: gravitySolUp2Alpha
    00002CC2 01FF807FC0             .DATA.B     H'01,H'FF,H'80,H'7F,H'C0,H'1F,H'C0,H'0F,H'C0,H'0F,H'E0,H'1F,H'E0,H'0F,H'E0,H'0F,
             1FC00FC00F +                       H'E0,H'07,H'E0,H'0F,H'F0,H'0F,H'F8,H'1F,H'F8,H'0F,H'F8,H'0F,H'F8,H'1F,H'FC,H'3F,
             E01FE00FE0 +                       H'FE,H'3F,H'FF,H'FF,H'FF,H'FF,H'FF,H'FF,H'FF,H'FF,H'FF,H'FF,H'FF,H'FF,H'FF,H'FF
             0FE007E00F   
             F00FF81FF8   
             0FF80FF81F   
             FC3FFE3FFF   
             FFFFFFFFFF   
             FFFFFFFFFF   
             FFFFFF       
    00002CF2              __$gravitySolDown1Alpha:         ; static: gravitySolDown1Alpha
    00002CF2 F11FF01FF8             .DATA.B     H'F1,H'1F,H'F0,H'1F,H'F8,H'1F,H'FC,H'0F,H'F8,H'0F,H'F8,H'1F,H'F0,H'0F,H'E0,H'0F,
             1FFC0FF80F +                       H'E0,H'07,H'E0,H'0F,H'E0,H'0F,H'E0,H'1F,H'C0,H'0F,H'C0,H'0F,H'C0,H'1F,H'80,H'7F,
             F81FF00FE0 +                       H'01,H'FF,H'FF,H'FF,H'FF,H'FF,H'FF,H'FF,H'FF,H'FF,H'FF,H'FF,H'FF,H'FF,H'FF,H'FF




SH SERIES C/C++ Compiler (Ver. 6.0C)                                                                 30-Jan-2015 21:53:33  PAGE  216


SCT OFFSET   CODE       C LABEL     INSTRUCTION OPERAND    COMMENT

             0FE007E00F   
             E00FE01FC0   
             0FC00FC01F   
             807F01FFFF   
             FFFFFFFFFF   
             FFFFFFFFFF   
             FFFFFF       
    00002D22              __$gravitySolDown2Alpha:         ; static: gravitySolDown2Alpha
    00002D22 FE3FFC3FF8             .DATA.B     H'FE,H'3F,H'FC,H'3F,H'F8,H'1F,H'F8,H'0F,H'F8,H'0F,H'F8,H'1F,H'F0,H'0F,H'E0,H'0F,
             1FF80FF80F +                       H'E0,H'07,H'E0,H'0F,H'E0,H'0F,H'E0,H'1F,H'C0,H'0F,H'C0,H'0F,H'C0,H'1F,H'80,H'7F,
             F81FF00FE0 +                       H'01,H'FF,H'FF,H'FF,H'FF,H'FF,H'FF,H'FF,H'FF,H'FF,H'FF,H'FF,H'FF,H'FF,H'FF,H'FF
             0FE007E00F   
             E00FE01FC0   
             0FC00FC01F   
             807F01FFFF   
             FFFFFFFFFF   
             FFFFFFFFFF   
             FFFFFF       
    00002D52              __$bird1:                        ; static: bird1
    00002D52 0078000185             .DATA.B     H'00,H'78,H'00,H'01,H'85,H'00,H'0F,H'FE,H'80,H'F4,H'CC,H'40,H'84,H'58,H'20,H'4A,
             000FFE80F4 +                       H'28,H'58,H'29,H'28,H'84,H'7C,H'97,H'02,H'22,H'09,H'01,H'11,H'09,H'FF,H'0E,H'F9,
             CC40845820 +                       H'02,H'04,H'01,H'04,H'03,H'01,H'18,H'00,H'FF,H'E0,H'00,H'00,H'00,H'00,H'00,H'00,
             4A28582928 +                       H'00,H'78,H'00,H'01,H'85,H'00,H'0F,H'FE,H'80,H'FC,H'CC,H'40,H'FC,H'58,H'20,H'7A,
             847C970222 +                       H'38,H'58,H'39,H'38,H'84,H'7C,H'9F,H'02,H'3E,H'0F,H'01,H'1F,H'0F,H'FF,H'0F,H'FF,
             09011109FF +                       H'02,H'07,H'FF,H'04,H'03,H'FF,H'18,H'00,H'FF,H'E0,H'00,H'00,H'00,H'00,H'00,H'00
             0EF9020401   
             0403011800   
             FFE0000000   
             0000000078   
             000185000F   
             FE80FCCC40   
             FC58207A38   
             583938847C   
             9F023E0F01   
             1F0FFF0FFF   
             0207FF0403   
             FF1800FFE0   
             0000000000   
             00           
    00002DB2              __$bird2:                        ; static: bird2
    00002DB2 0078000185             .DATA.B     H'00,H'78,H'00,H'01,H'85,H'00,H'0F,H'7E,H'80,H'F1,H'4C,H'40,H'81,H'78,H'20,H'41,
             000F7E80F1 +                       H'48,H'58,H'20,H'F8,H'84,H'78,H'07,H'02,H'27,H'F9,H'01,H'12,H'09,H'FF,H'0D,H'F9,
             4C40817820 +                       H'02,H'04,H'01,H'04,H'03,H'01,H'18,H'00,H'FF,H'E0,H'00,H'00,H'00,H'00,H'00,H'00,
             41485820F8 +                       H'00,H'78,H'00,H'01,H'85,H'00,H'0F,H'7E,H'80,H'FF,H'4C,H'40,H'FF,H'78,H'20,H'7F,
             8478070227 +                       H'48,H'58,H'3F,H'F8,H'84,H'7F,H'FF,H'02,H'3F,H'FF,H'01,H'1E,H'0F,H'FF,H'0F,H'FF,
             F9011209FF +                       H'02,H'07,H'FF,H'04,H'03,H'FF,H'18,H'00,H'FF,H'E0,H'00,H'00,H'00,H'00,H'00,H'00
             0DF9020401   
             0403011800   
             FFE0000000   
             0000000078   
             000185000F   
             7E80FF4C40   
             FF78207F48   
             583FF8847F   
             FF023FFF01   
             1E0FFF0FFF   
             0207FF0403   




SH SERIES C/C++ Compiler (Ver. 6.0C)                                                                 30-Jan-2015 21:53:33  PAGE  217


SCT OFFSET   CODE       C LABEL     INSTRUCTION OPERAND    COMMENT

             FF1800FFE0   
             0000000000   
             00           
    00002E12              __$bird3:                        ; static: bird3
    00002E12 0078000185             .DATA.B     H'00,H'78,H'00,H'01,H'85,H'00,H'0F,H'7E,H'80,H'F1,H'4C,H'40,H'81,H'78,H'20,H'41,
             000F7E80F1 +                       H'48,H'58,H'20,H'F8,H'84,H'78,H'07,H'02,H'20,H'F9,H'01,H'11,H'09,H'FF,H'0A,H'09,
             4C40817820 +                       H'02,H'0C,H'91,H'04,H'09,H'21,H'18,H'0A,H'3F,H'E0,H'04,H'40,H'00,H'03,H'80,H'00,
             41485820F8 +                       H'00,H'78,H'00,H'01,H'85,H'00,H'0F,H'7E,H'80,H'FF,H'4C,H'40,H'FF,H'78,H'20,H'7F,
             8478070220 +                       H'48,H'58,H'3F,H'F8,H'84,H'7F,H'FF,H'02,H'3F,H'FF,H'01,H'1F,H'0F,H'FF,H'0E,H'0F,
             F9011109FF +                       H'02,H'0C,H'9F,H'04,H'09,H'3F,H'18,H'0A,H'3F,H'E0,H'04,H'40,H'00,H'03,H'80,H'00
             0A09020C91   
             040921180A   
             3FE0044000   
             0380000078   
             000185000F   
             7E80FF4C40   
             FF78207F48   
             583FF8847F   
             FF023FFF01   
             1F0FFF0E0F   
             020C9F0409   
             3F180A3FE0   
             0440000380   
             00           
    00002E72              __$bird1Alpha:                   ; static: bird1Alpha
    00002E72 FF87FFFE02             .DATA.B     H'FF,H'87,H'FF,H'FE,H'02,H'FF,H'F0,H'00,H'7F,H'00,H'00,H'3F,H'00,H'00,H'1F,H'80,
             FFF0007F00 +                       H'00,H'07,H'C0,H'00,H'03,H'80,H'00,H'01,H'C0,H'00,H'00,H'E0,H'00,H'00,H'F0,H'00,
             003F00001F +                       H'01,H'F8,H'00,H'03,H'FC,H'00,H'07,H'FF,H'00,H'1F,H'FF,H'FF,H'FF,H'FF,H'FF,H'FF
             800007C000   
             03800001C0   
             0000E00000   
             F00001F800   
             03FC0007FF   
             001FFFFFFF   
             FFFFFF       
    00002EA2              __$tank1:                        ; static: tank1
    00002EA2 00180001E7             .DATA.B     H'00,H'18,H'00,H'01,H'E7,H'00,H'02,H'18,H'E0,H'01,H'85,H'F0,H'00,H'63,H'10,H'01,
             000218E001 +                       H'D1,H'08,H'02,H'2A,H'88,H'02,H'46,H'84,H'02,H'8C,H'44,H'01,H'16,H'24,H'02,H'A2,
             85F0006310 +                       H'1C,H'04,H'55,H'04,H'04,H'28,H'C4,H'0A,H'A0,H'24,H'07,H'D0,H'58,H'00,H'6F,H'A0,
             01D108022A +                       H'00,H'90,H'40,H'01,H'60,H'20,H'02,H'57,H'50,H'01,H'88,H'88,H'00,H'77,H'70,H'00,
             8802468402 +                       H'00,H'00,H'00,H'00,H'00,H'00,H'00,H'00,H'00,H'18,H'00,H'01,H'E7,H'00,H'03,H'FF,
             8C44011624 +                       H'E0,H'01,H'FF,H'F0,H'00,H'7F,H'10,H'01,H'FF,H'08,H'03,H'EF,H'88,H'03,H'C7,H'84,
             02A21C0455 +                       H'03,H'8F,H'C4,H'01,H'17,H'E4,H'02,H'A3,H'FC,H'04,H'77,H'FC,H'04,H'3F,H'FC,H'0A,
             040428C40A +                       H'BF,H'FC,H'07,H'FF,H'F8,H'00,H'7F,H'E0,H'00,H'FF,H'C0,H'01,H'7F,H'E0,H'02,H'5F,
             A02407D058 +                       H'D0,H'01,H'88,H'88,H'00,H'77,H'70,H'00,H'00,H'00,H'00,H'00,H'00,H'00,H'00,H'00
             006FA00090   
             4001602002   
             5750018888   
             0077700000   
             0000000000   
             0000001800   
             01E70003FF   
             E001FFF000   
             7F1001FF08   
             03EF8803C7   
             84038FC401   
             17E402A3FC   




SH SERIES C/C++ Compiler (Ver. 6.0C)                                                                 30-Jan-2015 21:53:33  PAGE  218


SCT OFFSET   CODE       C LABEL     INSTRUCTION OPERAND    COMMENT

             0477FC043F   
             FC0ABFFC07   
             FFF8007FE0   
             00FFC0017F   
             E0025FD001   
             8888007770   
             0000000000   
             00000000     
    00002F32              __$tank2:                        ; static: tank2
    00002F32 00180001E7             .DATA.B     H'00,H'18,H'00,H'01,H'E7,H'00,H'02,H'18,H'E0,H'01,H'85,H'F0,H'00,H'63,H'10,H'01,
             000218E001 +                       H'D1,H'08,H'02,H'2A,H'88,H'02,H'46,H'84,H'02,H'8C,H'44,H'01,H'16,H'24,H'02,H'A2,
             85F0006310 +                       H'1C,H'04,H'55,H'04,H'04,H'28,H'C4,H'0A,H'A0,H'24,H'07,H'C7,H'D8,H'00,H'7E,H'40,
             01D108022A +                       H'00,H'41,H'20,H'00,H'80,H'D0,H'01,H'5D,H'48,H'02,H'22,H'30,H'01,H'DD,H'C0,H'00,
             8802468402 +                       H'00,H'00,H'00,H'00,H'00,H'00,H'00,H'00,H'00,H'18,H'00,H'01,H'E7,H'00,H'03,H'FF,
             8C44011624 +                       H'E0,H'01,H'FF,H'F0,H'00,H'7F,H'10,H'01,H'FF,H'08,H'03,H'EF,H'88,H'03,H'C7,H'84,
             02A21C0455 +                       H'03,H'8F,H'C4,H'01,H'17,H'E4,H'02,H'A3,H'FC,H'04,H'77,H'FC,H'04,H'3F,H'FC,H'0A,
             040428C40A +                       H'BF,H'FC,H'07,H'FF,H'D8,H'00,H'7F,H'C0,H'00,H'7F,H'E0,H'00,H'FF,H'D0,H'01,H'7F,
             A02407C7D8 +                       H'48,H'02,H'22,H'30,H'01,H'DD,H'C0,H'00,H'00,H'00,H'00,H'00,H'00,H'00,H'00,H'00
             007E400041   
             200080D001   
             5D48022230   
             01DDC00000   
             0000000000   
             0000001800   
             01E70003FF   
             E001FFF000   
             7F1001FF08   
             03EF8803C7   
             84038FC401   
             17E402A3FC   
             0477FC043F   
             FC0ABFFC07   
             FFD8007FC0   
             007FE000FF   
             D0017F4802   
             223001DDC0   
             0000000000   
             00000000     
    00002FC2              __$tank3:                        ; static: tank3
    00002FC2 00180001E7             .DATA.B     H'00,H'18,H'00,H'01,H'E7,H'00,H'02,H'18,H'E0,H'01,H'85,H'F0,H'00,H'63,H'10,H'01,
             000218E001 +                       H'D1,H'08,H'02,H'2A,H'88,H'02,H'46,H'84,H'5A,H'8C,H'44,H'A5,H'16,H'24,H'80,H'A2,
             85F0006310 +                       H'1C,H'BB,H'54,H'04,H'65,H'1E,H'04,H'A1,H'11,H'84,H'81,H'10,H'78,H'A3,H'18,H'00,
             01D108022A +                       H'4E,H'A8,H'00,H'50,H'40,H'00,H'20,H'00,H'00,H'00,H'00,H'00,H'00,H'00,H'00,H'00,
             880246845A +                       H'00,H'00,H'00,H'00,H'00,H'00,H'00,H'00,H'00,H'18,H'00,H'01,H'FF,H'00,H'03,H'FF,
             8C44A51624 +                       H'E0,H'01,H'FF,H'F0,H'00,H'7F,H'10,H'01,H'FF,H'08,H'03,H'EF,H'88,H'03,H'C7,H'84,
             80A21CBB54 +                       H'5B,H'8F,H'C4,H'BF,H'17,H'E4,H'9F,H'A3,H'FC,H'BF,H'57,H'FC,H'7F,H'1F,H'FC,H'BF,
             04651E04A1 +                       H'11,H'FC,H'9F,H'10,H'78,H'BF,H'18,H'00,H'5E,H'A8,H'00,H'50,H'40,H'00,H'20,H'00,
             1184811078 +                       H'00,H'00,H'00,H'00,H'00,H'00,H'00,H'00,H'00,H'00,H'00,H'00,H'00,H'00,H'00,H'00
             A318004EA8   
             0050400020   
             0000000000   
             0000000000   
             0000000000   
             0000001800   
             01FF0003FF   
             E001FFF000   
             7F1001FF08   




SH SERIES C/C++ Compiler (Ver. 6.0C)                                                                 30-Jan-2015 21:53:33  PAGE  219


SCT OFFSET   CODE       C LABEL     INSTRUCTION OPERAND    COMMENT

             03EF8803C7   
             845B8FC4BF   
             17E49FA3FC   
             BF57FC7F1F   
             FCBF11FC9F   
             1078BF1800   
             5EA8005040   
             0020000000   
             0000000000   
             0000000000   
             00000000     
    00003052              __$tank4:                        ; static: tank4
    00003052 00180001E7             .DATA.B     H'00,H'18,H'00,H'01,H'E7,H'00,H'02,H'18,H'E0,H'01,H'85,H'F0,H'00,H'63,H'10,H'01,
             000218E001 +                       H'D1,H'08,H'02,H'2A,H'88,H'02,H'46,H'84,H'5A,H'8C,H'44,H'A5,H'16,H'24,H'80,H'A2,
             85F0006310 +                       H'1C,H'BB,H'54,H'04,H'65,H'1E,H'04,H'A1,H'11,H'84,H'81,H'10,H'78,H'A3,H'18,H'00,
             01D108022A +                       H'4E,H'A8,H'00,H'51,H'50,H'00,H'21,H'50,H'00,H'01,H'10,H'00,H'00,H'A0,H'00,H'00,
             880246845A +                       H'A0,H'00,H'00,H'40,H'00,H'00,H'00,H'00,H'00,H'18,H'00,H'01,H'FF,H'00,H'03,H'FF,
             8C44A51624 +                       H'E0,H'01,H'FF,H'F0,H'00,H'7F,H'10,H'01,H'FF,H'08,H'03,H'EF,H'88,H'03,H'C7,H'84,
             80A21CBB54 +                       H'5B,H'8F,H'C4,H'BF,H'17,H'E4,H'9F,H'A3,H'FC,H'BF,H'57,H'FC,H'7F,H'1F,H'FC,H'BF,
             04651E04A1 +                       H'11,H'FC,H'9F,H'10,H'78,H'BF,H'18,H'00,H'5E,H'A8,H'00,H'51,H'50,H'00,H'21,H'50,
             1184811078 +                       H'00,H'01,H'10,H'00,H'00,H'A0,H'00,H'00,H'A0,H'00,H'00,H'40,H'00,H'00,H'00,H'00
             A318004EA8   
             0051500021   
             5000011000   
             00A00000A0   
             0000400000   
             0000001800   
             01FF0003FF   
             E001FFF000   
             7F1001FF08   
             03EF8803C7   
             845B8FC4BF   
             17E49FA3FC   
             BF57FC7F1F   
             FCBF11FC9F   
             1078BF1800   
             5EA8005150   
             0021500001   
             100000A000   
             00A0000040   
             00000000     
    000030E2              __$tank5:                        ; static: tank5
    000030E2 00180001E7             .DATA.B     H'00,H'18,H'00,H'01,H'E7,H'00,H'02,H'18,H'E0,H'01,H'85,H'F0,H'00,H'63,H'10,H'01,
             000218E001 +                       H'D1,H'08,H'02,H'2A,H'88,H'02,H'46,H'84,H'5A,H'8C,H'44,H'A5,H'16,H'24,H'80,H'A2,
             85F0006310 +                       H'1C,H'BB,H'54,H'04,H'65,H'1E,H'04,H'A1,H'11,H'84,H'81,H'10,H'78,H'A3,H'18,H'00,
             01D108022A +                       H'4E,H'A8,H'00,H'52,H'E8,H'00,H'22,H'48,H'00,H'01,H'10,H'00,H'01,H'10,H'00,H'00,
             880246845A +                       H'A0,H'00,H'00,H'40,H'00,H'00,H'00,H'00,H'00,H'18,H'00,H'01,H'FF,H'00,H'03,H'FF,
             8C44A51624 +                       H'E0,H'01,H'FF,H'F0,H'00,H'7F,H'10,H'01,H'FF,H'08,H'03,H'EF,H'88,H'03,H'C7,H'84,
             80A21CBB54 +                       H'5B,H'8F,H'C4,H'BF,H'17,H'E4,H'9F,H'A3,H'FC,H'BF,H'57,H'FC,H'7F,H'1F,H'FC,H'BF,
             04651E04A1 +                       H'11,H'FC,H'9F,H'10,H'78,H'BF,H'18,H'00,H'5E,H'A8,H'00,H'52,H'E8,H'00,H'22,H'48,
             1184811078 +                       H'00,H'01,H'10,H'00,H'01,H'10,H'00,H'00,H'A0,H'00,H'00,H'40,H'00,H'00,H'00,H'00
             A318004EA8   
             0052E80022   
             4800011000   
             01100000A0   
             0000400000   
             0000001800   




SH SERIES C/C++ Compiler (Ver. 6.0C)                                                                 30-Jan-2015 21:53:33  PAGE  220


SCT OFFSET   CODE       C LABEL     INSTRUCTION OPERAND    COMMENT

             01FF0003FF   
             E001FFF000   
             7F1001FF08   
             03EF8803C7   
             845B8FC4BF   
             17E49FA3FC   
             BF57FC7F1F   
             FCBF11FC9F   
             1078BF1800   
             5EA80052E8   
             0022480001   
             1000011000   
             00A0000040   
             00000000     
    00003172              __$tank1Alpha:                   ; static: tank1Alpha
    00003172 FFE7FFFE00             .DATA.B     H'FF,H'E7,H'FF,H'FE,H'00,H'FF,H'FC,H'00,H'1F,H'FE,H'00,H'0F,H'FF,H'80,H'0F,H'FE,
             FFFC001FFE +                       H'00,H'07,H'FC,H'00,H'07,H'FC,H'00,H'03,H'FC,H'00,H'03,H'FE,H'00,H'03,H'FC,H'00,
             000FFF800F +                       H'03,H'F8,H'00,H'03,H'F8,H'00,H'03,H'F0,H'00,H'03,H'F8,H'00,H'07,H'FF,H'80,H'1F,
             FE0007FC00 +                       H'FF,H'00,H'3F,H'FE,H'00,H'1F,H'FC,H'00,H'0F,H'FE,H'00,H'07,H'FF,H'88,H'8F,H'FF,
             07FC0003FC +                       H'FF,H'FF,H'FF,H'FF,H'FF,H'FF,H'FF,H'FF
             0003FE0003   
             FC0003F800   
             03F80003F0   
             0003F80007   
             FF801FFF00   
             3FFE001FFC   
             000FFE0007   
             FF888FFFFF   
             FFFFFFFFFF   
             FFFF         
    000031BA              __$tank2Alpha:                   ; static: tank2Alpha
    000031BA FFE7FFFE00             .DATA.B     H'FF,H'E7,H'FF,H'FE,H'00,H'FF,H'FC,H'00,H'1F,H'FE,H'00,H'0F,H'FF,H'80,H'0F,H'FE,
             FFFC001FFE +                       H'00,H'07,H'FC,H'00,H'07,H'FC,H'00,H'03,H'FC,H'00,H'03,H'FE,H'00,H'03,H'FC,H'00,
             000FFF800F +                       H'03,H'F8,H'00,H'03,H'F8,H'00,H'03,H'F0,H'00,H'03,H'F8,H'00,H'27,H'FF,H'80,H'3F,
             FE0007FC00 +                       H'FF,H'80,H'1F,H'FF,H'00,H'0F,H'FE,H'00,H'07,H'FC,H'00,H'0F,H'FE,H'22,H'3F,H'FF,
             07FC0003FC +                       H'FF,H'FF,H'FF,H'FF,H'FF,H'FF,H'FF,H'FF
             0003FE0003   
             FC0003F800   
             03F80003F0   
             0003F80027   
             FF803FFF80   
             1FFF000FFE   
             0007FC000F   
             FE223FFFFF   
             FFFFFFFFFF   
             FFFF         
    00003202              __$tank3Alpha:                   ; static: tank3Alpha
    00003202 FFE7FFFE00             .DATA.B     H'FF,H'E7,H'FF,H'FE,H'00,H'FF,H'FC,H'00,H'1F,H'FE,H'00,H'0F,H'FF,H'80,H'0F,H'FE,
             FFFC001FFE +                       H'00,H'07,H'FC,H'00,H'07,H'FC,H'00,H'03,H'A4,H'00,H'03,H'00,H'00,H'03,H'00,H'00,
             000FFF800F +                       H'03,H'00,H'00,H'03,H'80,H'00,H'03,H'00,H'0E,H'03,H'00,H'0F,H'87,H'00,H'07,H'FF,
             FE0007FC00 +                       H'81,H'17,H'FF,H'8F,H'BF,H'FF,H'DF,H'FF,H'FF,H'FF,H'FF,H'FF,H'FF,H'FF,H'FF,H'FF,
             07FC0003A4 +                       H'FF,H'FF,H'FF,H'FF,H'FF,H'FF,H'FF,H'FF
             0003000003   
             0000030000   
             0380000300   
             0E03000F87   
             0007FF8117   




SH SERIES C/C++ Compiler (Ver. 6.0C)                                                                 30-Jan-2015 21:53:33  PAGE  221


SCT OFFSET   CODE       C LABEL     INSTRUCTION OPERAND    COMMENT

             FF8FBFFFDF   
             FFFFFFFFFF   
             FFFFFFFFFF   
             FFFFFFFFFF   
             FFFF         
    0000324A              __$tank4Alpha:                   ; static: tank4Alpha
    0000324A FFE7FFFE00             .DATA.B     H'FF,H'E7,H'FF,H'FE,H'00,H'FF,H'FC,H'00,H'1F,H'FE,H'00,H'0F,H'FF,H'80,H'0F,H'FE,
             FFFC001FFE +                       H'00,H'07,H'FC,H'00,H'07,H'FC,H'00,H'03,H'A4,H'00,H'03,H'00,H'00,H'03,H'00,H'00,
             000FFF800F +                       H'03,H'00,H'00,H'03,H'80,H'00,H'03,H'00,H'0E,H'03,H'00,H'0F,H'87,H'00,H'07,H'FF,
             FE0007FC00 +                       H'80,H'07,H'FF,H'8E,H'0F,H'FF,H'DE,H'0F,H'FF,H'FE,H'0F,H'FF,H'FF,H'1F,H'FF,H'FF,
             07FC0003A4 +                       H'1F,H'FF,H'FF,H'BF,H'FF,H'FF,H'FF,H'FF
             0003000003   
             0000030000   
             0380000300   
             0E03000F87   
             0007FF8007   
             FF8E0FFFDE   
             0FFFFE0FFF   
             FF1FFFFF1F   
             FFFFBFFFFF   
             FFFF         
    00003292              __$tank5Alpha:                   ; static: tank5Alpha
    00003292 FFE7FFFE00             .DATA.B     H'FF,H'E7,H'FF,H'FE,H'00,H'FF,H'FC,H'00,H'1F,H'FE,H'00,H'0F,H'FF,H'80,H'0F,H'FE,
             FFFC001FFE +                       H'00,H'07,H'FC,H'00,H'07,H'FC,H'00,H'03,H'A4,H'00,H'03,H'00,H'00,H'03,H'00,H'00,
             000FFF800F +                       H'03,H'00,H'00,H'03,H'80,H'00,H'03,H'00,H'0E,H'03,H'00,H'0F,H'87,H'00,H'07,H'FF,
             FE0007FC00 +                       H'80,H'07,H'FF,H'8C,H'07,H'FF,H'DC,H'07,H'FF,H'FE,H'0F,H'FF,H'FE,H'0F,H'FF,H'FF,
             07FC0003A4 +                       H'1F,H'FF,H'FF,H'BF,H'FF,H'FF,H'FF,H'FF
             0003000003   
             0000030000   
             0380000300   
             0E03000F87   
             0007FF8007   
             FF8C07FFDC   
             07FFFE0FFF   
             FE0FFFFF1F   
             FFFFBFFFFF   
             FFFF         
    000032DA              __$dragonMilieu:                 ; static: dragonMilieu
    000032DA FFE0000040             .DATA.B     H'FF,H'E0,H'00,H'00,H'40,H'97,H'80,H'00,H'30,H'88,H'40,H'00,H'0F,H'08,H'20,H'00,
             9780003088 +                       H'10,H'90,H'18,H'40,H'0F,H'20,H'67,H'A0,H'C4,H'93,H'80,H'10,H'3A,H'54,H'40,H'10,
             40000F0820 +                       H'04,H'49,H'A4,H'10,H'8F,H'89,H'9B,H'A0,H'82,H'48,H'00,H'40,H'02,H'48,H'06,H'80,
             0010901840 +                       H'3A,H'A4,H'19,H'00,H'C5,H'53,H'E0,H'00,H'00,H'8C,H'00,H'00,H'01,H'F0,H'00,H'00,
             0F2067A0C4 +                       H'FF,H'E0,H'00,H'00,H'7F,H'97,H'80,H'00,H'3F,H'88,H'40,H'00,H'0F,H'08,H'20,H'00,
             9380103A54 +                       H'1F,H'90,H'18,H'40,H'0F,H'20,H'67,H'A0,H'C7,H'93,H'80,H'10,H'FF,H'D7,H'C0,H'10,
             40100449A4 +                       H'FF,H'CF,H'E4,H'10,H'FF,H'8F,H'FF,H'A0,H'FF,H'CF,H'FF,H'C0,H'FF,H'CF,H'FF,H'80,
             108F899BA0 +                       H'FF,H'E7,H'F9,H'00,H'C5,H'F3,H'E0,H'00,H'00,H'FC,H'00,H'00,H'01,H'F0,H'00,H'00
             8248004002   
             4806803AA4   
             1900C553E0   
             00008C0000   
             01F00000FF   
             E000007F97   
             80003F8840   
             000F082000   
             1F9018400F   
             2067A0C793   
             8010FFD7C0   




SH SERIES C/C++ Compiler (Ver. 6.0C)                                                                 30-Jan-2015 21:53:33  PAGE  222


SCT OFFSET   CODE       C LABEL     INSTRUCTION OPERAND    COMMENT

             10FFCFE410   
             FF8FFFA0FF   
             CFFFC0FFCF   
             FF80FFE7F9   
             00C5F3E000   
             00FC000001   
             F00000       
    0000335A              __$dragonBas:                    ; static: dragonBas
    0000335A FFE0000040             .DATA.B     H'FF,H'E0,H'00,H'00,H'40,H'90,H'00,H'00,H'30,H'8F,H'80,H'00,H'0F,H'08,H'40,H'00,
             900000308F +                       H'10,H'88,H'20,H'00,H'0F,H'10,H'18,H'40,H'C4,H'A0,H'67,H'A0,H'3A,H'53,H'80,H'10,
             80000F0840 +                       H'04,H'54,H'40,H'10,H'8F,H'88,H'24,H'10,H'82,H'4B,H'5B,H'A0,H'02,H'4B,H'40,H'40,
             0010882000 +                       H'3A,H'A8,H'40,H'00,H'C5,H'54,H'92,H'00,H'00,H'8A,H'6D,H'00,H'01,H'F1,H'01,H'00,
             0F101840C4 +                       H'00,H'00,H'FE,H'00,H'FF,H'E0,H'00,H'00,H'7F,H'90,H'00,H'00,H'3F,H'8F,H'80,H'00,
             A067A03A53 +                       H'0F,H'08,H'40,H'00,H'1F,H'88,H'20,H'00,H'0F,H'10,H'18,H'40,H'C7,H'A0,H'67,H'A0,
             8010045440 +                       H'FB,H'D3,H'80,H'10,H'FF,H'D7,H'C0,H'10,H'FF,H'8F,H'E4,H'10,H'FF,H'CF,H'DB,H'A0,
             108F882410 +                       H'FF,H'CF,H'C0,H'40,H'FF,H'EF,H'C0,H'00,H'C5,H'F7,H'92,H'00,H'00,H'FB,H'FF,H'00,
             824B5BA002 +                       H'01,H'F1,H'FF,H'00,H'00,H'00,H'FE,H'00
             4B40403AA8   
             4000C55492   
             00008A6D00   
             01F1010000   
             00FE00FFE0   
             00007F9000   
             003F8F8000   
             0F0840001F   
             8820000F10   
             1840C7A067   
             A0FBD38010   
             FFD7C010FF   
             8FE410FFCF   
             DBA0FFCFC0   
             40FFEFC000   
             C5F7920000   
             FBFF0001F1   
             FF000000FE   
             00           
    000033E2              __$dragonHaut:                   ; static: dragonHaut
    000033E2 FFE7800040             .DATA.B     H'FF,H'E7,H'80,H'00,H'40,H'98,H'40,H'00,H'30,H'88,H'20,H'00,H'0F,H'10,H'18,H'40,
             9840003088 +                       H'10,H'A0,H'67,H'A0,H'0F,H'13,H'80,H'10,H'C4,H'94,H'40,H'10,H'3A,H'48,H'24,H'10,
             20000F1018 +                       H'04,H'4B,H'1B,H'A0,H'8F,H'8B,H'00,H'40,H'82,H'48,H'06,H'80,H'02,H'44,H'19,H'00,
             4010A067A0 +                       H'3A,H'A3,H'E0,H'00,H'C5,H'52,H'00,H'00,H'00,H'8C,H'00,H'00,H'01,H'F0,H'00,H'00,
             0F138010C4 +                       H'FF,H'E7,H'80,H'00,H'7F,H'98,H'40,H'00,H'3F,H'88,H'20,H'00,H'0F,H'10,H'18,H'40,
             9440103A48 +                       H'1F,H'A0,H'67,H'A0,H'0F,H'13,H'80,H'10,H'C7,H'97,H'C0,H'10,H'FF,H'CF,H'E4,H'10,
             2410044B1B +                       H'FF,H'CF,H'FF,H'A0,H'FF,H'8F,H'FF,H'C0,H'FF,H'CF,H'FF,H'80,H'FF,H'C7,H'F9,H'00,
             A08F8B0040 +                       H'FF,H'E3,H'E0,H'00,H'C5,H'F2,H'00,H'00,H'00,H'FC,H'00,H'00,H'01,H'F0,H'00,H'00
             8248068002   
             4419003AA3   
             E000C55200   
             00008C0000   
             01F00000FF   
             E780007F98   
             40003F8820   
             000F101840   
             1FA067A00F   
             138010C797   
             C010FFCFE4   
             10FFCFFFA0   




SH SERIES C/C++ Compiler (Ver. 6.0C)                                                                 30-Jan-2015 21:53:33  PAGE  223


SCT OFFSET   CODE       C LABEL     INSTRUCTION OPERAND    COMMENT

             FF8FFFC0FF   
             CFFF80FFC7   
             F900FFE3E0   
             00C5F20000   
             00FC000001   
             F00000       
    00003462              __$dragonMilieuAlpha:            ; static: dragonMilieuAlpha
    00003462 001FFFF080             .DATA.B     H'00,H'1F,H'FF,H'F0,H'80,H'08,H'7F,H'F0,H'C0,H'00,H'3F,H'F0,H'F0,H'00,H'1F,H'F0,
             087FF0C000 +                       H'E0,H'00,H'07,H'B0,H'F0,H'00,H'00,H'10,H'38,H'00,H'00,H'00,H'00,H'00,H'00,H'00,
             3FF0F0001F +                       H'00,H'00,H'00,H'00,H'00,H'00,H'00,H'10,H'00,H'00,H'00,H'30,H'00,H'00,H'00,H'70,
             F0E00007B0 +                       H'00,H'00,H'06,H'F0,H'3A,H'00,H'1F,H'F0,H'FF,H'03,H'FF,H'F0,H'FE,H'0F,H'FF,H'F0
             F000001038   
             0000000000   
             0000000000   
             0000000010   
             0000003000   
             0000700000   
             06F03A001F   
             F0FF03FFF0   
             FE0FFFF0     
    000034A2              __$dragonBasAlpha:               ; static: dragonBasAlpha
    000034A2 001FFFF080             .DATA.B     H'00,H'1F,H'FF,H'F0,H'80,H'0F,H'FF,H'F0,H'C0,H'00,H'7F,H'F0,H'F0,H'00,H'3F,H'F0,
             0FFFF0C000 +                       H'E0,H'00,H'1F,H'F0,H'F0,H'00,H'07,H'B0,H'38,H'00,H'00,H'10,H'00,H'00,H'00,H'00,
             7FF0F0003F +                       H'00,H'00,H'00,H'00,H'00,H'00,H'00,H'00,H'00,H'00,H'24,H'10,H'00,H'00,H'3F,H'B0,
             F0E0001FF0 +                       H'00,H'00,H'3F,H'F0,H'3A,H'08,H'6D,H'F0,H'FF,H'04,H'00,H'F0,H'FE,H'0E,H'00,H'F0,
             F00007B038 +                       H'FF,H'FF,H'01,H'F0
             0000100000   
             0000000000   
             0000000000   
             0000241000   
             003FB00000   
             3FF03A086D   
             F0FF0400F0   
             FE0E00F0FF   
             FF01F0       
    000034E6              __$dragonHautAlpha:              ; static: dragonHautAlpha
    000034E6 00187FF080             .DATA.B     H'00,H'18,H'7F,H'F0,H'80,H'00,H'3F,H'F0,H'C0,H'00,H'1F,H'F0,H'F0,H'00,H'07,H'B0,
             003FF0C000 +                       H'E0,H'00,H'00,H'10,H'F0,H'00,H'00,H'00,H'38,H'00,H'00,H'00,H'00,H'00,H'00,H'00,
             1FF0F00007 +                       H'00,H'00,H'00,H'10,H'00,H'00,H'00,H'30,H'00,H'00,H'00,H'70,H'00,H'00,H'06,H'F0,
             B0E0000010 +                       H'00,H'00,H'1F,H'F0,H'3A,H'01,H'FF,H'F0,H'FF,H'03,H'FF,H'F0,H'FE,H'0F,H'FF,H'F0
             F000000038   
             0000000000   
             0000000000   
             1000000030   
             0000007000   
             0006F00000   
             1FF03A01FF   
             F0FF03FFF0   
             FE0FFFF0     
    00003526              __$glace:                        ; static: glace
    00003526 0000000000             .DATA.B     H'00,H'00,H'00,H'00,H'00,H'00,H'03,H'C0,H'0C,H'30,H'10,H'08,H'20,H'78,H'39,H'84,
             0003C00C30 +                       H'46,H'04,H'41,H'04,H'41,H'12,H'92,H'82,H'84,H'41,H'84,H'41,H'78,H'3E,H'07,H'C0,
             1008207839 +                       H'00,H'00,H'00,H'00,H'00,H'00,H'00,H'00,H'0F,H'F0,H'10,H'08,H'22,H'78,H'39,H'84,
             8446044104 +                       H'46,H'04,H'41,H'04,H'49,H'12,H'92,H'92,H'84,H'41,H'84,H'41,H'78,H'3E,H'07,H'C0,
             4112928284 +                       H'00,H'00,H'00,H'00,H'00,H'00,H'00,H'00,H'00,H'00,H'1F,H'F0,H'22,H'08,H'39,H'F4,
             418441783E +                       H'46,H'04,H'41,H'04,H'49,H'12,H'92,H'92,H'E4,H'49,H'84,H'45,H'79,H'3E,H'07,H'C0,
             07C0000000 +                       H'00,H'00,H'00,H'00,H'00,H'00,H'00,H'00,H'00,H'00,H'00,H'00,H'00,H'38,H'3F,H'C4,




SH SERIES C/C++ Compiler (Ver. 6.0C)                                                                 30-Jan-2015 21:53:33  PAGE  224


SCT OFFSET   CODE       C LABEL     INSTRUCTION OPERAND    COMMENT

             0000000000 +                       H'66,H'AC,H'51,H'24,H'49,H'12,H'92,H'92,H'E4,H'49,H'86,H'45,H'79,H'3E,H'07,H'C0
             0FF0100822   
             7839844604   
             4104491292   
             9284418441   
             783E07C000   
             0000000000   
             000000001F   
             F0220839F4   
             4604410449   
             129292E449   
             8445793E07   
             C000000000   
             0000000000   
             0000000038   
             3FC466AC51   
             2449129292   
             E449864579   
             3E07C0       
    000035A6              __$glaceAlpha:                   ; static: glaceAlpha
    000035A6 FFFFFFFFFF             .DATA.B     H'FF,H'FF,H'FF,H'FF,H'FF,H'FF,H'FC,H'1F,H'F0,H'0F,H'E0,H'07,H'C0,H'07,H'C0,H'03,
             FFFC1FF00F +                       H'80,H'03,H'80,H'03,H'80,H'01,H'00,H'01,H'00,H'00,H'00,H'00,H'80,H'01,H'F8,H'3F,
             E007C007C0 +                       H'FF,H'FF,H'FF,H'FF,H'FF,H'FF,H'FF,H'FF,H'F0,H'0F,H'E0,H'07,H'C0,H'07,H'C0,H'03,
             0380038003 +                       H'80,H'03,H'80,H'03,H'80,H'01,H'00,H'01,H'00,H'00,H'00,H'00,H'80,H'01,H'F8,H'3F,
             8001000100 +                       H'FF,H'FF,H'FF,H'FF,H'FF,H'FF,H'FF,H'FF,H'FF,H'FF,H'E0,H'0F,H'C0,H'07,H'C0,H'03,
             0000008001 +                       H'80,H'03,H'80,H'03,H'80,H'01,H'00,H'01,H'00,H'00,H'00,H'00,H'80,H'01,H'F8,H'3F,
             F83FFFFFFF +                       H'FF,H'FF,H'FF,H'FF,H'FF,H'FF,H'FF,H'FF,H'FF,H'FF,H'FF,H'FF,H'FF,H'C7,H'C0,H'03,
             FFFFFFFFFF +                       H'80,H'03,H'80,H'03,H'80,H'01,H'00,H'01,H'00,H'00,H'00,H'00,H'80,H'01,H'F8,H'3F
             F00FE007C0   
             07C0038003   
             8003800100   
             0100000000   
             8001F83FFF   
             FFFFFFFFFF   
             FFFFFFFFE0   
             0FC007C003   
             8003800380   
             0100010000   
             00008001F8   
             3FFFFFFFFF   
             FFFFFFFFFF   
             FFFFFFFFC7   
             C003800380   
             0380010001   
             0000000080   
             01F83F       
    00003626              __$gadgets:                      ; static: gadgets
    00003626 7FFE800180             .DATA.B     H'7F,H'FE,H'80,H'01,H'80,H'01,H'8E,H'01,H'9A,H'01,H'9F,H'81,H'91,H'41,H'9E,H'A1,
             018E019A01 +                       H'90,H'51,H'90,H'29,H'90,H'09,H'8F,H'F1,H'80,H'01,H'80,H'01,H'80,H'01,H'7F,H'FE,
             9F8191419E +                       H'7F,H'FE,H'80,H'01,H'87,H'E1,H'88,H'11,H'92,H'09,H'A6,H'05,H'A0,H'05,H'A0,H'FD,
             A190519029 +                       H'BF,H'05,H'A0,H'05,H'A0,H'05,H'90,H'09,H'88,H'11,H'87,H'E1,H'80,H'01,H'7F,H'FE,
             90098FF180 +                       H'7F,H'FE,H'80,H'01,H'87,H'E1,H'88,H'11,H'97,H'E9,H'90,H'09,H'B2,H'2D,H'B1,H'4D,
             0180018001 +                       H'B0,H'8D,H'B2,H'2D,H'91,H'49,H'90,H'89,H'88,H'11,H'87,H'E1,H'80,H'01,H'7F,H'FE,
             7FFE7FFE80 +                       H'7F,H'FE,H'80,H'01,H'80,H'01,H'80,H'C1,H'8F,H'E1,H'9C,H'11,H'B4,H'19,H'A4,H'DD,
             0187E18811 +                       H'B4,H'19,H'9C,H'11,H'8F,H'E1,H'80,H'C1,H'80,H'01,H'80,H'01,H'80,H'01,H'7F,H'FE,
             9209A605A0 +                       H'7F,H'FE,H'80,H'01,H'80,H'01,H'87,H'E1,H'8C,H'31,H'9E,H'79,H'97,H'E9,H'93,H'C9,
             05A0FDBF05 +                       H'93,H'C9,H'97,H'E9,H'9E,H'79,H'8C,H'31,H'87,H'E1,H'80,H'01,H'80,H'01,H'7F,H'FE,




SH SERIES C/C++ Compiler (Ver. 6.0C)                                                                 30-Jan-2015 21:53:33  PAGE  225


SCT OFFSET   CODE       C LABEL     INSTRUCTION OPERAND    COMMENT

             A005A00590 +                       H'7F,H'FE,H'80,H'01,H'83,H'01,H'8C,H'81,H'91,H'41,H'AD,H'21,H'A2,H'21,H'A1,H'D1,
             09881187E1 +                       H'A2,H'11,H'A5,H'11,H'A4,H'89,H'A4,H'89,H'9C,H'79,H'83,H'81,H'80,H'01,H'7F,H'FE,
             80017FFE7F +                       H'7F,H'FE,H'80,H'01,H'80,H'01,H'87,H'E1,H'8A,H'51,H'94,H'29,H'9B,H'D9,H'93,H'49,
             FE800187E1 +                       H'93,H'C9,H'9B,H'D9
             881197E990   
             09B22DB14D   
             B08DB22D91   
             4990898811   
             87E180017F   
             FE7FFE8001   
             800180C18F   
             E19C11B419   
             A4DDB4199C   
             118FE180C1   
             8001800180   
             017FFE7FFE   
             8001800187   
             E18C319E79   
             97E993C993   
             C997E99E79   
             8C3187E180   
             0180017FFE   
             7FFE800183   
             018C819141   
             AD21A221A1   
             D1A211A511   
             A489A4899C   
             7983818001   
             7FFE7FFE80   
             01800187E1   
             8A5194299B   
             D9934993C9   
             9BD9         
    000036FA 94298A5187             .DATA.B     H'94,H'29,H'8A,H'51,H'87,H'E1,H'80,H'01,H'80,H'01,H'7F,H'FE,H'7F,H'FE,H'80,H'01,
             E180018001 +                       H'80,H'01,H'87,H'E1,H'88,H'11,H'92,H'49,H'96,H'69,H'96,H'69,H'96,H'69,H'97,H'E9,
             7FFE7FFE80 +                       H'93,H'C9,H'88,H'11,H'87,H'E1,H'80,H'01,H'80,H'01,H'7F,H'FE,H'7F,H'FE,H'80,H'01,
             01800187E1 +                       H'8F,H'F1,H'90,H'49,H'AE,H'05,H'BB,H'75,H'B1,H'DD,H'BB,H'AD,H'AE,H'DD,H'A7,H'75,
             8811924996 +                       H'AD,H'85,H'A8,H'B5,H'9D,H'89,H'8F,H'F1,H'80,H'01,H'7F,H'FE,H'7F,H'FE,H'80,H'01,
             6996699669 +                       H'80,H'01,H'8E,H'71,H'92,H'49,H'92,H'49,H'A4,H'25,H'BC,H'3D,H'BC,H'3D,H'BC,H'3D,
             97E993C988 +                       H'BE,H'7D,H'9F,H'F9,H'8F,H'F1,H'87,H'E1,H'80,H'01,H'7F,H'FE,H'7F,H'FE,H'80,H'01,
             1187E18001 +                       H'80,H'01,H'87,H'E1,H'88,H'91,H'91,H'C9,H'92,H'09,H'93,H'09,H'90,H'C9,H'90,H'49,
             80017FFE7F +                       H'93,H'89,H'89,H'11,H'87,H'E1,H'80,H'01,H'80,H'01,H'7F,H'FE,H'7F,H'FE,H'80,H'01,
             FE80018FF1 +                       H'80,H'01,H'80,H'01,H'80,H'79,H'80,H'C5,H'95,H'55,H'83,H'55,H'A5,H'55,H'80,H'C5,
             9049AE05BB +                       H'80,H'79,H'80,H'01,H'80,H'01,H'80,H'01,H'80,H'01,H'7F,H'FE
             75B1DDBBAD   
             AEDDA775AD   
             85A8B59D89   
             8FF180017F   
             FE7FFE8001   
             80018E7192   
             499249A425   
             BC3DBC3DBC   
             3DBE7D9FF9   
             8FF187E180   
             017FFE7FFE   
             8001800187   
             E1889191C9   




SH SERIES C/C++ Compiler (Ver. 6.0C)                                                                 30-Jan-2015 21:53:33  PAGE  226


SCT OFFSET   CODE       C LABEL     INSTRUCTION OPERAND    COMMENT

             9209930990   
             C990499389   
             891187E180   
             0180017FFE   
             7FFE800180   
             0180018079   
             80C5955583   
             55A55580C5   
             8079800180   
             0180018001   
             7FFE         
    000037A6              __$levier:                       ; static: levier
    000037A6 07E01C3830             .DATA.B     H'07,H'E0,H'1C,H'38,H'30,H'0C,H'20,H'04,H'66,H'06,H'44,H'02,H'40,H'02,H'40,H'02,
             0C20046606 +                       H'C0,H'03,H'E0,H'07,H'E0,H'07,H'F0,H'0F,H'FC,H'3F,H'E7,H'E7,H'E3,H'C7,H'FF,H'FF,
             4402400240 +                       H'F3,H'CF,H'F3,H'CF,H'F0,H'0F,H'F0,H'0F,H'F0,H'0F,H'F0,H'0F,H'F0,H'0F,H'F0,H'0F,
             02C003E007 +                       H'F0,H'0F,H'F0,H'0F,H'FF,H'FF,H'E0,H'07,H'E0,H'07,H'E0,H'07,H'E0,H'07,H'C0,H'03,
             E007F00FFC +                       H'C0,H'03,H'C0,H'03,H'FF,H'FF,H'FF,H'FF,H'FF,H'FF,H'FC,H'3F,H'F0,H'0F,H'E0,H'07,
             3FE7E7E3C7 +                       H'E6,H'07,H'C4,H'03,H'C0,H'03,H'C0,H'03,H'C0,H'03,H'E0,H'07,H'E0,H'07,H'F0,H'0F,
             FFFFF3CFF3 +                       H'FC,H'3F,H'F7,H'EF,H'F0,H'0F,H'F0,H'0F,H'F0,H'0F,H'F0,H'0F,H'F0,H'0F,H'FF,H'FF,
             CFF00FF00F +                       H'E0,H'07,H'E0,H'07,H'E0,H'07,H'C0,H'03,H'C0,H'03,H'C0,H'03,H'FF,H'FF,H'FF,H'FF
             F00FF00FF0   
             0FF00FF00F   
             F00FFFFFE0   
             07E007E007   
             E007C003C0   
             03C003FFFF   
             FFFFFFFFFC   
             3FF00FE007   
             E607C403C0   
             03C003C003   
             E007E007F0   
             0FFC3FF7EF   
             F00FF00FF0   
             0FF00FF00F   
             FFFFE007E0   
             07E007C003   
             C003C003FF   
             FFFFFF       
    00003826 0000001001             .DATAB.B    16,0
             00           
    00003836 FFFFFFFFC0             .DATA.B     H'FF,H'FF,H'FF,H'FF,H'C0,H'03,H'C0,H'03,H'C0,H'03,H'E0,H'07,H'E0,H'07,H'E7,H'E7,
             03C003C003 +                       H'FC,H'3F,H'F0,H'0F,H'E0,H'07,H'E6,H'07,H'C4,H'03,H'C0,H'03,H'C0,H'03,H'C0,H'03,
             E007E007E7 +                       H'E0,H'07,H'E0,H'07,H'F0,H'0F,H'FC,H'3F,H'E7,H'E7,H'E0,H'07,H'E0,H'07,H'C0,H'03,
             E7FC3FF00F +                       H'C0,H'03,H'C0,H'03,H'FF,H'FF,H'FF,H'FF
             E007E607C4   
             03C003C003   
             C003E007E0   
             07F00FFC3F   
             E7E7E007E0   
             07C003C003   
             C003FFFFFF   
             FF           
    0000386E 0000001001             .DATAB.B    16,0
             00           
    0000387E FFFFFFFFC0             .DATA.B     H'FF,H'FF,H'FF,H'FF,H'C0,H'03,H'C0,H'03,H'C0,H'03,H'E0,H'07,H'E0,H'07,H'E0,H'07,
             03C003C003 +                       H'FF,H'FF,H'F0,H'0F,H'F0,H'0F,H'F0,H'0F,H'F0,H'0F,H'F0,H'0F,H'F7,H'EF,H'FC,H'3F,
             E007E007E0 +                       H'F0,H'0F,H'E0,H'07,H'E6,H'07,H'C4,H'03,H'C0,H'03,H'C0,H'03,H'C0,H'03,H'E0,H'07,




SH SERIES C/C++ Compiler (Ver. 6.0C)                                                                 30-Jan-2015 21:53:33  PAGE  227


SCT OFFSET   CODE       C LABEL     INSTRUCTION OPERAND    COMMENT

             07FFFFF00F +                       H'E0,H'07,H'F0,H'0F,H'FC,H'3F,H'FF,H'FF
             F00FF00FF0   
             0FF00FF7EF   
             FC3FF00FE0   
             07E607C403   
             C003C003C0   
             03E007E007   
             F00FFC3FFF   
             FF           
    000038B6 0000001001             .DATAB.B    16,0
             00           
    000038C6 FFFFFFFFC0             .DATA.B     H'FF,H'FF,H'FF,H'FF,H'C0,H'03,H'C0,H'03,H'C0,H'03,H'E0,H'07,H'E0,H'07,H'E0,H'07,
             03C003C003 +                       H'E0,H'07,H'FF,H'FF,H'F0,H'0F,H'F0,H'0F,H'F0,H'0F,H'F0,H'0F,H'F0,H'0F,H'F0,H'0F,
             E007E007E0 +                       H'F0,H'0F,H'F0,H'0F,H'F3,H'CF,H'F3,H'CF,H'FF,H'FF,H'E3,H'C7,H'E7,H'E7,H'FC,H'3F,
             07E007FFFF +                       H'F0,H'0F,H'E0,H'07,H'E6,H'07,H'C4,H'03,H'40,H'02,H'40,H'02,H'40,H'02,H'60,H'06,
             F00FF00FF0 +                       H'20,H'04,H'30,H'0C,H'1C,H'38,H'07,H'E0
             0FF00FF00F   
             F00FF00FF0   
             0FF3CFF3CF   
             FFFFE3C7E7   
             E7FC3FF00F   
             E007E607C4   
             0340024002   
             4002600620   
             04300C1C38   
             07E0         
    0000390E              __$lotsTirage:                   ; static: lotsTirage
    0000390E 0000000000             .DATA.B     H'00,H'00,H'00,H'00,H'00,H'00,H'00,H'00,H'00,H'00,H'00,H'00,H'00,H'00,H'00,H'03,
             0000000000 +                       H'C0,H'00,H'04,H'20,H'00,H'05,H'20,H'00,H'04,H'20,H'00,H'04,H'20,H'00,H'03,H'C0,
             0000000000 +                       H'00,H'00,H'00,H'00,H'00,H'00,H'00,H'00,H'00,H'00,H'00,H'00,H'00,H'00,H'00,H'00,
             03C0000420 +                       H'00,H'00,H'00,H'00,H'00,H'00,H'00,H'00,H'00,H'03,H'C0,H'00,H'04,H'20,H'00,H'05,
             0005200004 +                       H'20,H'00,H'04,H'20,H'00,H'04,H'20,H'00,H'03,H'C0,H'00,H'00,H'00,H'00,H'1E,H'3C,
             2000042000 +                       H'00,H'21,H'42,H'00,H'29,H'52,H'00,H'21,H'42,H'00,H'21,H'42,H'00,H'1E,H'3C,H'00,
             03C0000000 +                       H'00,H'00,H'00,H'00,H'00,H'00,H'00,H'00,H'00,H'00,H'00,H'00,H'0F,H'3C,H'00,H'1E,
             0000000000 +                       H'C2,H'00,H'21,H'D2,H'00,H'29,H'7A,H'00,H'21,H'86,H'00,H'2F,H'A4,H'00,H'10,H'84,
             0000000000 +                       H'00,H'34,H'86,H'00,H'50,H'FE,H'00,H'50,H'A1,H'00,H'4F,H'29,H'00,H'42,H'21,H'00,
             0000000000 +                       H'3D,H'E1,H'00,H'00,H'1E,H'00,H'00,H'00,H'00,H'00,H'00,H'00,H'00,H'00,H'00,H'00,
             0000000000 +                       H'00,H'00,H'00,H'07,H'00,H'00,H'28,H'00,H'00,H'70,H'00,H'00,H'B8,H'00,H'01,H'70,
             000003C000 +                       H'00,H'03,H'E0,H'00,H'07,H'C0,H'00,H'0F,H'80,H'00,H'1F,H'00,H'00,H'3E,H'00,H'00,
             0420000520 +                       H'7C,H'00,H'00,H'38,H'00,H'00,H'10,H'00,H'00,H'00,H'00,H'00,H'00,H'00,H'00,H'00,
             0004200004 +                       H'60,H'00,H'00,H'80
             200003C000   
             0000001E3C   
             0021420029   
             5200214200   
             2142001E3C   
             0000000000   
             0000000000   
             0000000F3C   
             001EC20021   
             D200297A00   
             2186002FA4   
             0010840034   
             860050FE00   
             50A1004F29   
             004221003D   
             E100001E00   




SH SERIES C/C++ Compiler (Ver. 6.0C)                                                                 30-Jan-2015 21:53:33  PAGE  228


SCT OFFSET   CODE       C LABEL     INSTRUCTION OPERAND    COMMENT

             0000000000   
             0000000000   
             0000000700   
             0028000070   
             0000B80001   
             700003E000   
             07C0000F80   
             001F00003E   
             00007C0000   
             3800001000   
             0000000000   
             0000006000   
             0080         
    000039E2 0000800001             .DATA.B     H'00,H'00,H'80,H'00,H'01,H'C0,H'00,H'07,H'F0,H'00,H'0F,H'F8,H'00,H'19,H'FC,H'00,
             C00007F000 +                       H'1B,H'FC,H'00,H'3F,H'FE,H'00,H'3F,H'FE,H'00,H'3F,H'FE,H'00,H'1F,H'FC,H'00,H'1F,
             0FF80019FC +                       H'FC,H'00,H'0F,H'F8,H'00,H'07,H'F0,H'00,H'01,H'C0,H'00,H'01,H'C0,H'00,H'0E,H'38,
             001BFC003F +                       H'00,H'30,H'06,H'00,H'41,H'09,H'00,H'55,H'29,H'00,H'3F,H'FE,H'00,H'01,H'40,H'00,
             FE003FFE00 +                       H'1F,H'7C,H'00,H'61,H'43,H'00,H'3F,H'FE,H'00,H'01,H'40,H'00,H'02,H'20,H'00,H'02,
             3FFE001FFC +                       H'A0,H'00,H'04,H'90,H'00,H'39,H'6E,H'00,H'46,H'11,H'00,H'FF,H'FF,H'80,H'00,H'00,
             001FFC000F +                       H'00,H'00,H'00,H'00,H'1E,H'3C,H'00,H'3F,H'7E,H'00,H'67,H'FF,H'00,H'6F,H'FF,H'00,
             F80007F000 +                       H'7F,H'FF,H'00,H'7F,H'FF,H'00,H'7F,H'FF,H'00,H'3F,H'FE,H'00,H'1F,H'FC,H'00,H'0F,
             01C00001C0 +                       H'F8,H'00,H'07,H'F0,H'00,H'03,H'E0,H'00,H'01,H'C0,H'00,H'00,H'80,H'00,H'00,H'00,
             000E380030 +                       H'00,H'00,H'00,H'00,H'01,H'C0,H'00,H'02,H'20,H'00,H'05,H'50,H'00,H'04,H'90,H'00,
             0600410900 +                       H'05,H'50,H'00,H'02,H'20,H'00,H'01,H'C0,H'00,H'38,H'0E,H'00,H'44,H'11,H'00,H'AA,
             5529003FFE +                       H'2A,H'80,H'92,H'24,H'80,H'AA,H'2A,H'80,H'44,H'11,H'00,H'38,H'0E,H'00,H'00,H'00,
             000140001F +                       H'00,H'00,H'00,H'00,H'00,H'00,H'00,H'00,H'00,H'00,H'00,H'00,H'00,H'00,H'00,H'00,
             7C00614300 +                       H'78,H'00,H'00,H'84
             3FFE000140   
             0002200002   
             A000049000   
             396E004611   
             00FFFF8000   
             0000000000   
             1E3C003F7E   
             0067FF006F   
             FF007FFF00   
             7FFF007FFF   
             003FFE001F   
             FC000FF800   
             07F00003E0   
             0001C00000   
             8000000000   
             00000001C0   
             0002200005   
             5000049000   
             0550000220   
             0001C00038   
             0E00441100   
             AA2A809224   
             80AA2A8044   
             1100380E00   
             0000000000   
             0000000000   
             0000000000   
             0000007800   
             0084         
    00003AB6 0E00A41100             .DATA.B     H'0E,H'00,H'A4,H'11,H'00,H'84,H'11,H'00,H'78,H'02,H'00,H'85,H'44,H'00,H'A4,H'88,




SH SERIES C/C++ Compiler (Ver. 6.0C)                                                                 30-Jan-2015 21:53:33  PAGE  229


SCT OFFSET   CODE       C LABEL     INSTRUCTION OPERAND    COMMENT

             8411007802 +                       H'00,H'85,H'5F,H'00,H'84,H'00,H'00,H'78,H'00,H'00,H'00,H'00,H'00,H'00,H'00,H'00,
             00854400A4 +                       H'00,H'00,H'00,H'00,H'00,H'00,H'00,H'00,H'00,H'00,H'00,H'00,H'00,H'00,H'00,H'3F,
             8800855F00 +                       H'F8,H'00,H'40,H'04,H'00,H'51,H'12,H'00,H'48,H'89,H'00,H'44,H'45,H'00,H'48,H'89,
             8400007800 +                       H'00,H'51,H'12,H'00,H'40,H'04,H'00,H'3F,H'F8,H'00,H'00,H'00,H'00,H'00,H'00,H'00,
             0000000000 +                       H'00,H'00,H'00,H'00,H'00,H'00
             0000000000   
             0000000000   
             0000000000   
             00003FF800   
             4004005112   
             0048890044   
             4500488900   
             5112004004   
             003FF80000   
             0000000000   
             0000000000   
             00           
    00003B0C              __$trefle:                       ; static: trefle
    00003B0C 03E0000C18             .DATA.B     H'03,H'E0,H'00,H'0C,H'18,H'00,H'10,H'04,H'00,H'27,H'72,H'00,H'4F,H'79,H'00,H'4F,
             0010040027 +                       H'F9,H'00,H'8F,H'F8,H'80,H'83,H'E0,H'80,H'8F,H'F8,H'80,H'8F,H'F8,H'80,H'8F,H'78,
             72004F7900 +                       H'80,H'47,H'71,H'00,H'40,H'81,H'00,H'20,H'82,H'00,H'11,H'04,H'00,H'0C,H'18,H'00,
             4FF9008FF8 +                       H'03,H'E0,H'00
             8083E0808F   
             F8808FF880   
             8F78804771   
             0040810020   
             8200110400   
             0C180003E0   
             00           
    00003B3F 00000001               .RES.B      1
    00003B40              L615:
    00003B40 2564204D               .SDATA      "%d M"
    00003B44 00                     .DATA.B     H'00
    00003B45 00000001               .RES.B      1
    00003B46 00000002               .RES.W      1
    00003B48              L616:
    00003B48 25642024               .SDATA      "%d $"
    00003B4C 00                     .DATA.B     H'00
    00003B4D 00000001               .RES.B      1
    00003B4E 00000002               .RES.W      1
    00003B50              L629:
    00003B50 0000000000             .DATA.L     H'00000000,H'00002710,H'00001B58,H'00002328,H'00001770,H'00001B58
             0027100000   
             1B58000023   
             2800001770   
             00001B58     
    00003B68              L631:
    00003B68 <00000000>             .DATA.L     L632,L633,L634,L635,L636,L634
             <00000000>   
             <00000000>   
             <00000000>   
             <00000000>   
             <00000000>   
    00003B80              L638:
    00003B80 <00000000>             .DATA.L     L639,L640,L641,L642,L643,L644
             <00000000>   
             <00000000>   




SH SERIES C/C++ Compiler (Ver. 6.0C)                                                                 30-Jan-2015 21:53:33  PAGE  230


SCT OFFSET   CODE       C LABEL     INSTRUCTION OPERAND    COMMENT

             <00000000>   
             <00000000>   
             <00000000>   
    00003B98              L647:
    00003B98 256424                 .SDATA      "%d$"
    00003B9B 00                     .DATA.B     H'00
    00003B9C              L649:
    00003B9C 4571756970             .SDATA      "Equiper"
             6572         
    00003BA3 00                     .DATA.B     H'00
    00003BA4              L674:
    00003BA4 0000000000             .DATA.L     H'00000000,H'00009C40,H'0000C350,H'00004E20
             009C400000   
             C35000004E   
             20           
    00003BB4              L676:
    00003BB4 <00000000>             .DATA.L     L632,L677,L678,L679
             <00000000>   
             <00000000>   
             <00000000>   
    00003BC4              L681:
    00003BC4 <00000000>             .DATA.L     L682,L683,L684,L685,L686
             <00000000>   
             <00000000>   
             <00000000>   
             <00000000>   
    00003BD8              L716:
    00003BD8 <00000000>             .DATA.L     L717,L718,L719,L720,L721,L722
             <00000000>   
             <00000000>   
             <00000000>   
             <00000000>   
             <00000000>   
    00003BF0              L724:
    00003BF0 <00000000>             .DATA.L     L725,L726,L727,L728,L729,L730,L731,L732,L733,L734,L735,L736,L737
             <00000000>   
             <00000000>   
             <00000000>   
             <00000000>   
             <00000000>   
             <00000000>   
             <00000000>   
             <00000000>   
             <00000000>   
             <00000000>   
             <00000000>   
             <00000000>   
    00003C24              L766:
    00003C24 <00000000>             .DATA.L     L767,L768,L769,L770,L771,L772,L773,L774,L775,L776,L777,L778
             <00000000>   
             <00000000>   
             <00000000>   
             <00000000>   
             <00000000>   
             <00000000>   
             <00000000>   
             <00000000>   




SH SERIES C/C++ Compiler (Ver. 6.0C)                                                                 30-Jan-2015 21:53:33  PAGE  231


SCT OFFSET   CODE       C LABEL     INSTRUCTION OPERAND    COMMENT

             <00000000>   
             <00000000>   
             <00000000>   
    00003C54              L780:
    00003C54 <00000000>             .DATA.L     L781,L782,L783,L784,L785,L786,L787,L788,L789,L790,L791,L792
             <00000000>   
             <00000000>   
             <00000000>   
             <00000000>   
             <00000000>   
             <00000000>   
             <00000000>   
             <00000000>   
             <00000000>   
             <00000000>   
             <00000000>   
    00003C84              L794:
    00003C84 <00000000>             .DATA.L     L632,L795,L796,L797,L798,L799,L800,L801,L802,L803,L804,L805
             <00000000>   
             <00000000>   
             <00000000>   
             <00000000>   
             <00000000>   
             <00000000>   
             <00000000>   
             <00000000>   
             <00000000>   
             <00000000>   
             <00000000>   
    00003CB4              L807:
    00003CB4 <00000000>             .DATA.L     L632,L808,L632,L809,L810,L811,L812,L813,L632,L814,L815,L816
             <00000000>   
             <00000000>   
             <00000000>   
             <00000000>   
             <00000000>   
             <00000000>   
             <00000000>   
             <00000000>   
             <00000000>   
             <00000000>   
             <00000000>   
    00003CE4              L834:
    00003CE4 <00000000>             .DATA.L     L835,L836,L837,L838
             <00000000>   
             <00000000>   
             <00000000>   
    00003CF4              L844:
    00003CF4 2564                   .SDATA      "%d"
    00003CF6 00                     .DATA.B     H'00
    00003CF7 00000001               .RES.B      1
    00003CF8              L845:
    00003CF8 5B2D5D                 .SDATA      "[-]"
    00003CFB 00                     .DATA.B     H'00
    00003CFC              L846:
    00003CFC 5B2B5D                 .SDATA      "[+]"
    00003CFF 00                     .DATA.B     H'00




SH SERIES C/C++ Compiler (Ver. 6.0C)                                                                 30-Jan-2015 21:53:33  PAGE  232


SCT OFFSET   CODE       C LABEL     INSTRUCTION OPERAND    COMMENT

    00003D00              L847:
    00003D00 5B45584954             .SDATA      "[EXIT]     [EXE]"
             5D20202020   
             205B455845   
             5D           
    00003D10 00                     .DATA.B     H'00
    00003D11 00000001               .RES.B      1
    00003D12 00000002               .RES.W      1
    00003D14              L855:
    00003D14 3D3D3D2043             .SDATA      "=== CREDITS ==="
             5245444954   
             53203D3D3D   
    00003D23 00                     .DATA.B     H'00
    00003D24              L856:
    00003D24 50524F4A45             .SDATA      "PROJET :"
             54203A       
    00003D2C 00                     .DATA.B     H'00
    00003D2D 00000001               .RES.B      1
    00003D2E 00000002               .RES.W      1
    00003D30              L857:
    00003D30 444556454C             .SDATA      "DEVELOPPEUR : DRAKALEX007"
             4F50504555   
             52203A2044   
             52414B414C   
             4558303037   
    00003D49 00                     .DATA.B     H'00
    00003D4A 00000002               .RES.W      1
    00003D4C              L858:
    00003D4C 4752415048             .SDATA      "GRAPHISTE : DRAKALEX007"
             4953544520   
             3A20445241   
             4B414C4558   
             303037       
    00003D63 00                     .DATA.B     H'00
    00003D64              L859:
    00003D64 4C414E4345             .SDATA      "LANCEMENT DU PROJET : 06/06/14"
             4D454E5420   
             4455205052   
             4F4A455420   
             3A2030362F   
             30362F3134   
    00003D82 00                     .DATA.B     H'00
    00003D83 00000001               .RES.B      1
    00003D84              L860:
    00003D84 534F525449             .SDATA      "SORTIE DU JEU : 20/01/2015"
             4520445520   
             4A4555203A   
             2032302F30   
             312F323031   
             35           
    00003D9E 00                     .DATA.B     H'00
    00003D9F 00000001               .RES.B      1
    00003DA0              L861:
    00003DA0 494E464F52             .SDATA      "INFORMATIONS :"
             4D4154494F   
             4E53203A     
    00003DAE 00                     .DATA.B     H'00




SH SERIES C/C++ Compiler (Ver. 6.0C)                                                                 30-Jan-2015 21:53:33  PAGE  233


SCT OFFSET   CODE       C LABEL     INSTRUCTION OPERAND    COMMENT

    00003DAF 00000001               .RES.B      1
    00003DB0              L862:
    00003DB0 4C49474E45             .SDATA      "LIGNES DE CODE : 3692"
             5320444520   
             434F444520   
             3A20333639   
             32           
    00003DC5 00                     .DATA.B     H'00
    00003DC6 00000002               .RES.W      1
    00003DC8              L863:
    00003DC8 5350524954             .SDATA      "SPRITES : 364"
             4553203A20   
             333634       
    00003DD5 00                     .DATA.B     H'00
    00003DD6 00000002               .RES.W      1
    00003DD8              L864:
    00003DD8 52454D4552             .SDATA      "REMERCIEMENTS SPECIAUX :"
             4349454D45   
             4E54532053   
             5045434941   
             5558203A     
    00003DF0 00                     .DATA.B     H'00
    00003DF1 00000001               .RES.B      1
    00003DF2 00000002               .RES.W      1
    00003DF4              L865:
    00003DF4 4C45504845             .SDATA      "LEPHENIXNOIR !"
             4E49584E4F   
             49522021     
    00003E02 00                     .DATA.B     H'00
    00003E03 00000001               .RES.B      1
    00003E04              L866:
    00003E04 4441524B53             .SDATA      "DARKSTORM"
             544F524D     
    00003E0D 00                     .DATA.B     H'00
    00003E0E 00000002               .RES.W      1
    00003E10              L867:
    00003E10 4549594552             .SDATA      "EIYERON"
             4F4E         
    00003E17 00                     .DATA.B     H'00
    00003E18              L868:
    00003E18 4C4120434F             .SDATA      "LA COMMUNAUTE PLANETE CASIO"
             4D4D554E41   
             5554452050   
             4C414E4554   
             4520434153   
             494F         
    00003E33 00                     .DATA.B     H'00
    00003E34              L869:
    00003E34 504F555220             .SDATA      "POUR SON SOUTIEN :"
             534F4E2053   
             4F55544945   
             4E203A       
    00003E46 00                     .DATA.B     H'00
    00003E47 00000001               .RES.B      1
    00003E48              L870:
    00003E48 5757572E50             .SDATA      "WWW.PLANET-CASIO.COM"
             4C414E4554   




SH SERIES C/C++ Compiler (Ver. 6.0C)                                                                 30-Jan-2015 21:53:33  PAGE  234


SCT OFFSET   CODE       C LABEL     INSTRUCTION OPERAND    COMMENT

             2D43415349   
             4F2E434F4D   
    00003E5C 00                     .DATA.B     H'00
    00003E5D 00000001               .RES.B      1
    00003E5E 00000002               .RES.W      1
    00003E60              L871:
    00003E60 4E27484553             .SDATA      "N'HESITEZ PAS A ALLER NOTER"
             4954455A20   
             5041532041   
             20414C4C45   
             52204E4F54   
             4552         
    00003E7B 00                     .DATA.B     H'00
    00003E7C              L872:
    00003E7C 4D4F4E204A             .SDATA      "MON JEU SUR LE SITE !"
             4555205355   
             52204C4520   
             5349544520   
             21           
    00003E91 00                     .DATA.B     H'00
    00003E92 00000002               .RES.W      1
    00003E94              L873:
    00003E94 414E20454E             .SDATA      "AN ENGLISH VERSION OF THE"
             474C495348   
             2056455253   
             494F4E204F   
             4620544845   
    00003EAD 00                     .DATA.B     H'00
    00003EAE 00000002               .RES.W      1
    00003EB0              L874:
    00003EB0 47414D4520             .SDATA      "GAME AVAILABLE ON THE SITE !"
             415641494C   
             41424C4520   
             4F4E205448   
             4520534954   
             452021       
    00003ECC 00                     .DATA.B     H'00
    00003ECD 00000001               .RES.B      1
    00003ECE 00000002               .RES.W      1
    00003ED0              L875:
    00003ED0 424F4E2043             .SDATA      "BON COURS DE MATHS !"
             4F55525320   
             4445204D41   
             5448532021   
    00003EE4 00                     .DATA.B     H'00
    00003EE5 00000001               .RES.B      1
    00003EE6 00000002               .RES.W      1
    00003EE8              L876:
    00003EE8 5B45584954             .SDATA      "[EXIT]"
             5D           
    00003EEE 00                     .DATA.B     H'00
    00003EEF 00000001               .RES.B      1
    00003EF0              L878:
    00003EF0 415454454E             .SDATA      "ATTENTION: ETES VOUS SUR DE"
             54494F4E3A   
             2045544553   
             20564F5553   




SH SERIES C/C++ Compiler (Ver. 6.0C)                                                                 30-Jan-2015 21:53:33  PAGE  235


SCT OFFSET   CODE       C LABEL     INSTRUCTION OPERAND    COMMENT

             2053555220   
             4445         
    00003F0B 00                     .DATA.B     H'00
    00003F0C              L879:
    00003F0C 2020564F55             .SDATA      "  VOULOIR TOUT SUPPRIMER ?"
             4C4F495220   
             544F555420   
             5355505052   
             494D455220   
             3F           
    00003F26 00                     .DATA.B     H'00
    00003F27 00000001               .RES.B      1
    00003F28              L880:
    00003F28 20544F5554             .SDATA      " TOUTES VOS DONNEES SERONT"
             455320564F   
             5320444F4E   
             4E45455320   
             5345524F4E   
             54           
    00003F42 00                     .DATA.B     H'00
    00003F43 00000001               .RES.B      1
    00003F44              L881:
    00003F44 2020202020             .SDATA      "      REINITIALISEES."
             205245494E   
             495449414C   
             4953454553   
             2E           
    00003F59 00                     .DATA.B     H'00
    00003F5A 00000002               .RES.W      1
    00003F5C              L882:
    00003F5C 414E4E554C             .SDATA      "ANNULER"
             4552         
    00003F63 00                     .DATA.B     H'00
    00003F64              L883:
    00003F64 4F5549                 .SDATA      "OUI"
    00003F67 00                     .DATA.B     H'00
    00003F68              L886:
    00003F68 4A45552052             .SDATA      "JEU REINITIALISE"
             45494E4954   
             49414C4953   
             45           
    00003F78 00                     .DATA.B     H'00
    00003F79 00000001               .RES.B      1
    00003F7A 00000002               .RES.W      1
    00003F7C              L887:
    00003F7C 4F4B                   .SDATA      "OK"
    00003F7E 00                     .DATA.B     H'00
    00003F7F 00000001               .RES.B      1
    00003F80              L901:
    00003F80 000007D000             .DATA.L     H'000007D0,H'000009C4,H'00000BB8,H'00000FA0,H'00001388,H'00000BB8,H'00001D4C,
             0009C40000 +                       H'00001194,H'00001388,H'00001770,H'0000157C,H'00001770
             0BB800000F   
             A000001388   
             00000BB800   
             001D4C0000   
             1194000013   
             8800001770   




SH SERIES C/C++ Compiler (Ver. 6.0C)                                                                 30-Jan-2015 21:53:33  PAGE  236


SCT OFFSET   CODE       C LABEL     INSTRUCTION OPERAND    COMMENT

             0000157C00   
             001770       
    00003FB0              L903:
    00003FB0 <00000000>             .DATA.L     L904,L905,L906,L907,L908,L906,L909,L910,L908,L636,L911,L636
             <00000000>   
             <00000000>   
             <00000000>   
             <00000000>   
             <00000000>   
             <00000000>   
             <00000000>   
             <00000000>   
             <00000000>   
             <00000000>   
             <00000000>   
    00003FE0              L913:
    00003FE0 <00000000>             .DATA.L     L914,L915,L916,L917,L918,L919
             <00000000>   
             <00000000>   
             <00000000>   
             <00000000>   
             <00000000>   
    00003FF8              L921:
    00003FF8 <00000000>             .DATA.L     L767,L768,L769,L922,L771,L772,L773,L774,L775,L776,L777,L778,L923,L770
             <00000000>   
             <00000000>   
             <00000000>   
             <00000000>   
             <00000000>   
             <00000000>   
             <00000000>   
             <00000000>   
             <00000000>   
             <00000000>   
             <00000000>   
             <00000000>   
             <00000000>   
    00004030              L929:
    00004030 4163686574             .SDATA      "Achetez plus de gadgets"
             657A20706C   
             7573206465   
             2067616467   
             657473       
    00004047 00                     .DATA.B     H'00
    00004048              L959:
    00004048 <00000000>             .DATA.L     L960,L961,L962,L963
             <00000000>   
             <00000000>   
             <00000000>   
    00004058              L965:
    00004058 <00000000>             .DATA.L     L966,L967,L968,L717,L969,L719,L720,L721,L722,L970,L971,L972,L973,L974,L975,L976,
             <00000000> +                       L977,L978,L979,L980,L981,L982
             <00000000>   
             <00000000>   
             <00000000>   
             <00000000>   
             <00000000>   




SH SERIES C/C++ Compiler (Ver. 6.0C)                                                                 30-Jan-2015 21:53:33  PAGE  237


SCT OFFSET   CODE       C LABEL     INSTRUCTION OPERAND    COMMENT

             <00000000>   
             <00000000>   
             <00000000>   
             <00000000>   
             <00000000>   
             <00000000>   
             <00000000>   
             <00000000>   
             <00000000>   
             <00000000>   
             <00000000>   
             <00000000>   
             <00000000>   
             <00000000>   
             <00000000>   
    000040B0              L984:
    000040B0 03060706               .DATA.B     H'03,H'06,H'07,H'06
    000040B4              L1007:
    000040B4 <00000000>             .DATA.L     L1008,L1009,L1010,L1011,L1012,L1013,L1014,L1015,L1016,L1017,L1018,L1019,L1020,L1021,
             <00000000> +                       L1022,L1023,L1024,L1025,L1026,L1027,L1028,L1029
             <00000000>   
             <00000000>   
             <00000000>   
             <00000000>   
             <00000000>   
             <00000000>   
             <00000000>   
             <00000000>   
             <00000000>   
             <00000000>   
             <00000000>   
             <00000000>   
             <00000000>   
             <00000000>   
             <00000000>   
             <00000000>   
             <00000000>   
             <00000000>   
             <00000000>   
             <00000000>   
    0000410C              L1031:
    0000410C <00000000>             .DATA.L     L1032,L1033,L1034,L1035,L1036,L1037,L1038,L1039,L1040,L1041,L1042,L1043,L1044,L1045,
             <00000000> +                       L1046,L1047,L1048,L1049,L1050,L1051,L1052,L1053
             <00000000>   
             <00000000>   
             <00000000>   
             <00000000>   
             <00000000>   
             <00000000>   
             <00000000>   
             <00000000>   
             <00000000>   
             <00000000>   
             <00000000>   
             <00000000>   
             <00000000>   
             <00000000>   




SH SERIES C/C++ Compiler (Ver. 6.0C)                                                                 30-Jan-2015 21:53:33  PAGE  238


SCT OFFSET   CODE       C LABEL     INSTRUCTION OPERAND    COMMENT

             <00000000>   
             <00000000>   
             <00000000>   
             <00000000>   
             <00000000>   
             <00000000>   
    00004164              L1055:
    00004164 <00000000>             .DATA.L     L1056,L1057,L632,L1058,L1059,L1060,L1061,L632,L632,L1062,L1063,L1064,L1065,L632,
             <00000000> +                       L1066,L1067,L632,L1068,L1069,L632,L1070,L1071
             <00000000>   
             <00000000>   
             <00000000>   
             <00000000>   
             <00000000>   
             <00000000>   
             <00000000>   
             <00000000>   
             <00000000>   
             <00000000>   
             <00000000>   
             <00000000>   
             <00000000>   
             <00000000>   
             <00000000>   
             <00000000>   
             <00000000>   
             <00000000>   
             <00000000>   
             <00000000>   
    000041BC              L1072:
    000041BC 2564202F20             .SDATA      "%d / 22"
             3232         
    000041C3 00                     .DATA.B     H'00
    000041C4              L1077:
    000041C4 5375636365             .SDATA      "Succes secret"
             7320736563   
             726574       
    000041D1 00                     .DATA.B     H'00
    000041D2 00000002               .RES.W      1
    000041D4              L1092:
    000041D4 <00000000>             .DATA.L     L1093,L1094,L1095,L1096,L1097,L1098,L1099,L1100,L1101,L1102
             <00000000>   
             <00000000>   
             <00000000>   
             <00000000>   
             <00000000>   
             <00000000>   
             <00000000>   
             <00000000>   
             <00000000>   
    000041FC              L1104:
    000041FC <00000000>             .DATA.L     L1105,L1106,L1107,L1108,L1109,L1110,L1111,L1112,L1113,L1114
             <00000000>   
             <00000000>   
             <00000000>   
             <00000000>   
             <00000000>   




SH SERIES C/C++ Compiler (Ver. 6.0C)                                                                 30-Jan-2015 21:53:33  PAGE  239


SCT OFFSET   CODE       C LABEL     INSTRUCTION OPERAND    COMMENT

             <00000000>   
             <00000000>   
             <00000000>   
             <00000000>   
    00004224              L1116:
    00004224 <00000000>             .DATA.L     L632,L632,L632,L1117,L632,L632,L1118,L632,L1119,L1119
             <00000000>   
             <00000000>   
             <00000000>   
             <00000000>   
             <00000000>   
             <00000000>   
             <00000000>   
             <00000000>   
             <00000000>   
    0000424C              L1129:
    0000424C FFFFFFFFFF             .DATA.L     H'FFFFFFFF,H'FFFFFFFF,H'FFFFFFFF
             FFFFFFFFFF   
             FFFF         
    00004258              L1135:
    00004258 302564                 .SDATA      "0%d"
    0000425B 00                     .DATA.B     H'00
    0000425C              L1157:
    0000425C 782020203D             .SDATA      "x   ="
    00004261 00                     .DATA.B     H'00
    00004262 00000002               .RES.W      1
    00004264              L632:
    00004264 00                     .DATA.B     H'00
    00004265 00000001               .RES.B      1
    00004266 00000002               .RES.W      1
    00004268              L633:
    00004268 3130303030             .SDATA      "10000$"
             24           
    0000426E 00                     .DATA.B     H'00
    0000426F 00000001               .RES.B      1
    00004270              L634:
    00004270 3730303024             .SDATA      "7000$"
    00004275 00                     .DATA.B     H'00
    00004276 00000002               .RES.W      1
    00004278              L635:
    00004278 3930303024             .SDATA      "9000$"
    0000427D 00                     .DATA.B     H'00
    0000427E 00000002               .RES.W      1
    00004280              L636:
    00004280 3630303024             .SDATA      "6000$"
    00004285 00                     .DATA.B     H'00
    00004286 00000002               .RES.W      1
    00004288              L639:
    00004288 4241525259             .SDATA      "BARRY"
    0000428D 00                     .DATA.B     H'00
    0000428E 00000002               .RES.W      1
    00004290              L640:
    00004290 4241525259             .SDATA      "BARRY COSTUME"
             20434F5354   
             554D45       
    0000429D 00                     .DATA.B     H'00
    0000429E 00000002               .RES.W      1




SH SERIES C/C++ Compiler (Ver. 6.0C)                                                                 30-Jan-2015 21:53:33  PAGE  240


SCT OFFSET   CODE       C LABEL     INSTRUCTION OPERAND    COMMENT

    000042A0              L641:
    000042A0 4241525259             .SDATA      "BARRY KID"
             204B4944     
    000042A9 00                     .DATA.B     H'00
    000042AA 00000002               .RES.W      1
    000042AC              L642:
    000042AC 4E494E4A41             .SDATA      "NINJA BARRY"
             2042415252   
             59           
    000042B7 00                     .DATA.B     H'00
    000042B8              L643:
    000042B8 5350414345             .SDATA      "SPACE BARRY"
             2042415252   
             59           
    000042C3 00                     .DATA.B     H'00
    000042C4              L644:
    000042C4 4241525259             .SDATA      "BARRY LEE"
             204C4545     
    000042CD 00                     .DATA.B     H'00
    000042CE 00000002               .RES.W      1
    000042D0              L677:
    000042D0 3430303030             .SDATA      "40000$"
             24           
    000042D6 00                     .DATA.B     H'00
    000042D7 00000001               .RES.B      1
    000042D8              L678:
    000042D8 3530303030             .SDATA      "50000$"
             24           
    000042DE 00                     .DATA.B     H'00
    000042DF 00000001               .RES.B      1
    000042E0              L679:
    000042E0 3230303030             .SDATA      "20000$"
             24           
    000042E6 00                     .DATA.B     H'00
    000042E7 00000001               .RES.B      1
    000042E8              L682:
    000042E8 4D41434849             .SDATA      "MACHINEGUN JETPACK"
             4E4547554E   
             204A455450   
             41434B       
    000042FA 00                     .DATA.B     H'00
    000042FB 00000001               .RES.B      1
    000042FC              L683:
    000042FC 4C41534552             .SDATA      "LASER JETPACK"
             204A455450   
             41434B       
    00004309 00                     .DATA.B     H'00
    0000430A 00000002               .RES.W      1
    0000430C              L684:
    0000430C 5245414354             .SDATA      "REACTEUR JETPACK"
             455552204A   
             4554504143   
             4B           
    0000431C 00                     .DATA.B     H'00
    0000431D 00000001               .RES.B      1
    0000431E 00000002               .RES.W      1
    00004320              L685:




SH SERIES C/C++ Compiler (Ver. 6.0C)                                                                 30-Jan-2015 21:53:33  PAGE  241


SCT OFFSET   CODE       C LABEL     INSTRUCTION OPERAND    COMMENT

    00004320 4755495441             .SDATA      "GUITARE JETPACK"
             5245204A45   
             545041434B   
    0000432F 00                     .DATA.B     H'00
    00004330              L686:
    00004330 4D41434849             .SDATA      "MACHINEGUN JETPA..."
             4E4547554E   
             204A455450   
             412E2E2E     
    00004343 00                     .DATA.B     H'00
    00004344              L717:
    00004344 426563616E             .SDATA      "Becane d'enfer"
             6520642765   
             6E666572     
    00004352 00                     .DATA.B     H'00
    00004353 00000001               .RES.B      1
    00004354              L718:
    00004354 54656C6570             .SDATA      "Teleporteur Mega Dement"
             6F72746575   
             72204D6567   
             612044656D   
             656E74       
    0000436B 00                     .DATA.B     H'00
    0000436C              L719:
    0000436C 4772617669             .SDATA      "Gravity Guy"
             7479204775   
             79           
    00004377 00                     .DATA.B     H'00
    00004378              L720:
    00004378 4F69736561             .SDATA      "Oiseau Benef"
             752042656E   
             6566         
    00004384 00                     .DATA.B     H'00
    00004385 00000001               .RES.B      1
    00004386 00000002               .RES.W      1
    00004388              L721:
    00004388 5027746974             .SDATA      "P'tit Ecraseur"
             2045637261   
             73657572     
    00004396 00                     .DATA.B     H'00
    00004397 00000001               .RES.B      1
    00004398              L722:
    00004398 4D72204361             .SDATA      "Mr Calin"
             6C696E       
    000043A0 00                     .DATA.B     H'00
    000043A1 00000001               .RES.B      1
    000043A2 00000002               .RES.W      1
    000043A4              L725:
    000043A4 424543414E             .SDATA      "BECANE NOIRE"
             45204E4F49   
             5245         
    000043B0 00                     .DATA.B     H'00
    000043B1 00000001               .RES.B      1
    000043B2 00000002               .RES.W      1
    000043B4              L726:
    000043B4 424543414E             .SDATA      "BECANE AIMANTEE"
             452041494D   




SH SERIES C/C++ Compiler (Ver. 6.0C)                                                                 30-Jan-2015 21:53:33  PAGE  242


SCT OFFSET   CODE       C LABEL     INSTRUCTION OPERAND    COMMENT

             414E544545   
    000043C3 00                     .DATA.B     H'00
    000043C4              L727:
    000043C4 54454C4550             .SDATA      "TELEPORTEUR NOIR"
             4F52544555   
             52204E4F49   
             52           
    000043D4 00                     .DATA.B     H'00
    000043D5 00000001               .RES.B      1
    000043D6 00000002               .RES.W      1
    000043D8              L728:
    000043D8 54454C4550             .SDATA      "TELEPORTEUR AIMANTE"
             4F52544555   
             522041494D   
             414E5445     
    000043EB 00                     .DATA.B     H'00
    000043EC              L729:
    000043EC 4752415649             .SDATA      "GRAVITY GUY NOIR"
             5459204755   
             59204E4F49   
             52           
    000043FC 00                     .DATA.B     H'00
    000043FD 00000001               .RES.B      1
    000043FE 00000002               .RES.W      1
    00004400              L730:
    00004400 4752415649             .SDATA      "GRAVITY GUY AIMANTE"
             5459204755   
             592041494D   
             414E5445     
    00004413 00                     .DATA.B     H'00
    00004414              L731:
    00004414 4F49534541             .SDATA      "OISEAU NOIR"
             55204E4F49   
             52           
    0000441F 00                     .DATA.B     H'00
    00004420              L732:
    00004420 4F49534541             .SDATA      "OISEAU AIMANTE"
             552041494D   
             414E5445     
    0000442E 00                     .DATA.B     H'00
    0000442F 00000001               .RES.B      1
    00004430              L733:
    00004430 5027544954             .SDATA      "P'TIT ECRASEUR NOIR"
             2045435241   
             5345555220   
             4E4F4952     
    00004443 00                     .DATA.B     H'00
    00004444              L734:
    00004444 5027544954             .SDATA      "P'TIT ECRASEUR AIMANTE"
             2045435241   
             5345555220   
             41494D414E   
             5445         
    0000445A 00                     .DATA.B     H'00
    0000445B 00000001               .RES.B      1
    0000445C              L735:
    0000445C 4D52204341             .SDATA      "MR CALIN NOIR"




SH SERIES C/C++ Compiler (Ver. 6.0C)                                                                 30-Jan-2015 21:53:33  PAGE  243


SCT OFFSET   CODE       C LABEL     INSTRUCTION OPERAND    COMMENT

             4C494E204E   
             4F4952       
    00004469 00                     .DATA.B     H'00
    0000446A 00000002               .RES.W      1
    0000446C              L736:
    0000446C 4D52204341             .SDATA      "MR CALIN AIMANTE"
             4C494E2041   
             494D414E54   
             45           
    0000447C 00                     .DATA.B     H'00
    0000447D 00000001               .RES.B      1
    0000447E 00000002               .RES.W      1
    00004480              L737:
    00004480 5027544954             .SDATA      "P'TIT ECRASEUR AI..."
             2045435241   
             5345555220   
             41492E2E2E   
    00004494 00                     .DATA.B     H'00
    00004495 00000001               .RES.B      1
    00004496 00000002               .RES.W      1
    00004498              L767:
    00004498 4149522042             .SDATA      "AIR BARRYS"
             4152525953   
    000044A2 00                     .DATA.B     H'00
    000044A3 00000001               .RES.B      1
    000044A4              L768:
    000044A4 494E535441             .SDATA      "INSTA-BALLE"
             2D42414C4C   
             45           
    000044AF 00                     .DATA.B     H'00
    000044B0              L769:
    000044B0 4345494E54             .SDATA      "CEINTURE DE GRAVITE"
             5552452044   
             4520475241   
             56495445     
    000044C3 00                     .DATA.B     H'00
    000044C4              L770:
    000044C4 42524F5549             .SDATA      "BROUILLEUR DE MISSILES"
             4C4C455552   
             204445204D   
             495353494C   
             4553         
    000044DA 00                     .DATA.B     H'00
    000044DB 00000001               .RES.B      1
    000044DC              L771:
    000044DC 4A45544F4E             .SDATA      "JETON OFFERT"
             204F464645   
             5254         
    000044E8 00                     .DATA.B     H'00
    000044E9 00000001               .RES.B      1
    000044EA 00000002               .RES.W      1
    000044EC              L772:
    000044EC 474C41434F             .SDATA      "GLACOMATIQUE"
             4D41544951   
             5545         
    000044F8 00                     .DATA.B     H'00
    000044F9 00000001               .RES.B      1




SH SERIES C/C++ Compiler (Ver. 6.0C)                                                                 30-Jan-2015 21:53:33  PAGE  244


SCT OFFSET   CODE       C LABEL     INSTRUCTION OPERAND    COMMENT

    000044FA 00000002               .RES.W      1
    000044FC              L773:
    000044FC 47454D4D4F             .SDATA      "GEMMOLOGIE"
             4C4F474945   
    00004506 00                     .DATA.B     H'00
    00004507 00000001               .RES.B      1
    00004508              L774:
    00004508 4A45544F4E             .SDATA      "JETONS MAGNETIQUES"
             53204D4147   
             4E45544951   
             554553       
    0000451A 00                     .DATA.B     H'00
    0000451B 00000001               .RES.B      1
    0000451C              L775:
    0000451C 544F555220             .SDATA      "TOUR GRATUIT"
             4752415455   
             4954         
    00004528 00                     .DATA.B     H'00
    00004529 00000001               .RES.B      1
    0000452A 00000002               .RES.W      1
    0000452C              L776:
    0000452C 41494D414E             .SDATA      "AIMANT A PIECES"
             5420412050   
             4945434553   
    0000453B 00                     .DATA.B     H'00
    0000453C              L777:
    0000453C 4445524E49             .SDATA      "DERNIERE CHANCE"
             4552452043   
             48414E4345   
    0000454B 00                     .DATA.B     H'00
    0000454C              L778:
    0000454C 44455A4150             .SDATA      "DEZAPPEUR"
             50455552     
    00004555 00                     .DATA.B     H'00
    00004556 00000002               .RES.W      1
    00004558              L781:
    00004558 5361757465             .SDATA      "Sautez plus haut !"
             7A20706C75   
             7320686175   
             742021       
    0000456A 00                     .DATA.B     H'00
    0000456B 00000001               .RES.B      1
    0000456C              L782:
    0000456C 5265626F6E             .SDATA      "Rebondissez avant votre"
             6469737365   
             7A20617661   
             6E7420766F   
             747265       
    00004583 00                     .DATA.B     H'00
    00004584              L783:
    00004584 52656A6F69             .SDATA      "Rejoignez le sol plus"
             676E657A20   
             6C6520736F   
             6C20706C75   
             73           
    00004599 00                     .DATA.B     H'00
    0000459A 00000002               .RES.W      1




SH SERIES C/C++ Compiler (Ver. 6.0C)                                                                 30-Jan-2015 21:53:33  PAGE  245


SCT OFFSET   CODE       C LABEL     INSTRUCTION OPERAND    COMMENT

    0000459C              L784:
    0000459C 4465736172             .SDATA      "Desarmez certains missiles"
             6D657A2063   
             6572746169   
             6E73206D69   
             7373696C65   
             73           
    000045B6 00                     .DATA.B     H'00
    000045B7 00000001               .RES.B      1
    000045B8              L785:
    000045B8 556E206A65             .SDATA      "Un jeton offert des le"
             746F6E206F   
             6666657274   
             2064657320   
             6C65         
    000045CE 00                     .DATA.B     H'00
    000045CF 00000001               .RES.B      1
    000045D0              L786:
    000045D0 476C697373             .SDATA      "Glissez sur le ventre"
             657A207375   
             72206C6520   
             76656E7472   
             65           
    000045E5 00                     .DATA.B     H'00
    000045E6 00000002               .RES.W      1
    000045E8              L787:
    000045E8 4465732070             .SDATA      "Des pieces qui comptent"
             6965636573   
             2071756920   
             636F6D7074   
             656E74       
    000045FF 00                     .DATA.B     H'00
    00004600              L788:
    00004600 4C6573206A             .SDATA      "Les jetons sont aimantes"
             65746F6E73   
             20736F6E74   
             2061696D61   
             6E746573     
    00004618 00                     .DATA.B     H'00
    00004619 00000001               .RES.B      1
    0000461A 00000002               .RES.W      1
    0000461C              L789:
    0000461C 44656D6172             .SDATA      "Demarrez chaque partie avec"
             72657A2063   
             6861717565   
             2070617274   
             6965206176   
             6563         
    00004637 00                     .DATA.B     H'00
    00004638              L790:
    00004638 4C65732070             .SDATA      "Les pieces viennent d'elles"
             6965636573   
             207669656E   
             6E656E7420   
             6427656C6C   
             6573         
    00004653 00                     .DATA.B     H'00




SH SERIES C/C++ Compiler (Ver. 6.0C)                                                                 30-Jan-2015 21:53:33  PAGE  246


SCT OFFSET   CODE       C LABEL     INSTRUCTION OPERAND    COMMENT

    00004654              L791:
    00004654 4761676E65             .SDATA      "Gagnez a coup sur votre"
             7A20612063   
             6F75702073   
             757220766F   
             747265       
    0000466B 00                     .DATA.B     H'00
    0000466C              L792:
    0000466C 4465736163             .SDATA      "Desactivez certains"
             746976657A   
             2063657274   
             61696E73     
    0000467F 00                     .DATA.B     H'00
    00004680              L795:
    00004680 6D6F727420             .SDATA      "mort afin de gagner"
             6166696E20   
             6465206761   
             676E6572     
    00004693 00                     .DATA.B     H'00
    00004694              L796:
    00004694 7261706964             .SDATA      "rapidement que d'habitude !"
             656D656E74   
             2071756520   
             6427686162   
             6974756465   
             2021         
    000046AF 00                     .DATA.B     H'00
    000046B0              L797:
    000046B0 6166696E20             .SDATA      "afin qu'ils explosent avant"
             717527696C   
             7320657870   
             6C6F73656E   
             7420617661   
             6E74         
    000046CB 00                     .DATA.B     H'00
    000046CC              L798:
    000046CC 64656D6172             .SDATA      "demarrage d'une partie, si"
             7261676520   
             6427756E65   
             2070617274   
             69652C2073   
             69           
    000046E6 00                     .DATA.B     H'00
    000046E7 00000001               .RES.B      1
    000046E8              L799:
    000046E8 6120766F74             .SDATA      "a votre mort pour"
             7265206D6F   
             727420706F   
             7572         
    000046F9 00                     .DATA.B     H'00
    000046FA 00000002               .RES.W      1
    000046FC              L800:
    000046FC 646F75626C             .SDATA      "double ! De quoi en ravir"
             6520212044   
             652071756F   
             6920656E20   
             7261766972   




SH SERIES C/C++ Compiler (Ver. 6.0C)                                                                 30-Jan-2015 21:53:33  PAGE  247


SCT OFFSET   CODE       C LABEL     INSTRUCTION OPERAND    COMMENT

    00004715 00                     .DATA.B     H'00
    00004716 00000002               .RES.W      1
    00004718              L801:
    00004718 6120766F75             .SDATA      "a vous ! Attrapez les"
             7320212041   
             7474726170   
             657A206C65   
             73           
    0000472D 00                     .DATA.B     H'00
    0000472E 00000002               .RES.W      1
    00004730              L802:
    00004730 756E207665             .SDATA      "un vehicule !"
             686963756C   
             652021       
    0000473D 00                     .DATA.B     H'00
    0000473E 00000002               .RES.W      1
    00004740              L803:
    00004740 6D656D6573             .SDATA      "memes vers vous ! Fini"
             2076657273   
             20766F7573   
             2021204669   
             6E69         
    00004756 00                     .DATA.B     H'00
    00004757 00000001               .RES.B      1
    00004758              L804:
    00004758 6465726E69             .SDATA      "dernier jeton de tirage !"
             6572206A65   
             746F6E2064   
             6520746972   
             6167652021   
    00004771 00                     .DATA.B     H'00
    00004772 00000002               .RES.W      1
    00004774              L805:
    00004774 7A61707065             .SDATA      "zappeurs ! Ideal si vous"
             7572732021   
             2049646561   
             6C20736920   
             766F7573     
    0000478C 00                     .DATA.B     H'00
    0000478D 00000001               .RES.B      1
    0000478E 00000002               .RES.W      1
    00004790              L808:
    00004790 7175656C71             .SDATA      "quelques metres de plus !"
             756573206D   
             6574726573   
             2064652070   
             6C75732021   
    000047A9 00                     .DATA.B     H'00
    000047AA 00000002               .RES.W      1
    000047AC              L809:
    000047AC 646520766F             .SDATA      "de vous atteindre !"
             7573206174   
             7465696E64   
             72652021     
    000047BF 00                     .DATA.B     H'00
    000047C0              L810:
    000047C0 6327657374             .SDATA      "c'est pas beau ca !"




SH SERIES C/C++ Compiler (Ver. 6.0C)                                                                 30-Jan-2015 21:53:33  PAGE  248


SCT OFFSET   CODE       C LABEL     INSTRUCTION OPERAND    COMMENT

             2070617320   
             6265617520   
             63612021     
    000047D3 00                     .DATA.B     H'00
    000047D4              L811:
    000047D4 6175676D65             .SDATA      "augmenter votre score !"
             6E74657220   
             766F747265   
             2073636F72   
             652021       
    000047EB 00                     .DATA.B     H'00
    000047EC              L812:
    000047EC 6365727461             .SDATA      "certains !"
             696E732021   
    000047F6 00                     .DATA.B     H'00
    000047F7 00000001               .RES.B      1
    000047F8              L813:
    000047F8 746F757320             .SDATA      "tous !"
             21           
    000047FE 00                     .DATA.B     H'00
    000047FF 00000001               .RES.B      1
    00004800              L814:
    00004800 6C65732061             .SDATA      "les acrobaties !"
             63726F6261   
             7469657320   
             21           
    00004810 00                     .DATA.B     H'00
    00004811 00000001               .RES.B      1
    00004812 00000002               .RES.W      1
    00004814              L815:
    00004814 5472696368             .SDATA      "Tricheur, va !"
             6575722C20   
             76612021     
    00004822 00                     .DATA.B     H'00
    00004823 00000001               .RES.B      1
    00004824              L816:
    00004824 6176657A20             .SDATA      "avez des difficultees !"
             6465732064   
             6966666963   
             756C746565   
             732021       
    0000483B 00                     .DATA.B     H'00
    0000483C              L835:
    0000483C 434F4E5452             .SDATA      "CONTRASTE"
             41535445     
    00004845 00                     .DATA.B     H'00
    00004846 00000002               .RES.W      1
    00004848              L836:
    00004848 4741444745             .SDATA      "GADGETS"
             5453         
    0000484F 00                     .DATA.B     H'00
    00004850              L837:
    00004850 4352454449             .SDATA      "CREDITS"
             5453         
    00004857 00                     .DATA.B     H'00
    00004858              L838:
    00004858 5245494E49             .SDATA      "REINITIALISER"




SH SERIES C/C++ Compiler (Ver. 6.0C)                                                                 30-Jan-2015 21:53:33  PAGE  249


SCT OFFSET   CODE       C LABEL     INSTRUCTION OPERAND    COMMENT

             5449414C49   
             534552       
    00004865 00                     .DATA.B     H'00
    00004866 00000002               .RES.W      1
    00004868              L904:
    00004868 3230303024             .SDATA      "2000$"
    0000486D 00                     .DATA.B     H'00
    0000486E 00000002               .RES.W      1
    00004870              L905:
    00004870 3235303024             .SDATA      "2500$"
    00004875 00                     .DATA.B     H'00
    00004876 00000002               .RES.W      1
    00004878              L906:
    00004878 3330303024             .SDATA      "3000$"
    0000487D 00                     .DATA.B     H'00
    0000487E 00000002               .RES.W      1
    00004880              L907:
    00004880 3430303024             .SDATA      "4000$"
    00004885 00                     .DATA.B     H'00
    00004886 00000002               .RES.W      1
    00004888              L908:
    00004888 3530303024             .SDATA      "5000$"
    0000488D 00                     .DATA.B     H'00
    0000488E 00000002               .RES.W      1
    00004890              L909:
    00004890 3735303024             .SDATA      "7500$"
    00004895 00                     .DATA.B     H'00
    00004896 00000002               .RES.W      1
    00004898              L910:
    00004898 3435303024             .SDATA      "4500$"
    0000489D 00                     .DATA.B     H'00
    0000489E 00000002               .RES.W      1
    000048A0              L911:
    000048A0 3535303024             .SDATA      "5500$"
    000048A5 00                     .DATA.B     H'00
    000048A6 00000002               .RES.W      1
    000048A8              L914:
    000048A8 5365637465             .SDATA      "Secteur 1: Preparation"
             757220313A   
             2050726570   
             6172617469   
             6F6E         
    000048BE 00                     .DATA.B     H'00
    000048BF 00000001               .RES.B      1
    000048C0              L915:
    000048C0 5365637465             .SDATA      "Secteur 2: Recherche"
             757220323A   
             2052656368   
             6572636865   
    000048D4 00                     .DATA.B     H'00
    000048D5 00000001               .RES.B      1
    000048D6 00000002               .RES.W      1
    000048D8              L916:
    000048D8 5365637465             .SDATA      "Secteur 3: Developpement"
             757220333A   
             2044657665   
             6C6F707065   




SH SERIES C/C++ Compiler (Ver. 6.0C)                                                                 30-Jan-2015 21:53:33  PAGE  250


SCT OFFSET   CODE       C LABEL     INSTRUCTION OPERAND    COMMENT

             6D656E74     
    000048F0 00                     .DATA.B     H'00
    000048F1 00000001               .RES.B      1
    000048F2 00000002               .RES.W      1
    000048F4              L917:
    000048F4 5365637465             .SDATA      "Secteur 4: Production"
             757220343A   
             2050726F64   
             756374696F   
             6E           
    00004909 00                     .DATA.B     H'00
    0000490A 00000002               .RES.W      1
    0000490C              L918:
    0000490C 5365637465             .SDATA      "Secteur 5: Amelioration"
             757220353A   
             20416D656C   
             696F726174   
             696F6E       
    00004923 00                     .DATA.B     H'00
    00004924              L919:
    00004924 5365637465             .SDATA      "Secteur 6: Extermination"
             757220363A   
             2045787465   
             726D696E61   
             74696F6E     
    0000493C 00                     .DATA.B     H'00
    0000493D 00000001               .RES.B      1
    0000493E 00000002               .RES.W      1
    00004940              L922:
    00004940 42524F5549             .SDATA      "BROUILLEUR DE MISSI.."
             4C4C455552   
             204445204D   
             495353492E   
             2E           
    00004955 00                     .DATA.B     H'00
    00004956 00000002               .RES.W      1
    00004958              L923:
    00004958 42524F5549             .SDATA      "BROUILLEUR DE MIS.."
             4C4C455552   
             204445204D   
             49532E2E     
    0000496B 00                     .DATA.B     H'00
    0000496C              L960:
    0000496C 4D45494C4C             .SDATA      "MEILLEURS SCORES"
             4555525320   
             53434F5245   
             53           
    0000497C 00                     .DATA.B     H'00
    0000497D 00000001               .RES.B      1
    0000497E 00000002               .RES.W      1
    00004980              L961:
    00004980 4D45494C4C             .SDATA      "MEILLEURS SCORES EN VEHICULES"
             4555525320   
             53434F5245   
             5320454E20   
             5645484943   
             554C4553     




SH SERIES C/C++ Compiler (Ver. 6.0C)                                                                 30-Jan-2015 21:53:33  PAGE  251


SCT OFFSET   CODE       C LABEL     INSTRUCTION OPERAND    COMMENT

    0000499D 00                     .DATA.B     H'00
    0000499E 00000002               .RES.W      1
    000049A0              L962:
    000049A0 544F54414C             .SDATA      "TOTAL"
    000049A5 00                     .DATA.B     H'00
    000049A6 00000002               .RES.W      1
    000049A8              L963:
    000049A8 4D4F525453             .SDATA      "MORTS"
    000049AD 00                     .DATA.B     H'00
    000049AE 00000002               .RES.W      1
    000049B0              L966:
    000049B0 4D65696C6C             .SDATA      "Meilleur Score"
             6575722053   
             636F7265     
    000049BE 00                     .DATA.B     H'00
    000049BF 00000001               .RES.B      1
    000049C0              L967:
    000049C0 4D61782070             .SDATA      "Max pieces collectees"
             6965636573   
             20636F6C6C   
             6563746565   
             73           
    000049D5 00                     .DATA.B     H'00
    000049D6 00000002               .RES.W      1
    000049D8              L968:
    000049D8 4D6178206A             .SDATA      "Max jetons collectes"
             65746F6E73   
             20636F6C6C   
             6563746573   
    000049EC 00                     .DATA.B     H'00
    000049ED 00000001               .RES.B      1
    000049EE 00000002               .RES.W      1
    000049F0              L969:
    000049F0 54656C6570             .SDATA      "Teleporteur"
             6F72746575   
             72           
    000049FB 00                     .DATA.B     H'00
    000049FC              L970:
    000049FC 546F74616C             .SDATA      "Total de parties"
             2064652070   
             6172746965   
             73           
    00004A0C 00                     .DATA.B     H'00
    00004A0D 00000001               .RES.B      1
    00004A0E 00000002               .RES.W      1
    00004A10              L971:
    00004A10 4469737461             .SDATA      "Distance parcourue"
             6E63652070   
             6172636F75   
             727565       
    00004A22 00                     .DATA.B     H'00
    00004A23 00000001               .RES.B      1
    00004A24              L972:
    00004A24 546F74616C             .SDATA      "Total de pieces"
             2064652070   
             6965636573   
    00004A33 00                     .DATA.B     H'00




SH SERIES C/C++ Compiler (Ver. 6.0C)                                                                 30-Jan-2015 21:53:33  PAGE  252


SCT OFFSET   CODE       C LABEL     INSTRUCTION OPERAND    COMMENT

    00004A34              L973:
    00004A34 546F74616C             .SDATA      "Total de jetons"
             206465206A   
             65746F6E73   
    00004A43 00                     .DATA.B     H'00
    00004A44              L974:
    00004A44 546F74616C             .SDATA      "Total de vehicules"
             2064652076   
             6568696375   
             6C6573       
    00004A56 00                     .DATA.B     H'00
    00004A57 00000001               .RES.B      1
    00004A58              L975:
    00004A58 5072697820             .SDATA      "Prix du tirage final"
             6475207469   
             7261676520   
             66696E616C   
    00004A6C 00                     .DATA.B     H'00
    00004A6D 00000001               .RES.B      1
    00004A6E 00000002               .RES.W      1
    00004A70              L976:
    00004A70 5069656365             .SDATA      "Pieces depensees"
             7320646570   
             656E736565   
             73           
    00004A80 00                     .DATA.B     H'00
    00004A81 00000001               .RES.B      1
    00004A82 00000002               .RES.W      1
    00004A84              L977:
    00004A84 4D6F727420             .SDATA      "Mort par zappeur"
             706172207A   
             6170706575   
             72           
    00004A94 00                     .DATA.B     H'00
    00004A95 00000001               .RES.B      1
    00004A96 00000002               .RES.W      1
    00004A98              L978:
    00004A98 4D6F727420             .SDATA      "Mort par laser"
             706172206C   
             61736572     
    00004AA6 00                     .DATA.B     H'00
    00004AA7 00000001               .RES.B      1
    00004AA8              L979:
    00004AA8 4D6F727420             .SDATA      "Mort par missile"
             706172206D   
             697373696C   
             65           
    00004AB8 00                     .DATA.B     H'00
    00004AB9 00000001               .RES.B      1
    00004ABA 00000002               .RES.W      1
    00004ABC              L980:
    00004ABC 4469737461             .SDATA      "Distance etant mort"
             6E63652065   
             74616E7420   
             6D6F7274     
    00004ACF 00                     .DATA.B     H'00
    00004AD0              L981:




SH SERIES C/C++ Compiler (Ver. 6.0C)                                                                 30-Jan-2015 21:53:33  PAGE  253


SCT OFFSET   CODE       C LABEL     INSTRUCTION OPERAND    COMMENT

    00004AD0 5069656365             .SDATA      "Pieces etant mort"
             7320657461   
             6E74206D6F   
             7274         
    00004AE1 00                     .DATA.B     H'00
    00004AE2 00000002               .RES.W      1
    00004AE4              L982:
    00004AE4 4A65746F6E             .SDATA      "Jetons etant mort"
             7320657461   
             6E74206D6F   
             7274         
    00004AF5 00                     .DATA.B     H'00
    00004AF6 00000002               .RES.W      1
    00004AF8              L1008:
    00004AF8 5041544945             .SDATA      "PATIENT"
             4E54         
    00004AFF 00                     .DATA.B     H'00
    00004B00              L1009:
    00004B00 4849505049             .SDATA      "HIPPIE"
             45           
    00004B06 00                     .DATA.B     H'00
    00004B07 00000001               .RES.B      1
    00004B08              L1010:
    00004B08 48414C4620             .SDATA      "HALF WAY"
             574159       
    00004B10 00                     .DATA.B     H'00
    00004B11 00000001               .RES.B      1
    00004B12 00000002               .RES.W      1
    00004B14              L1011:
    00004B14 42494C4C20             .SDATA      "BILL GATES"
             4741544553   
    00004B1E 00                     .DATA.B     H'00
    00004B1F 00000001               .RES.B      1
    00004B20              L1012:
    00004B20 474F4C4420             .SDATA      "GOLD DIGGER"
             4449474745   
             52           
    00004B2B 00                     .DATA.B     H'00
    00004B2C              L1013:
    00004B2C 4C494B4520             .SDATA      "LIKE A TOAST"
             4120544F41   
             5354         
    00004B38 00                     .DATA.B     H'00
    00004B39 00000001               .RES.B      1
    00004B3A 00000002               .RES.W      1
    00004B3C              L1014:
    00004B3C 454C454354             .SDATA      "ELECTRICIEN"
             5249434945   
             4E           
    00004B47 00                     .DATA.B     H'00
    00004B48              L1015:
    00004B48 50494C4F54             .SDATA      "PILOTE DE LIGNE"
             4520444520   
             4C49474E45   
    00004B57 00                     .DATA.B     H'00
    00004B58              L1016:
    00004B58 50494C4F54             .SDATA      "PILOTE DE CHASSE"




SH SERIES C/C++ Compiler (Ver. 6.0C)                                                                 30-Jan-2015 21:53:33  PAGE  254


SCT OFFSET   CODE       C LABEL     INSTRUCTION OPERAND    COMMENT

             4520444520   
             4348415353   
             45           
    00004B68 00                     .DATA.B     H'00
    00004B69 00000001               .RES.B      1
    00004B6A 00000002               .RES.W      1
    00004B6C              L1017:
    00004B6C 54524F5020             .SDATA      "TROP DE BILLEY"
             4445204249   
             4C4C4559     
    00004B7A 00                     .DATA.B     H'00
    00004B7B 00000001               .RES.B      1
    00004B7C              L1018:
    00004B7C 4D414C4348             .SDATA      "MALCHANCEUX"
             414E434555   
             58           
    00004B87 00                     .DATA.B     H'00
    00004B88              L1019:
    00004B88 4449435441             .SDATA      "DICTATEUR"
             54455552     
    00004B91 00                     .DATA.B     H'00
    00004B92 00000002               .RES.W      1
    00004B94              L1020:
    00004B94 5052454349             .SDATA      "PRECIS"
             53           
    00004B9A 00                     .DATA.B     H'00
    00004B9B 00000001               .RES.B      1
    00004B9C              L1021:
    00004B9C 434F4C4C45             .SDATA      "COLLECTIONNEUR"
             4354494F4E   
             4E455552     
    00004BAA 00                     .DATA.B     H'00
    00004BAB 00000001               .RES.B      1
    00004BAC              L1022:
    00004BAC 4352415A59             .SDATA      "CRAZY FREAKING SKILLS"
             2046524541   
             4B494E4720   
             534B494C4C   
             53           
    00004BC1 00                     .DATA.B     H'00
    00004BC2 00000002               .RES.W      1
    00004BC4              L1023:
    00004BC4 414D492044             .SDATA      "AMI DES BETES"
             4553204245   
             544553       
    00004BD1 00                     .DATA.B     H'00
    00004BD2 00000002               .RES.W      1
    00004BD4              L1024:
    00004BD4 50494D5020             .SDATA      "PIMP MY RIDE"
             4D59205249   
             4445         
    00004BE0 00                     .DATA.B     H'00
    00004BE1 00000001               .RES.B      1
    00004BE2 00000002               .RES.W      1
    00004BE4              L1025:
    00004BE4 4D4D48482E             .SDATA      "MMHH... WELL"
             2E2E205745   




SH SERIES C/C++ Compiler (Ver. 6.0C)                                                                 30-Jan-2015 21:53:33  PAGE  255


SCT OFFSET   CODE       C LABEL     INSTRUCTION OPERAND    COMMENT

             4C4C         
    00004BF0 00                     .DATA.B     H'00
    00004BF1 00000001               .RES.B      1
    00004BF2 00000002               .RES.W      1
    00004BF4              L1026:
    00004BF4 4A4520434F             .SDATA      "JE CONNAIS LE CREATEUR"
             4E4E414953   
             204C452043   
             5245415445   
             5552         
    00004C0A 00                     .DATA.B     H'00
    00004C0B 00000001               .RES.B      1
    00004C0C              L1027:
    00004C0C 4D41524154             .SDATA      "MARATHON"
             484F4E       
    00004C14 00                     .DATA.B     H'00
    00004C15 00000001               .RES.B      1
    00004C16 00000002               .RES.W      1
    00004C18              L1028:
    00004C18 49274D2041             .SDATA      "I'M A BIKER"
             2042494B45   
             52           
    00004C23 00                     .DATA.B     H'00
    00004C24              L1029:
    00004C24 53484F5050             .SDATA      "SHOPPING ADDICT"
             494E472041   
             4444494354   
    00004C33 00                     .DATA.B     H'00
    00004C34              L1032:
    00004C34 5265676172             .SDATA      "Regardez la planque"
             64657A206C   
             6120706C61   
             6E717565     
    00004C47 00                     .DATA.B     H'00
    00004C48              L1033:
    00004C48 4661697465             .SDATA      "Faites une partie sans"
             7320756E65   
             2070617274   
             6965207361   
             6E73         
    00004C5E 00                     .DATA.B     H'00
    00004C5F 00000001               .RES.B      1
    00004C60              L1034:
    00004C60 4465626C6F             .SDATA      "Debloquez 10 succes"
             7175657A20   
             3130207375   
             63636573     
    00004C73 00                     .DATA.B     H'00
    00004C74              L1035:
    00004C74 4163686574             .SDATA      "Achetez tout les"
             657A20746F   
             7574206C65   
             73           
    00004C84 00                     .DATA.B     H'00
    00004C85 00000001               .RES.B      1
    00004C86 00000002               .RES.W      1
    00004C88              L1036:




SH SERIES C/C++ Compiler (Ver. 6.0C)                                                                 30-Jan-2015 21:53:33  PAGE  256


SCT OFFSET   CODE       C LABEL     INSTRUCTION OPERAND    COMMENT

    00004C88 436F6C6C65             .SDATA      "Collectez 20 pieces en"
             6374657A20   
             3230207069   
             6563657320   
             656E         
    00004C9E 00                     .DATA.B     H'00
    00004C9F 00000001               .RES.B      1
    00004CA0              L1037:
    00004CA0 4661697465             .SDATA      "Faites vous exploser par"
             7320766F75   
             7320657870   
             6C6F736572   
             20706172     
    00004CB8 00                     .DATA.B     H'00
    00004CB9 00000001               .RES.B      1
    00004CBA 00000002               .RES.W      1
    00004CBC              L1038:
    00004CBC 4661697465             .SDATA      "Faites vous cramer"
             7320766F75   
             7320637261   
             6D6572       
    00004CCE 00                     .DATA.B     H'00
    00004CCF 00000001               .RES.B      1
    00004CD0              L1039:
    00004CD0 4465706173             .SDATA      "Depassez 2km"
             73657A2032   
             6B6D         
    00004CDC 00                     .DATA.B     H'00
    00004CDD 00000001               .RES.B      1
    00004CDE 00000002               .RES.W      1
    00004CE0              L1040:
    00004CE0 4465706173             .SDATA      "Depassez 5km"
             73657A2035   
             6B6D         
    00004CEC 00                     .DATA.B     H'00
    00004CED 00000001               .RES.B      1
    00004CEE 00000002               .RES.W      1
    00004CF0              L1041:
    00004CF0 4661697465             .SDATA      "Faites une partie en"
             7320756E65   
             2070617274   
             696520656E   
    00004D04 00                     .DATA.B     H'00
    00004D05 00000001               .RES.B      1
    00004D06 00000002               .RES.W      1
    00004D08              L1042:
    00004D08 5065726465             .SDATA      "Perdez le tirage final"
             7A206C6520   
             7469726167   
             652066696E   
             616C         
    00004D1E 00                     .DATA.B     H'00
    00004D1F 00000001               .RES.B      1
    00004D20              L1043:
    00004D20 4761676E65             .SDATA      "Gagnez 3 explosions"
             7A20332065   
             78706C6F73   




SH SERIES C/C++ Compiler (Ver. 6.0C)                                                                 30-Jan-2015 21:53:33  PAGE  257


SCT OFFSET   CODE       C LABEL     INSTRUCTION OPERAND    COMMENT

             696F6E73     
    00004D33 00                     .DATA.B     H'00
    00004D34              L1044:
    00004D34 4661697465             .SDATA      "Faites un score"
             7320756E20   
             73636F7265   
    00004D43 00                     .DATA.B     H'00
    00004D44              L1045:
    00004D44 4163686574             .SDATA      "Achetez 2 jetpacks"
             657A203220   
             6A65747061   
             636B73       
    00004D56 00                     .DATA.B     H'00
    00004D57 00000001               .RES.B      1
    00004D58              L1046:
    00004D58 4661697465             .SDATA      "Faites plus de 800m"
             7320706C75   
             7320646520   
             3830306D     
    00004D6B 00                     .DATA.B     H'00
    00004D6C              L1047:
    00004D6C 4F6274656E             .SDATA      "Obtenez l'oiseau benef"
             657A206C27   
             6F69736561   
             752062656E   
             6566         
    00004D82 00                     .DATA.B     H'00
    00004D83 00000001               .RES.B      1
    00004D84              L1048:
    00004D84 4163686574             .SDATA      "Achetez un vehicule noir"
             657A20756E   
             2076656869   
             63756C6520   
             6E6F6972     
    00004D9C 00                     .DATA.B     H'00
    00004D9D 00000001               .RES.B      1
    00004D9E 00000002               .RES.W      1
    00004DA0              L1049:
    00004DA0 4F6274656E             .SDATA      "Obtenez un score"
             657A20756E   
             2073636F72   
             65           
    00004DB0 00                     .DATA.B     H'00
    00004DB1 00000001               .RES.B      1
    00004DB2 00000002               .RES.W      1
    00004DB4              L1050:
    00004DB4 4F682E2E2E             .SDATA      "Oh..."
    00004DB9 00                     .DATA.B     H'00
    00004DBA 00000002               .RES.W      1
    00004DBC              L1051:
    00004DBC 566F6C657A             .SDATA      "Volez sur 50km"
             2073757220   
             35306B6D     
    00004DCA 00                     .DATA.B     H'00
    00004DCB 00000001               .RES.B      1
    00004DCC              L1052:
    00004DCC 4661697465             .SDATA      "Faites 10km avec la"




SH SERIES C/C++ Compiler (Ver. 6.0C)                                                                 30-Jan-2015 21:53:33  PAGE  258


SCT OFFSET   CODE       C LABEL     INSTRUCTION OPERAND    COMMENT

             732031306B   
             6D20617665   
             63206C61     
    00004DDF 00                     .DATA.B     H'00
    00004DE0              L1053:
    00004DE0 446570656E             .SDATA      "Depensez plus de 50000"
             73657A2070   
             6C75732064   
             6520353030   
             3030         
    00004DF6 00                     .DATA.B     H'00
    00004DF7 00000001               .RES.B      1
    00004DF8              L1056:
    00004DF8 70656E6461             .SDATA      "pendant 2 minutes"
             6E74203220   
             6D696E7574   
             6573         
    00004E09 00                     .DATA.B     H'00
    00004E0A 00000002               .RES.W      1
    00004E0C              L1057:
    00004E0C 636F6C6C65             .SDATA      "collecter de piece/jeton"
             6374657220   
             6465207069   
             6563652F6A   
             65746F6E     
    00004E24 00                     .DATA.B     H'00
    00004E25 00000001               .RES.B      1
    00004E26 00000002               .RES.W      1
    00004E28              L1058:
    00004E28 656C656D65             .SDATA      "elements du jeu"
             6E74732064   
             75206A6575   
    00004E37 00                     .DATA.B     H'00
    00004E38              L1059:
    00004E38 6574616E74             .SDATA      "etant mort"
             206D6F7274   
    00004E42 00                     .DATA.B     H'00
    00004E43 00000001               .RES.B      1
    00004E44              L1060:
    00004E44 756E206D69             .SDATA      "un missile 3 fois de suite"
             7373696C65   
             203320666F   
             6973206465   
             2073756974   
             65           
    00004E5E 00                     .DATA.B     H'00
    00004E5F 00000001               .RES.B      1
    00004E60              L1061:
    00004E60 287A617070             .SDATA      "(zappeur ou laser) 99 fois"
             657572206F   
             75206C6173   
             6572292039   
             3920666F69   
             73           
    00004E7A 00                     .DATA.B     H'00
    00004E7B 00000001               .RES.B      1
    00004E7C              L1062:




SH SERIES C/C++ Compiler (Ver. 6.0C)                                                                 30-Jan-2015 21:53:33  PAGE  259


SCT OFFSET   CODE       C LABEL     INSTRUCTION OPERAND    COMMENT

    00004E7C 636F737475             .SDATA      "costume et en reacteur"
             6D65206574   
             20656E2072   
             6561637465   
             7572         
    00004E92 00                     .DATA.B     H'00
    00004E93 00000001               .RES.B      1
    00004E94              L1063:
    00004E94 3130302066             .SDATA      "100 fois"
             6F6973       
    00004E9C 00                     .DATA.B     H'00
    00004E9D 00000001               .RES.B      1
    00004E9E 00000002               .RES.W      1
    00004EA0              L1064:
    00004EA0 61746F6D69             .SDATA      "atomiques"
             71756573     
    00004EA9 00                     .DATA.B     H'00
    00004EAA 00000002               .RES.W      1
    00004EAC              L1065:
    00004EAC 6427657861             .SDATA      "d'exactement 800m"
             6374656D65   
             6E74203830   
             306D         
    00004EBD 00                     .DATA.B     H'00
    00004EBE 00000002               .RES.W      1
    00004EC0              L1066:
    00004EC0 6176656320             .SDATA      "avec le teleporteur"
             6C65207465   
             6C65706F72   
             74657572     
    00004ED3 00                     .DATA.B     H'00
    00004ED4              L1067:
    00004ED4 3220666F69             .SDATA      "2 fois en une partie"
             7320656E20   
             756E652070   
             6172746965   
    00004EE8 00                     .DATA.B     H'00
    00004EE9 00000001               .RES.B      1
    00004EEA 00000002               .RES.W      1
    00004EEC              L1068:
    00004EEC 6427657861             .SDATA      "d'exactement 69 pieces"
             6374656D65   
             6E74203639   
             2070696563   
             6573         
    00004F02 00                     .DATA.B     H'00
    00004F03 00000001               .RES.B      1
    00004F04              L1069:
    00004F04 596F752074             .SDATA      "You touch my tralala..."
             6F75636820   
             6D79207472   
             616C616C61   
             2E2E2E       
    00004F1B 00                     .DATA.B     H'00
    00004F1C              L1070:
    00004F1C 626563616E             .SDATA      "becane d'enfer"
             6520642765   




SH SERIES C/C++ Compiler (Ver. 6.0C)                                                                 30-Jan-2015 21:53:33  PAGE  260


SCT OFFSET   CODE       C LABEL     INSTRUCTION OPERAND    COMMENT

             6E666572     
    00004F2A 00                     .DATA.B     H'00
    00004F2B 00000001               .RES.B      1
    00004F2C              L1071:
    00004F2C 7069656365             .SDATA      "pieces"
             73           
    00004F32 00                     .DATA.B     H'00
    00004F33 00000001               .RES.B      1
    00004F34              L1093:
    00004F34 5045544954             .SDATA      "PETIT BONUS"
             20424F4E55   
             53           
    00004F3F 00                     .DATA.B     H'00
    00004F40              L1094:
    00004F40 47524F5320             .SDATA      "GROS BONUS"
             424F4E5553   
    00004F4A 00                     .DATA.B     H'00
    00004F4B 00000001               .RES.B      1
    00004F4C              L1095:
    00004F4C 4A41434B50             .SDATA      "JACKPOT"
             4F54         
    00004F53 00                     .DATA.B     H'00
    00004F54              L1096:
    00004F54 5045544954             .SDATA      "PETITE EXPLOSION"
             4520455850   
             4C4F53494F   
             4E           
    00004F64 00                     .DATA.B     H'00
    00004F65 00000001               .RES.B      1
    00004F66 00000002               .RES.W      1
    00004F68              L1097:
    00004F68 47524F5353             .SDATA      "GROSSE EXPLOSION"
             4520455850   
             4C4F53494F   
             4E           
    00004F78 00                     .DATA.B     H'00
    00004F79 00000001               .RES.B      1
    00004F7A 00000002               .RES.W      1
    00004F7C              L1098:
    00004F7C 424F4D4245             .SDATA      "BOMBE ATOMIQUE"
             2041544F4D   
             49515545     
    00004F8A 00                     .DATA.B     H'00
    00004F8B 00000001               .RES.B      1
    00004F8C              L1099:
    00004F8C 5345434F4E             .SDATA      "SECONDE CHANCE"
             4445204348   
             414E4345     
    00004F9A 00                     .DATA.B     H'00
    00004F9B 00000001               .RES.B      1
    00004F9C              L1100:
    00004F9C 4A45544F4E             .SDATA      "JETONS BONUS"
             5320424F4E   
             5553         
    00004FA8 00                     .DATA.B     H'00
    00004FA9 00000001               .RES.B      1
    00004FAA 00000002               .RES.W      1




SH SERIES C/C++ Compiler (Ver. 6.0C)                                                                 30-Jan-2015 21:53:33  PAGE  261


SCT OFFSET   CODE       C LABEL     INSTRUCTION OPERAND    COMMENT

    00004FAC              L1101:
    00004FAC 444F55424C             .SDATA      "DOUBLE PIECE"
             4520504945   
             4345         
    00004FB8 00                     .DATA.B     H'00
    00004FB9 00000001               .RES.B      1
    00004FBA 00000002               .RES.W      1
    00004FBC              L1102:
    00004FBC 4C4F4E4755             .SDATA      "LONGUEUR D'AVANCE"
             4555522044   
             274156414E   
             4345         
    00004FCD 00                     .DATA.B     H'00
    00004FCE 00000002               .RES.W      1
    00004FD0              L1105:
    00004FD0 2B31303020             .SDATA      "+100 pieces !"
             7069656365   
             732021       
    00004FDD 00                     .DATA.B     H'00
    00004FDE 00000002               .RES.W      1
    00004FE0              L1106:
    00004FE0 2B35303020             .SDATA      "+500 pieces !"
             7069656365   
             732021       
    00004FED 00                     .DATA.B     H'00
    00004FEE 00000002               .RES.W      1
    00004FF0              L1107:
    00004FF0 2B31303030             .SDATA      "+1000 pieces !"
             2070696563   
             65732021     
    00004FFE 00                     .DATA.B     H'00
    00004FFF 00000001               .RES.B      1
    00005000              L1108:
    00005000 4175676D65             .SDATA      "Augmente legerement"
             6E7465206C   
             6567657265   
             6D656E74     
    00005013 00                     .DATA.B     H'00
    00005014              L1109:
    00005014 4175676D65             .SDATA      "Augmente ton score !"
             6E74652074   
             6F6E207363   
             6F72652021   
    00005028 00                     .DATA.B     H'00
    00005029 00000001               .RES.B      1
    0000502A 00000002               .RES.W      1
    0000502C              L1110:
    0000502C 426F6F7374             .SDATA      "Boost ton score !"
             20746F6E20   
             73636F7265   
             2021         
    0000503D 00                     .DATA.B     H'00
    0000503E 00000002               .RES.W      1
    00005040              L1111:
    00005040 5265706172             .SDATA      "Repars comme si de"
             7320636F6D   
             6D65207369   




SH SERIES C/C++ Compiler (Ver. 6.0C)                                                                 30-Jan-2015 21:53:33  PAGE  262


SCT OFFSET   CODE       C LABEL     INSTRUCTION OPERAND    COMMENT

             206465       
    00005052 00                     .DATA.B     H'00
    00005053 00000001               .RES.B      1
    00005054              L1112:
    00005054 416C6C657A             .SDATA      "Allez, cadeau !"
             2C20636164   
             6561752021   
    00005063 00                     .DATA.B     H'00
    00005064              L1113:
    00005064 5069656365             .SDATA      "Pieces doublees a la"
             7320646F75   
             626C656573   
             2061206C61   
    00005078 00                     .DATA.B     H'00
    00005079 00000001               .RES.B      1
    0000507A 00000002               .RES.W      1
    0000507C              L1114:
    0000507C 3735306D20             .SDATA      "750m d'avance a la"
             6427617661   
             6E63652061   
             206C61       
    0000508E 00                     .DATA.B     H'00
    0000508F 00000001               .RES.B      1
    00005090              L1117:
    00005090 746F6E2073             .SDATA      "ton score !"
             636F726520   
             21           
    0000509B 00                     .DATA.B     H'00
    0000509C              L1118:
    0000509C 7269656E20             .SDATA      "rien n'etait !"
             6E27657461   
             69742021     
    000050AA 00                     .DATA.B     H'00
    000050AB 00000001               .RES.B      1
    000050AC              L1119:
    000050AC 70726F6368             .SDATA      "prochaine partie !"
             61696E6520   
             7061727469   
             652021       
    000050BE 00                     .DATA.B     H'00
D   00000000              __$SysCallCode:                  ; static: SysCallCode
    00000000 D201422B60             .DATA.L     H'D201422B,H'60F20000,H'80010070
             F200008001   
             0070         
    0000000C              __$SysCall:                      ; static: SysCall
    0000000C <00000000>             .DATA.L     __$SysCallCode
    00000010              _PathName:                       ; static: PathName
    00000010 005C005C00             .DATA.W     H'005C,H'005C,H'0066,H'006C,H'0073,H'0030,H'005C,H'004A,H'0045,H'0054,H'0050,H'0041,
             66006C0073 +                       H'0043,H'004B,H'002E,H'0073,H'0061,H'0076,H'0000
             0030005C00   
             4A00450054   
             0050004100   
             43004B002E   
             0073006100   
             760000       
B   00000000              __$boxPos:                       ; static: boxPos
    00000000 00000004               .RES.L      1




SH SERIES C/C++ Compiler (Ver. 6.0C)                                                                 30-Jan-2015 21:53:33  PAGE  263


SCT OFFSET   CODE       C LABEL     INSTRUCTION OPERAND    COMMENT

    00000004              _handle:                         ; static: handle
    00000004 00000004               .RES.L      1



























































SH SERIES C/C++ Compiler (Ver. 6.0C)                                                                 30-Jan-2015 21:53:33  PAGE    1


******** STATISTICS INFORMATION ********


********** ERROR INFORMATION ***********

NUMBER OF ERRORS:           0
NUMBER OF WARNINGS:        97




******* SOURCE LINE INFORMATION ********

COMPILED SOURCE LINE:     1390



******* SECTION SIZE INFORMATION *******

PROGRAM  SECTION (P):                               00003EB4 Byte(s)
CONSTANT SECTION (C):                               000050BF Byte(s)
DATA     SECTION (D):                               00000036 Byte(s)
BSS      SECTION (B):                               00000008 Byte(s)

 TOTAL PROGRAM SIZE: 00008FB1 Byte(s)



********** LABEL INFORMATION ***********

NUMBER OF EXTERNAL REFERENCE SYMBOLS:           49
NUMBER OF EXTERNAL DEFINITION SYMBOLS:          18
NUMBER OF INTERNAL/EXTERNAL SYMBOLS:          1014






























*** COMMAND PARAMETER ***


  -subcommand=C:\Users\ALEX\AppData\Local\Temp\hmk64C0.tmp 

